
build/gpio.elf:     file format elf32-littleriscv


Disassembly of section .text:

00000000 <_start_boot>:
   0:	01800117          	auipc	sp,0x1800
   4:	00010113          	mv	sp,sp
   8:	3e800293          	li	t0,1000
   c:	01000317          	auipc	t1,0x1000
  10:	ff430313          	addi	t1,t1,-12 # 1000000 <completed.1>
  14:	01000397          	auipc	t2,0x1000
  18:	fec38393          	addi	t2,t2,-20 # 1000000 <completed.1>
  1c:	00737963          	bgeu	t1,t2,2e <_start_boot+0x2e>
  20:	0002a403          	lw	s0,0(t0)
  24:	00832023          	sw	s0,0(t1)
  28:	0291                	addi	t0,t0,4
  2a:	0311                	addi	t1,t1,4
  2c:	bfc5                	j	1c <_start_boot+0x1c>
  2e:	a009                	j	30 <_start>

00000030 <_start>:
  30:	01000197          	auipc	gp,0x1000
  34:	7d018193          	addi	gp,gp,2000 # 1000800 <__global_pointer$>
  38:	00000513          	li	a0,0
  3c:	c119                	beqz	a0,42 <_start+0x12>
  3e:	01751073          	csrw	jvt,a0
  42:	01000517          	auipc	a0,0x1000
  46:	fbe50513          	addi	a0,a0,-66 # 1000000 <completed.1>
  4a:	01000617          	auipc	a2,0x1000
  4e:	16a60613          	addi	a2,a2,362 # 10001b4 <__bss_end>
  52:	8e09                	sub	a2,a2,a0
  54:	4581                	li	a1,0
  56:	2895                	jal	ca <memset>
  58:	00000517          	auipc	a0,0x0
  5c:	2de50513          	addi	a0,a0,734 # 336 <atexit>
  60:	c511                	beqz	a0,6c <_start+0x3c>
  62:	00000517          	auipc	a0,0x0
  66:	2de50513          	addi	a0,a0,734 # 340 <__libc_fini_array>
  6a:	24f1                	jal	336 <atexit>
  6c:	2ab5                	jal	1e8 <__libc_init_array>
  6e:	4502                	lw	a0,0(sp)
  70:	004c                	addi	a1,sp,4
  72:	00251613          	slli	a2,a0,0x2
  76:	0611                	addi	a2,a2,4
  78:	962e                	add	a2,a2,a1
  7a:	28e5                	jal	172 <main>
  7c:	aa91                	j	1d0 <exit>

0000007e <__do_global_dtors_aux>:
  7e:	1161                	addi	sp,sp,-8 # 17ffff8 <__heap_limit+0xff8>
  80:	c022                	sw	s0,0(sp)
  82:	01000437          	lui	s0,0x1000
  86:	00044783          	lbu	a5,0(s0) # 1000000 <completed.1>
  8a:	c206                	sw	ra,4(sp)
  8c:	ef89                	bnez	a5,a6 <__do_global_dtors_aux+0x28>
  8e:	00000793          	li	a5,0
  92:	c799                	beqz	a5,a0 <__do_global_dtors_aux+0x22>
  94:	3dc00513          	li	a0,988
  98:	00000097          	auipc	ra,0x0
  9c:	000000e7          	jalr	zero # 0 <_start_boot>
  a0:	4785                	li	a5,1
  a2:	00f40023          	sb	a5,0(s0)
  a6:	4092                	lw	ra,4(sp)
  a8:	4402                	lw	s0,0(sp)
  aa:	0121                	addi	sp,sp,8
  ac:	8082                	ret

000000ae <frame_dummy>:
  ae:	00000793          	li	a5,0
  b2:	cb99                	beqz	a5,c8 <frame_dummy+0x1a>
  b4:	010005b7          	lui	a1,0x1000
  b8:	00458593          	addi	a1,a1,4 # 1000004 <object.0>
  bc:	3dc00513          	li	a0,988
  c0:	00000317          	auipc	t1,0x0
  c4:	00000067          	jr	zero # 0 <_start_boot>
  c8:	8082                	ret

000000ca <memset>:
  ca:	433d                	li	t1,15
  cc:	872a                	mv	a4,a0
  ce:	02c37363          	bgeu	t1,a2,f4 <memset+0x2a>
  d2:	00f77793          	andi	a5,a4,15
  d6:	efbd                	bnez	a5,154 <memset+0x8a>
  d8:	e5ad                	bnez	a1,142 <memset+0x78>
  da:	ff067693          	andi	a3,a2,-16
  de:	8a3d                	andi	a2,a2,15
  e0:	96ba                	add	a3,a3,a4
  e2:	c30c                	sw	a1,0(a4)
  e4:	c34c                	sw	a1,4(a4)
  e6:	c70c                	sw	a1,8(a4)
  e8:	c74c                	sw	a1,12(a4)
  ea:	0741                	addi	a4,a4,16
  ec:	fed76be3          	bltu	a4,a3,e2 <memset+0x18>
  f0:	e211                	bnez	a2,f4 <memset+0x2a>
  f2:	8082                	ret
  f4:	40c306b3          	sub	a3,t1,a2
  f8:	068a                	slli	a3,a3,0x2
  fa:	00000297          	auipc	t0,0x0
  fe:	9696                	add	a3,a3,t0
 100:	00a68067          	jr	10(a3)
 104:	00b70723          	sb	a1,14(a4)
 108:	00b706a3          	sb	a1,13(a4)
 10c:	00b70623          	sb	a1,12(a4)
 110:	00b705a3          	sb	a1,11(a4)
 114:	00b70523          	sb	a1,10(a4)
 118:	00b704a3          	sb	a1,9(a4)
 11c:	00b70423          	sb	a1,8(a4)
 120:	00b703a3          	sb	a1,7(a4)
 124:	00b70323          	sb	a1,6(a4)
 128:	00b702a3          	sb	a1,5(a4)
 12c:	00b70223          	sb	a1,4(a4)
 130:	00b701a3          	sb	a1,3(a4)
 134:	00b70123          	sb	a1,2(a4)
 138:	00b700a3          	sb	a1,1(a4)
 13c:	00b70023          	sb	a1,0(a4)
 140:	8082                	ret
 142:	0ff5f593          	zext.b	a1,a1
 146:	00859693          	slli	a3,a1,0x8
 14a:	8dd5                	or	a1,a1,a3
 14c:	01059693          	slli	a3,a1,0x10
 150:	8dd5                	or	a1,a1,a3
 152:	b761                	j	da <memset+0x10>
 154:	00279693          	slli	a3,a5,0x2
 158:	00000297          	auipc	t0,0x0
 15c:	9696                	add	a3,a3,t0
 15e:	8286                	mv	t0,ra
 160:	fa8680e7          	jalr	-88(a3)
 164:	8096                	mv	ra,t0
 166:	17c1                	addi	a5,a5,-16
 168:	8f1d                	sub	a4,a4,a5
 16a:	963e                	add	a2,a2,a5
 16c:	f8c374e3          	bgeu	t1,a2,f4 <memset+0x2a>
 170:	b7a5                	j	d8 <memset+0xe>

00000172 <main>:
 172:	1161                	addi	sp,sp,-8
 174:	0ff00513          	li	a0,255
 178:	c206                	sw	ra,4(sp)
 17a:	201d                	jal	1a0 <gpio_set_direction_mask>
 17c:	4501                	li	a0,0
 17e:	20a1                	jal	1c6 <gpio_write>
 180:	c002                	sw	zero,0(sp)
 182:	4782                	lw	a5,0(sp)
 184:	6761                	lui	a4,0x18
 186:	69f70713          	addi	a4,a4,1695 # 1869f <__data_load_start+0x182b7>
 18a:	00f74863          	blt	a4,a5,19a <main+0x28>
 18e:	4782                	lw	a5,0(sp)
 190:	0785                	addi	a5,a5,1
 192:	c03e                	sw	a5,0(sp)
 194:	4782                	lw	a5,0(sp)
 196:	fef75ce3          	bge	a4,a5,18e <main+0x1c>
 19a:	4501                	li	a0,0
 19c:	2031                	jal	1a8 <gpio_toggle_pin>
 19e:	b7cd                	j	180 <main+0xe>

000001a0 <gpio_set_direction_mask>:
 1a0:	400017b7          	lui	a5,0x40001
 1a4:	c388                	sw	a0,0(a5)
 1a6:	8082                	ret

000001a8 <gpio_toggle_pin>:
 1a8:	4799                	li	a5,6
 1aa:	00a7ec63          	bltu	a5,a0,1c2 <gpio_toggle_pin+0x1a>
 1ae:	40001737          	lui	a4,0x40001
 1b2:	4354                	lw	a3,4(a4)
 1b4:	4785                	li	a5,1
 1b6:	00a797b3          	sll	a5,a5,a0
 1ba:	8fb5                	xor	a5,a5,a3
 1bc:	c35c                	sw	a5,4(a4)
 1be:	4501                	li	a0,0
 1c0:	8082                	ret
 1c2:	557d                	li	a0,-1
 1c4:	8082                	ret

000001c6 <gpio_write>:
 1c6:	400017b7          	lui	a5,0x40001
 1ca:	c3c8                	sw	a0,4(a5)
 1cc:	8082                	ret

000001ce <_exit>:
 1ce:	a001                	j	1ce <_exit>

000001d0 <exit>:
 1d0:	1161                	addi	sp,sp,-8
 1d2:	4581                	li	a1,0
 1d4:	c022                	sw	s0,0(sp)
 1d6:	c206                	sw	ra,4(sp)
 1d8:	842a                	mv	s0,a0
 1da:	28bd                	jal	258 <__call_exitprocs>
 1dc:	9ac1a783          	lw	a5,-1620(gp) # 10001ac <__stdio_exit_handler>
 1e0:	c391                	beqz	a5,1e4 <exit+0x14>
 1e2:	9782                	jalr	a5
 1e4:	8522                	mv	a0,s0
 1e6:	37e5                	jal	1ce <_exit>

000001e8 <__libc_init_array>:
 1e8:	1141                	addi	sp,sp,-16
 1ea:	c422                	sw	s0,8(sp)
 1ec:	c226                	sw	s1,4(sp)
 1ee:	c606                	sw	ra,12(sp)
 1f0:	00000413          	li	s0,0
 1f4:	00000493          	li	s1,0
 1f8:	02940063          	beq	s0,s1,218 <__libc_init_array+0x30>
 1fc:	8c05                	sub	s0,s0,s1
 1fe:	40245793          	srai	a5,s0,0x2
 202:	c03e                	sw	a5,0(sp)
 204:	4401                	li	s0,0
 206:	00241713          	slli	a4,s0,0x2
 20a:	9726                	add	a4,a4,s1
 20c:	4318                	lw	a4,0(a4)
 20e:	0405                	addi	s0,s0,1
 210:	9702                	jalr	a4
 212:	4782                	lw	a5,0(sp)
 214:	fef469e3          	bltu	s0,a5,206 <__libc_init_array+0x1e>
 218:	00000413          	li	s0,0
 21c:	00000493          	li	s1,0
 220:	02940063          	beq	s0,s1,240 <__libc_init_array+0x58>
 224:	8c05                	sub	s0,s0,s1
 226:	40245793          	srai	a5,s0,0x2
 22a:	c03e                	sw	a5,0(sp)
 22c:	4401                	li	s0,0
 22e:	00241713          	slli	a4,s0,0x2
 232:	9726                	add	a4,a4,s1
 234:	4318                	lw	a4,0(a4)
 236:	0405                	addi	s0,s0,1
 238:	9702                	jalr	a4
 23a:	4782                	lw	a5,0(sp)
 23c:	fef469e3          	bltu	s0,a5,22e <__libc_init_array+0x46>
 240:	40b2                	lw	ra,12(sp)
 242:	4422                	lw	s0,8(sp)
 244:	4492                	lw	s1,4(sp)
 246:	0141                	addi	sp,sp,16
 248:	8082                	ret

0000024a <register_fini>:
 24a:	00000793          	li	a5,0
 24e:	c781                	beqz	a5,256 <register_fini+0xc>
 250:	34000513          	li	a0,832
 254:	a0cd                	j	336 <atexit>
 256:	8082                	ret

00000258 <__call_exitprocs>:
 258:	1111                	addi	sp,sp,-28
 25a:	c826                	sw	s1,16(sp)
 25c:	9b01a483          	lw	s1,-1616(gp) # 10001b0 <__atexit>
 260:	cc06                	sw	ra,24(sp)
 262:	c62a                	sw	a0,12(sp)
 264:	c0b5                	beqz	s1,2c8 <__call_exitprocs+0x70>
 266:	ca22                	sw	s0,20(sp)
 268:	842e                	mv	s0,a1
 26a:	40d8                	lw	a4,4(s1)
 26c:	fff70793          	addi	a5,a4,-1 # 40000fff <__stack_top+0x3e800fff>
 270:	0407cb63          	bltz	a5,2c6 <__call_exitprocs+0x6e>
 274:	070a                	slli	a4,a4,0x2
 276:	9726                	add	a4,a4,s1
 278:	e441                	bnez	s0,300 <__call_exitprocs+0xa8>
 27a:	40d0                	lw	a2,4(s1)
 27c:	00472303          	lw	t1,4(a4)
 280:	167d                	addi	a2,a2,-1
 282:	06f60d63          	beq	a2,a5,2fc <__call_exitprocs+0xa4>
 286:	00072223          	sw	zero,4(a4)
 28a:	02030963          	beqz	t1,2bc <__call_exitprocs+0x64>
 28e:	1884a583          	lw	a1,392(s1)
 292:	4605                	li	a2,1
 294:	00f61633          	sll	a2,a2,a5
 298:	8df1                	and	a1,a1,a2
 29a:	0044a383          	lw	t2,4(s1)
 29e:	e98d                	bnez	a1,2d0 <__call_exitprocs+0x78>
 2a0:	c43e                	sw	a5,8(sp)
 2a2:	c21e                	sw	t2,4(sp)
 2a4:	c03a                	sw	a4,0(sp)
 2a6:	9302                	jalr	t1
 2a8:	4702                	lw	a4,0(sp)
 2aa:	4392                	lw	t2,4(sp)
 2ac:	47a2                	lw	a5,8(sp)
 2ae:	40cc                	lw	a1,4(s1)
 2b0:	9b01a603          	lw	a2,-1616(gp) # 10001b0 <__atexit>
 2b4:	04759163          	bne	a1,t2,2f6 <__call_exitprocs+0x9e>
 2b8:	02961f63          	bne	a2,s1,2f6 <__call_exitprocs+0x9e>
 2bc:	17fd                	addi	a5,a5,-1 # 40000fff <__stack_top+0x3e800fff>
 2be:	567d                	li	a2,-1
 2c0:	1771                	addi	a4,a4,-4
 2c2:	fac79be3          	bne	a5,a2,278 <__call_exitprocs+0x20>
 2c6:	4452                	lw	s0,20(sp)
 2c8:	40e2                	lw	ra,24(sp)
 2ca:	44c2                	lw	s1,16(sp)
 2cc:	0171                	addi	sp,sp,28
 2ce:	8082                	ret
 2d0:	18c4a503          	lw	a0,396(s1)
 2d4:	c43e                	sw	a5,8(sp)
 2d6:	c21e                	sw	t2,4(sp)
 2d8:	8e69                	and	a2,a2,a0
 2da:	c03a                	sw	a4,0(sp)
 2dc:	08472583          	lw	a1,132(a4)
 2e0:	e629                	bnez	a2,32a <__call_exitprocs+0xd2>
 2e2:	4532                	lw	a0,12(sp)
 2e4:	9302                	jalr	t1
 2e6:	4392                	lw	t2,4(sp)
 2e8:	40cc                	lw	a1,4(s1)
 2ea:	4702                	lw	a4,0(sp)
 2ec:	47a2                	lw	a5,8(sp)
 2ee:	9b01a603          	lw	a2,-1616(gp) # 10001b0 <__atexit>
 2f2:	fc7583e3          	beq	a1,t2,2b8 <__call_exitprocs+0x60>
 2f6:	da61                	beqz	a2,2c6 <__call_exitprocs+0x6e>
 2f8:	84b2                	mv	s1,a2
 2fa:	bf85                	j	26a <__call_exitprocs+0x12>
 2fc:	c0dc                	sw	a5,4(s1)
 2fe:	b771                	j	28a <__call_exitprocs+0x32>
 300:	557d                	li	a0,-1
 302:	10472603          	lw	a2,260(a4)
 306:	fff78593          	addi	a1,a5,-1
 30a:	f6c408e3          	beq	s0,a2,27a <__call_exitprocs+0x22>
 30e:	17f9                	addi	a5,a5,-2
 310:	faa58be3          	beq	a1,a0,2c6 <__call_exitprocs+0x6e>
 314:	10072603          	lw	a2,256(a4)
 318:	00860663          	beq	a2,s0,324 <__call_exitprocs+0xcc>
 31c:	1761                	addi	a4,a4,-8
 31e:	fea792e3          	bne	a5,a0,302 <__call_exitprocs+0xaa>
 322:	b755                	j	2c6 <__call_exitprocs+0x6e>
 324:	87ae                	mv	a5,a1
 326:	1771                	addi	a4,a4,-4
 328:	bf89                	j	27a <__call_exitprocs+0x22>
 32a:	852e                	mv	a0,a1
 32c:	9302                	jalr	t1
 32e:	47a2                	lw	a5,8(sp)
 330:	4392                	lw	t2,4(sp)
 332:	4702                	lw	a4,0(sp)
 334:	bfad                	j	2ae <__call_exitprocs+0x56>

00000336 <atexit>:
 336:	85aa                	mv	a1,a0
 338:	4681                	li	a3,0
 33a:	4601                	li	a2,0
 33c:	4501                	li	a0,0
 33e:	a80d                	j	370 <__register_exitproc>

00000340 <__libc_fini_array>:
 340:	1151                	addi	sp,sp,-12
 342:	c222                	sw	s0,4(sp)
 344:	00000793          	li	a5,0
 348:	00000413          	li	s0,0
 34c:	8f81                	sub	a5,a5,s0
 34e:	c026                	sw	s1,0(sp)
 350:	c406                	sw	ra,8(sp)
 352:	4027d493          	srai	s1,a5,0x2
 356:	c881                	beqz	s1,366 <__libc_fini_array+0x26>
 358:	1471                	addi	s0,s0,-4
 35a:	943e                	add	s0,s0,a5
 35c:	401c                	lw	a5,0(s0)
 35e:	14fd                	addi	s1,s1,-1
 360:	1471                	addi	s0,s0,-4
 362:	9782                	jalr	a5
 364:	fce5                	bnez	s1,35c <__libc_fini_array+0x1c>
 366:	40a2                	lw	ra,8(sp)
 368:	4412                	lw	s0,4(sp)
 36a:	4482                	lw	s1,0(sp)
 36c:	0131                	addi	sp,sp,12
 36e:	8082                	ret

00000370 <__register_exitproc>:
 370:	9b01a783          	lw	a5,-1616(gp) # 10001b0 <__atexit>
 374:	c3a1                	beqz	a5,3b4 <__register_exitproc+0x44>
 376:	43d8                	lw	a4,4(a5)
 378:	437d                	li	t1,31
 37a:	04e34f63          	blt	t1,a4,3d8 <__register_exitproc+0x68>
 37e:	00271313          	slli	t1,a4,0x2
 382:	c11d                	beqz	a0,3a8 <__register_exitproc+0x38>
 384:	006783b3          	add	t2,a5,t1
 388:	08c3a423          	sw	a2,136(t2)
 38c:	1887a283          	lw	t0,392(a5)
 390:	4605                	li	a2,1
 392:	00e61633          	sll	a2,a2,a4
 396:	00c2e2b3          	or	t0,t0,a2
 39a:	1857a423          	sw	t0,392(a5)
 39e:	10d3a423          	sw	a3,264(t2)
 3a2:	4689                	li	a3,2
 3a4:	00d50f63          	beq	a0,a3,3c2 <__register_exitproc+0x52>
 3a8:	0705                	addi	a4,a4,1
 3aa:	c3d8                	sw	a4,4(a5)
 3ac:	979a                	add	a5,a5,t1
 3ae:	c78c                	sw	a1,8(a5)
 3b0:	4501                	li	a0,0
 3b2:	8082                	ret
 3b4:	010007b7          	lui	a5,0x1000
 3b8:	01c78793          	addi	a5,a5,28 # 100001c <__atexit0>
 3bc:	9af1a823          	sw	a5,-1616(gp) # 10001b0 <__atexit>
 3c0:	bf5d                	j	376 <__register_exitproc+0x6>
 3c2:	18c7a683          	lw	a3,396(a5)
 3c6:	0705                	addi	a4,a4,1
 3c8:	c3d8                	sw	a4,4(a5)
 3ca:	8ed1                	or	a3,a3,a2
 3cc:	18d7a623          	sw	a3,396(a5)
 3d0:	979a                	add	a5,a5,t1
 3d2:	c78c                	sw	a1,8(a5)
 3d4:	4501                	li	a0,0
 3d6:	8082                	ret
 3d8:	557d                	li	a0,-1
 3da:	8082                	ret

Disassembly of section .init_array:

000003dc <__frame_dummy_init_array_entry>:
 3dc:	00ae                	slli	ra,ra,0xb
 3de:	0000                	unimp
 3e0:	024a                	slli	tp,tp,0x12
	...

Disassembly of section .fini_array:

000003e4 <__do_global_dtors_aux_fini_array_entry>:
 3e4:	007e                	c.slli	zero,0x1f
	...

Disassembly of section .riscv.attributes:

00000000 <.riscv.attributes>:
   0:	3441                	jal	fffffa80 <__stack_top+0xfe7ffa80>
   2:	0000                	unimp
   4:	7200                	.insn	2, 0x7200
   6:	7369                	lui	t1,0xffffa
   8:	01007663          	bgeu	zero,a6,14 <_start_boot+0x14>
   c:	002a                	c.slli	zero,0xa
   e:	0000                	unimp
  10:	0404                	addi	s1,sp,512
  12:	7205                	lui	tp,0xfffe1
  14:	3376                	.insn	2, 0x3376
  16:	6532                	.insn	2, 0x6532
  18:	7032                	.insn	2, 0x7032
  1a:	5f30                	lw	a2,120(a4)
  1c:	30703263          	.insn	4, 0x30703263
  20:	7a5f 6369 7273      	.insn	6, 0x727363697a5f
  26:	7032                	.insn	2, 0x7032
  28:	5f30                	lw	a2,120(a4)
  2a:	637a                	.insn	2, 0x637a
  2c:	3161                	jal	fffffcb4 <__stack_top+0xfe7ffcb4>
  2e:	3070                	.insn	2, 0x3070
  30:	0800                	addi	s0,sp,16
  32:	0a01                	addi	s4,s4,0
  34:	0b                	.byte	0x0b

Disassembly of section .comment:

00000000 <.comment>:
   0:	3a434347          	.insn	4, 0x3a434347
   4:	2820                	.insn	2, 0x2820
   6:	31313567          	.insn	4, 0x31313567
   a:	6335                	lui	t1,0xd
   c:	34346537          	lui	a0,0x34346
  10:	20296637          	lui	a2,0x20296
  14:	3531                	jal	fffffe20 <__stack_top+0xfe7ffe20>
  16:	322e                	.insn	2, 0x322e
  18:	302e                	.insn	2, 0x302e
  1a:	4700                	lw	s0,8(a4)
  1c:	203a4343          	.insn	4, 0x203a4343
  20:	4728                	lw	a0,72(a4)
  22:	554e                	lw	a0,240(sp)
  24:	2029                	jal	2e <_start_boot+0x2e>
  26:	3531                	jal	fffffe32 <__stack_top+0xfe7ffe32>
  28:	322e                	.insn	2, 0x322e
  2a:	302e                	.insn	2, 0x302e
	...
