
build/spi-transfer.elf:     file format elf32-littleriscv


Disassembly of section .text:

00000000 <_start>:
   0:	02000117          	auipc	sp,0x2000
   4:	00010113          	mv	sp,sp
   8:	01000197          	auipc	gp,0x1000
   c:	7f818193          	addi	gp,gp,2040 # 1000800 <__global_pointer$>
  10:	01000737          	lui	a4,0x1000
  14:	010006b7          	lui	a3,0x1000
  18:	00070713          	mv	a4,a4
  1c:	00068693          	mv	a3,a3
  20:	00d77e63          	bgeu	a4,a3,3c <_start+0x3c>
  24:	8e99                	sub	a3,a3,a4
  26:	29800793          	li	a5,664
  2a:	00f68633          	add	a2,a3,a5
  2e:	4394                	lw	a3,0(a5)
  30:	0791                	addi	a5,a5,4
  32:	0711                	addi	a4,a4,4 # 1000004 <__bss_end+0x4>
  34:	fed72e23          	sw	a3,-4(a4)
  38:	fec79be3          	bne	a5,a2,2e <_start+0x2e>
  3c:	010007b7          	lui	a5,0x1000
  40:	01000737          	lui	a4,0x1000
  44:	00078793          	mv	a5,a5
  48:	00070713          	mv	a4,a4
  4c:	00e7f763          	bgeu	a5,a4,5a <_start+0x5a>
  50:	0007a023          	sw	zero,0(a5) # 1000000 <__bss_end>
  54:	0791                	addi	a5,a5,4
  56:	fef71de3          	bne	a4,a5,50 <_start+0x50>
  5a:	28d9                	jal	130 <main>
  5c:	a001                	j	5c <_start+0x5c>

0000005e <spi_transfer_single_byte>:
  5e:	fd410113          	addi	sp,sp,-44 # 1ffffd4 <__heap_limit+0xfd4>
  62:	d222                	sw	s0,36(sp)
  64:	842a                	mv	s0,a0
  66:	450d                	li	a0,3
  68:	d406                	sw	ra,40(sp)
  6a:	d026                	sw	s1,32(sp)
  6c:	22b1                	jal	1b8 <spi_init>
  6e:	8522                	mv	a0,s0
  70:	2aa9                	jal	1ca <spi_set_mode>
  72:	4585                	li	a1,1
  74:	4509                	li	a0,2
  76:	2271                	jal	202 <gpio_set_direction>
  78:	4509                	li	a0,2
  7a:	2a75                	jal	236 <gpio_set_pin>
  7c:	840a                	mv	s0,sp
  7e:	4481                	li	s1,0
  80:	4509                	li	a0,2
  82:	2ac9                	jal	254 <gpio_clear_pin>
  84:	0ff4f513          	zext.b	a0,s1
  88:	2aa1                	jal	1e0 <spi_transfer_byte>
  8a:	009407b3          	add	a5,s0,s1
  8e:	00a78023          	sb	a0,0(a5)
  92:	4509                	li	a0,2
  94:	224d                	jal	236 <gpio_set_pin>
  96:	0485                	addi	s1,s1,1
  98:	02000793          	li	a5,32
  9c:	fef492e3          	bne	s1,a5,80 <spi_transfer_single_byte+0x22>
  a0:	4509                	li	a0,2
  a2:	2a4d                	jal	254 <gpio_clear_pin>
  a4:	00044503          	lbu	a0,0(s0)
  a8:	0405                	addi	s0,s0,1
  aa:	2a1d                	jal	1e0 <spi_transfer_byte>
  ac:	4509                	li	a0,2
  ae:	2261                	jal	236 <gpio_set_pin>
  b0:	101c                	addi	a5,sp,32
  b2:	fef417e3          	bne	s0,a5,a0 <spi_transfer_single_byte+0x42>
  b6:	50a2                	lw	ra,40(sp)
  b8:	5412                	lw	s0,36(sp)
  ba:	5482                	lw	s1,32(sp)
  bc:	02c10113          	addi	sp,sp,44
  c0:	8082                	ret

000000c2 <spi_transfer_multiple_bytes>:
  c2:	ef410113          	addi	sp,sp,-268
  c6:	10812223          	sw	s0,260(sp)
  ca:	842a                	mv	s0,a0
  cc:	450d                	li	a0,3
  ce:	10112423          	sw	ra,264(sp)
  d2:	10912023          	sw	s1,256(sp)
  d6:	20cd                	jal	1b8 <spi_init>
  d8:	8522                	mv	a0,s0
  da:	28c5                	jal	1ca <spi_set_mode>
  dc:	4585                	li	a1,1
  de:	4509                	li	a0,2
  e0:	220d                	jal	202 <gpio_set_direction>
  e2:	4509                	li	a0,2
  e4:	2a89                	jal	236 <gpio_set_pin>
  e6:	4509                	li	a0,2
  e8:	22b5                	jal	254 <gpio_clear_pin>
  ea:	840a                	mv	s0,sp
  ec:	4481                	li	s1,0
  ee:	0ff4f513          	zext.b	a0,s1
  f2:	20fd                	jal	1e0 <spi_transfer_byte>
  f4:	009407b3          	add	a5,s0,s1
  f8:	00a78023          	sb	a0,0(a5)
  fc:	0485                	addi	s1,s1,1
  fe:	10000793          	li	a5,256
 102:	fef496e3          	bne	s1,a5,ee <spi_transfer_multiple_bytes+0x2c>
 106:	4509                	li	a0,2
 108:	223d                	jal	236 <gpio_set_pin>
 10a:	4509                	li	a0,2
 10c:	22a1                	jal	254 <gpio_clear_pin>
 10e:	00044503          	lbu	a0,0(s0)
 112:	0405                	addi	s0,s0,1
 114:	20f1                	jal	1e0 <spi_transfer_byte>
 116:	021c                	addi	a5,sp,256
 118:	fef41be3          	bne	s0,a5,10e <spi_transfer_multiple_bytes+0x4c>
 11c:	10412403          	lw	s0,260(sp)
 120:	10812083          	lw	ra,264(sp)
 124:	10012483          	lw	s1,256(sp)
 128:	4509                	li	a0,2
 12a:	10c10113          	addi	sp,sp,268
 12e:	a221                	j	236 <gpio_set_pin>

00000130 <main>:
 130:	014007b7          	lui	a5,0x1400
 134:	439c                	lw	a5,0(a5)
 136:	1161                	addi	sp,sp,-8
 138:	c206                	sw	ra,4(sp)
 13a:	471d                	li	a4,7
 13c:	06f76663          	bltu	a4,a5,1a8 <main+0x78>
 140:	078a                	slli	a5,a5,0x2
 142:	27800713          	li	a4,632
 146:	97ba                	add	a5,a5,a4
 148:	439c                	lw	a5,0(a5)
 14a:	8782                	jr	a5
 14c:	20000513          	li	a0,512
 150:	3739                	jal	5e <spi_transfer_single_byte>
 152:	00000073          	ecall
 156:	a001                	j	156 <main+0x26>
 158:	30000513          	li	a0,768
 15c:	3709                	jal	5e <spi_transfer_single_byte>
 15e:	00000073          	ecall
 162:	bfd5                	j	156 <main+0x26>
 164:	20000513          	li	a0,512
 168:	3fa9                	jal	c2 <spi_transfer_multiple_bytes>
 16a:	00000073          	ecall
 16e:	b7e5                	j	156 <main+0x26>
 170:	30000513          	li	a0,768
 174:	37b9                	jal	c2 <spi_transfer_multiple_bytes>
 176:	00000073          	ecall
 17a:	bff1                	j	156 <main+0x26>
 17c:	4501                	li	a0,0
 17e:	35c5                	jal	5e <spi_transfer_single_byte>
 180:	00000073          	ecall
 184:	bfc9                	j	156 <main+0x26>
 186:	10000513          	li	a0,256
 18a:	3dd1                	jal	5e <spi_transfer_single_byte>
 18c:	00000073          	ecall
 190:	b7d9                	j	156 <main+0x26>
 192:	4501                	li	a0,0
 194:	373d                	jal	c2 <spi_transfer_multiple_bytes>
 196:	00000073          	ecall
 19a:	bf75                	j	156 <main+0x26>
 19c:	10000513          	li	a0,256
 1a0:	370d                	jal	c2 <spi_transfer_multiple_bytes>
 1a2:	00000073          	ecall
 1a6:	bf45                	j	156 <main+0x26>
 1a8:	4501                	li	a0,0
 1aa:	c03e                	sw	a5,0(sp)
 1ac:	3f19                	jal	c2 <spi_transfer_multiple_bytes>
 1ae:	4782                	lw	a5,0(sp)
 1b0:	471d                	li	a4,7
 1b2:	faf750e3          	bge	a4,a5,152 <main+0x22>
 1b6:	b745                	j	156 <main+0x26>

000001b8 <spi_init>:
 1b8:	40005737          	lui	a4,0x40005
 1bc:	4685                	li	a3,1
 1be:	0ff57513          	zext.b	a0,a0
 1c2:	c314                	sw	a3,0(a4)
 1c4:	cb48                	sw	a0,20(a4)
 1c6:	4501                	li	a0,0
 1c8:	8082                	ret

000001ca <spi_set_mode>:
 1ca:	400057b7          	lui	a5,0x40005
 1ce:	4bd8                	lw	a4,20(a5)
 1d0:	30057513          	andi	a0,a0,768
 1d4:	0ff77713          	zext.b	a4,a4
 1d8:	8d59                	or	a0,a0,a4
 1da:	cbc8                	sw	a0,20(a5)
 1dc:	4501                	li	a0,0
 1de:	8082                	ret

000001e0 <spi_transfer_byte>:
 1e0:	400057b7          	lui	a5,0x40005
 1e4:	c7c8                	sw	a0,12(a5)
 1e6:	4685                	li	a3,1
 1e8:	c3d4                	sw	a3,4(a5)
 1ea:	00878713          	addi	a4,a5,8 # 40005008 <__stack_top+0x3e005008>
 1ee:	431c                	lw	a5,0(a4)
 1f0:	8b89                	andi	a5,a5,2
 1f2:	dff5                	beqz	a5,1ee <spi_transfer_byte+0xe>
 1f4:	400057b7          	lui	a5,0x40005
 1f8:	4318                	lw	a4,0(a4)
 1fa:	4b88                	lw	a0,16(a5)
 1fc:	0ff57513          	zext.b	a0,a0
 200:	8082                	ret

00000202 <gpio_set_direction>:
 202:	4799                	li	a5,6
 204:	02a7e763          	bltu	a5,a0,232 <gpio_set_direction+0x30>
 208:	4785                	li	a5,1
 20a:	00a79533          	sll	a0,a5,a0
 20e:	00f58b63          	beq	a1,a5,224 <gpio_set_direction+0x22>
 212:	400017b7          	lui	a5,0x40001
 216:	4398                	lw	a4,0(a5)
 218:	fff54513          	not	a0,a0
 21c:	8d79                	and	a0,a0,a4
 21e:	c388                	sw	a0,0(a5)
 220:	4501                	li	a0,0
 222:	8082                	ret
 224:	40001737          	lui	a4,0x40001
 228:	431c                	lw	a5,0(a4)
 22a:	8fc9                	or	a5,a5,a0
 22c:	c31c                	sw	a5,0(a4)
 22e:	4501                	li	a0,0
 230:	8082                	ret
 232:	557d                	li	a0,-1
 234:	8082                	ret

00000236 <gpio_set_pin>:
 236:	4799                	li	a5,6
 238:	00a7ec63          	bltu	a5,a0,250 <gpio_set_pin+0x1a>
 23c:	40001737          	lui	a4,0x40001
 240:	4354                	lw	a3,4(a4)
 242:	4785                	li	a5,1
 244:	00a797b3          	sll	a5,a5,a0
 248:	8fd5                	or	a5,a5,a3
 24a:	c35c                	sw	a5,4(a4)
 24c:	4501                	li	a0,0
 24e:	8082                	ret
 250:	557d                	li	a0,-1
 252:	8082                	ret

00000254 <gpio_clear_pin>:
 254:	4799                	li	a5,6
 256:	00a7ee63          	bltu	a5,a0,272 <gpio_clear_pin+0x1e>
 25a:	40001737          	lui	a4,0x40001
 25e:	4354                	lw	a3,4(a4)
 260:	4785                	li	a5,1
 262:	00a797b3          	sll	a5,a5,a0
 266:	fff7c793          	not	a5,a5
 26a:	8ff5                	and	a5,a5,a3
 26c:	c35c                	sw	a5,4(a4)
 26e:	4501                	li	a0,0
 270:	8082                	ret
 272:	557d                	li	a0,-1
 274:	8082                	ret

Disassembly of section .rodata:

00000278 <__bss_end-0xfffd88>:
 278:	0192                	slli	gp,gp,0x4
 27a:	0000                	unimp
 27c:	019c                	addi	a5,sp,192
 27e:	0000                	unimp
 280:	0164                	addi	s1,sp,140
 282:	0000                	unimp
 284:	0170                	addi	a2,sp,140
 286:	0000                	unimp
 288:	017c                	addi	a5,sp,140
 28a:	0000                	unimp
 28c:	0186                	slli	gp,gp,0x1
 28e:	0000                	unimp
 290:	014c                	addi	a1,sp,132
 292:	0000                	unimp
 294:	0158                	addi	a4,sp,132
	...

Disassembly of section .comment:

00000000 <.comment>:
   0:	3a434347          	.insn	4, 0x3a434347
   4:	2820                	.insn	2, 0x2820
   6:	31313567          	.insn	4, 0x31313567
   a:	6335                	lui	t1,0xd
   c:	34346537          	lui	a0,0x34346
  10:	20296637          	lui	a2,0x20296
  14:	3531                	jal	fffffe20 <__stack_top+0xfdfffe20>
  16:	322e                	.insn	2, 0x322e
  18:	302e                	.insn	2, 0x302e
	...

Disassembly of section .riscv.attributes:

00000000 <.riscv.attributes>:
   0:	3441                	jal	fffffa80 <__stack_top+0xfdfffa80>
   2:	0000                	unimp
   4:	7200                	.insn	2, 0x7200
   6:	7369                	lui	t1,0xffffa
   8:	01007663          	bgeu	zero,a6,14 <_start+0x14>
   c:	002a                	c.slli	zero,0xa
   e:	0000                	unimp
  10:	0404                	addi	s1,sp,512
  12:	7205                	lui	tp,0xfffe1
  14:	3376                	.insn	2, 0x3376
  16:	6532                	.insn	2, 0x6532
  18:	7032                	.insn	2, 0x7032
  1a:	5f30                	lw	a2,120(a4)
  1c:	30703263          	.insn	4, 0x30703263
  20:	7a5f 6369 7273      	.insn	6, 0x727363697a5f
  26:	7032                	.insn	2, 0x7032
  28:	5f30                	lw	a2,120(a4)
  2a:	637a                	.insn	2, 0x637a
  2c:	3161                	jal	fffffcb4 <__stack_top+0xfdfffcb4>
  2e:	3070                	.insn	2, 0x3070
  30:	0800                	addi	s0,sp,16
  32:	0a01                	addi	s4,s4,0
  34:	0b                	.byte	0x0b
