
build/gpio-int.elf:     file format elf32-littleriscv


Disassembly of section .text:

00000000 <_start>:
   0:	01800117          	auipc	sp,0x1800
   4:	00010113          	mv	sp,sp
   8:	01000197          	auipc	gp,0x1000
   c:	7f818193          	addi	gp,gp,2040 # 1000800 <__global_pointer$>
  10:	01000737          	lui	a4,0x1000
  14:	010006b7          	lui	a3,0x1000
  18:	00070713          	mv	a4,a4
  1c:	00068693          	mv	a3,a3
  20:	00d77f63          	bgeu	a4,a3,3e <_start+0x3e>
  24:	6785                	lui	a5,0x1
  26:	8e99                	sub	a3,a3,a4
  28:	86878793          	addi	a5,a5,-1944 # 868 <__data_load_start>
  2c:	00f68633          	add	a2,a3,a5
  30:	4394                	lw	a3,0(a5)
  32:	0791                	addi	a5,a5,4
  34:	0711                	addi	a4,a4,4 # 1000004 <s_handlers+0x4>
  36:	fed72e23          	sw	a3,-4(a4)
  3a:	fec79be3          	bne	a5,a2,30 <_start+0x30>
  3e:	010007b7          	lui	a5,0x1000
  42:	01000737          	lui	a4,0x1000
  46:	00078793          	mv	a5,a5
  4a:	04470713          	addi	a4,a4,68 # 1000044 <__bss_end>
  4e:	00e7f763          	bgeu	a5,a4,5c <_start+0x5c>
  52:	0007a023          	sw	zero,0(a5) # 1000000 <s_handlers>
  56:	0791                	addi	a5,a5,4
  58:	fef71de3          	bne	a4,a5,52 <_start+0x52>
  5c:	2325                	jal	584 <main>
  5e:	a001                	j	5e <_start+0x5e>

00000060 <trap_entry>:
  60:	7119                	addi	sp,sp,-128
  62:	c006                	sw	ra,0(sp)
  64:	c20e                	sw	gp,4(sp)
  66:	c412                	sw	tp,8(sp)
  68:	c616                	sw	t0,12(sp)
  6a:	c81a                	sw	t1,16(sp)
  6c:	ca1e                	sw	t2,20(sp)
  6e:	cc22                	sw	s0,24(sp)
  70:	ce26                	sw	s1,28(sp)
  72:	d02a                	sw	a0,32(sp)
  74:	d22e                	sw	a1,36(sp)
  76:	d432                	sw	a2,40(sp)
  78:	d636                	sw	a3,44(sp)
  7a:	d83a                	sw	a4,48(sp)
  7c:	da3e                	sw	a5,52(sp)
  7e:	dc42                	sw	a6,56(sp)
  80:	de46                	sw	a7,60(sp)
  82:	c0f2                	sw	t3,64(sp)
  84:	c2f6                	sw	t4,68(sp)
  86:	c4fa                	sw	t5,72(sp)
  88:	c6fe                	sw	t6,76(sp)
  8a:	c8ca                	sw	s2,80(sp)
  8c:	cace                	sw	s3,84(sp)
  8e:	ccd2                	sw	s4,88(sp)
  90:	ced6                	sw	s5,92(sp)
  92:	d0da                	sw	s6,96(sp)
  94:	d2de                	sw	s7,100(sp)
  96:	d4e2                	sw	s8,104(sp)
  98:	d6e6                	sw	s9,108(sp)
  9a:	d8ea                	sw	s10,112(sp)
  9c:	daee                	sw	s11,116(sp)
  9e:	34202573          	csrr	a0,mcause
  a2:	2d71                	jal	73e <irq_trap_dispatch>
  a4:	4082                	lw	ra,0(sp)
  a6:	4192                	lw	gp,4(sp)
  a8:	4222                	lw	tp,8(sp)
  aa:	42b2                	lw	t0,12(sp)
  ac:	4342                	lw	t1,16(sp)
  ae:	43d2                	lw	t2,20(sp)
  b0:	4462                	lw	s0,24(sp)
  b2:	44f2                	lw	s1,28(sp)
  b4:	5502                	lw	a0,32(sp)
  b6:	5592                	lw	a1,36(sp)
  b8:	5622                	lw	a2,40(sp)
  ba:	56b2                	lw	a3,44(sp)
  bc:	5742                	lw	a4,48(sp)
  be:	57d2                	lw	a5,52(sp)
  c0:	5862                	lw	a6,56(sp)
  c2:	58f2                	lw	a7,60(sp)
  c4:	4e06                	lw	t3,64(sp)
  c6:	4e96                	lw	t4,68(sp)
  c8:	4f26                	lw	t5,72(sp)
  ca:	4fb6                	lw	t6,76(sp)
  cc:	4946                	lw	s2,80(sp)
  ce:	49d6                	lw	s3,84(sp)
  d0:	4a66                	lw	s4,88(sp)
  d2:	4af6                	lw	s5,92(sp)
  d4:	5b06                	lw	s6,96(sp)
  d6:	5b96                	lw	s7,100(sp)
  d8:	5c26                	lw	s8,104(sp)
  da:	5cb6                	lw	s9,108(sp)
  dc:	5d46                	lw	s10,112(sp)
  de:	5dd6                	lw	s11,116(sp)
  e0:	6109                	addi	sp,sp,128
  e2:	30200073          	mret
  e6:	0001                	nop

000000e8 <__udivdi3>:
  e8:	7179                	addi	sp,sp,-48
  ea:	ca56                	sw	s5,20(sp)
  ec:	d606                	sw	ra,44(sp)
  ee:	d422                	sw	s0,40(sp)
  f0:	d226                	sw	s1,36(sp)
  f2:	d04a                	sw	s2,32(sp)
  f4:	ce4e                	sw	s3,28(sp)
  f6:	cc52                	sw	s4,24(sp)
  f8:	c85a                	sw	s6,16(sp)
  fa:	c65e                	sw	s7,12(sp)
  fc:	c462                	sw	s8,8(sp)
  fe:	c266                	sw	s9,4(sp)
 100:	8aaa                	mv	s5,a0
 102:	24069b63          	bnez	a3,358 <__udivdi3+0x270>
 106:	4781                	li	a5,0
 108:	89b2                	mv	s3,a2
 10a:	84aa                	mv	s1,a0
 10c:	76800793          	li	a5,1896
 110:	0ec5f663          	bgeu	a1,a2,1fc <__udivdi3+0x114>
 114:	6741                	lui	a4,0x10
 116:	8a36                	mv	s4,a3
 118:	8c2e                	mv	s8,a1
 11a:	0ce67563          	bgeu	a2,a4,1e4 <__udivdi3+0xfc>
 11e:	10063713          	sltiu	a4,a2,256
 122:	00173713          	seqz	a4,a4
 126:	070e                	slli	a4,a4,0x3
 128:	00e656b3          	srl	a3,a2,a4
 12c:	97b6                	add	a5,a5,a3
 12e:	0007c783          	lbu	a5,0(a5)
 132:	97ba                	add	a5,a5,a4
 134:	02000713          	li	a4,32
 138:	00e78d63          	beq	a5,a4,152 <__udivdi3+0x6a>
 13c:	8f1d                	sub	a4,a4,a5
 13e:	00e59c33          	sll	s8,a1,a4
 142:	00fad7b3          	srl	a5,s5,a5
 146:	00e619b3          	sll	s3,a2,a4
 14a:	0187ec33          	or	s8,a5,s8
 14e:	00ea94b3          	sll	s1,s5,a4
 152:	0109db13          	srli	s6,s3,0x10
 156:	85da                	mv	a1,s6
 158:	01099b93          	slli	s7,s3,0x10
 15c:	8562                	mv	a0,s8
 15e:	2ebd                	jal	4dc <__hidden___udivsi3>
 160:	010bdb93          	srli	s7,s7,0x10
 164:	85aa                	mv	a1,a0
 166:	892a                	mv	s2,a0
 168:	855e                	mv	a0,s7
 16a:	2e99                	jal	4c0 <__mulsi3>
 16c:	842a                	mv	s0,a0
 16e:	85da                	mv	a1,s6
 170:	8562                	mv	a0,s8
 172:	2e59                	jal	508 <__umodsi3>
 174:	0542                	slli	a0,a0,0x10
 176:	0104d693          	srli	a3,s1,0x10
 17a:	8ec9                	or	a3,a3,a0
 17c:	0086f863          	bgeu	a3,s0,18c <__udivdi3+0xa4>
 180:	96ce                	add	a3,a3,s3
 182:	0086f463          	bgeu	a3,s0,18a <__udivdi3+0xa2>
 186:	0736f663          	bgeu	a3,s3,1f2 <__udivdi3+0x10a>
 18a:	197d                	addi	s2,s2,-1
 18c:	40868433          	sub	s0,a3,s0
 190:	85da                	mv	a1,s6
 192:	8522                	mv	a0,s0
 194:	26a1                	jal	4dc <__hidden___udivsi3>
 196:	85aa                	mv	a1,a0
 198:	8aaa                	mv	s5,a0
 19a:	855e                	mv	a0,s7
 19c:	2615                	jal	4c0 <__mulsi3>
 19e:	8baa                	mv	s7,a0
 1a0:	85da                	mv	a1,s6
 1a2:	8522                	mv	a0,s0
 1a4:	2695                	jal	508 <__umodsi3>
 1a6:	04c2                	slli	s1,s1,0x10
 1a8:	0542                	slli	a0,a0,0x10
 1aa:	80c1                	srli	s1,s1,0x10
 1ac:	8cc9                	or	s1,s1,a0
 1ae:	0174f863          	bgeu	s1,s7,1be <__udivdi3+0xd6>
 1b2:	94ce                	add	s1,s1,s3
 1b4:	0174f463          	bgeu	s1,s7,1bc <__udivdi3+0xd4>
 1b8:	0534f063          	bgeu	s1,s3,1f8 <__udivdi3+0x110>
 1bc:	1afd                	addi	s5,s5,-1
 1be:	01091793          	slli	a5,s2,0x10
 1c2:	0157e7b3          	or	a5,a5,s5
 1c6:	50b2                	lw	ra,44(sp)
 1c8:	5422                	lw	s0,40(sp)
 1ca:	5492                	lw	s1,36(sp)
 1cc:	5902                	lw	s2,32(sp)
 1ce:	49f2                	lw	s3,28(sp)
 1d0:	4ad2                	lw	s5,20(sp)
 1d2:	4b42                	lw	s6,16(sp)
 1d4:	4bb2                	lw	s7,12(sp)
 1d6:	4c22                	lw	s8,8(sp)
 1d8:	4c92                	lw	s9,4(sp)
 1da:	85d2                	mv	a1,s4
 1dc:	853e                	mv	a0,a5
 1de:	4a62                	lw	s4,24(sp)
 1e0:	6145                	addi	sp,sp,48
 1e2:	8082                	ret
 1e4:	010006b7          	lui	a3,0x1000
 1e8:	4761                	li	a4,24
 1ea:	f2d67fe3          	bgeu	a2,a3,128 <__udivdi3+0x40>
 1ee:	4741                	li	a4,16
 1f0:	bf25                	j	128 <__udivdi3+0x40>
 1f2:	1979                	addi	s2,s2,-2
 1f4:	96ce                	add	a3,a3,s3
 1f6:	bf59                	j	18c <__udivdi3+0xa4>
 1f8:	1af9                	addi	s5,s5,-2
 1fa:	b7d1                	j	1be <__udivdi3+0xd6>
 1fc:	4701                	li	a4,0
 1fe:	ca09                	beqz	a2,210 <__udivdi3+0x128>
 200:	6741                	lui	a4,0x10
 202:	08e67f63          	bgeu	a2,a4,2a0 <__udivdi3+0x1b8>
 206:	10063713          	sltiu	a4,a2,256
 20a:	00173713          	seqz	a4,a4
 20e:	070e                	slli	a4,a4,0x3
 210:	00e656b3          	srl	a3,a2,a4
 214:	97b6                	add	a5,a5,a3
 216:	0007c783          	lbu	a5,0(a5)
 21a:	97ba                	add	a5,a5,a4
 21c:	02000713          	li	a4,32
 220:	08e79763          	bne	a5,a4,2ae <__udivdi3+0x1c6>
 224:	40c58433          	sub	s0,a1,a2
 228:	4a05                	li	s4,1
 22a:	0109da93          	srli	s5,s3,0x10
 22e:	85d6                	mv	a1,s5
 230:	01099b13          	slli	s6,s3,0x10
 234:	8522                	mv	a0,s0
 236:	245d                	jal	4dc <__hidden___udivsi3>
 238:	010b5b13          	srli	s6,s6,0x10
 23c:	85aa                	mv	a1,a0
 23e:	892a                	mv	s2,a0
 240:	855a                	mv	a0,s6
 242:	2cbd                	jal	4c0 <__mulsi3>
 244:	8baa                	mv	s7,a0
 246:	85d6                	mv	a1,s5
 248:	8522                	mv	a0,s0
 24a:	2c7d                	jal	508 <__umodsi3>
 24c:	0542                	slli	a0,a0,0x10
 24e:	0104d693          	srli	a3,s1,0x10
 252:	8ec9                	or	a3,a3,a0
 254:	0176f863          	bgeu	a3,s7,264 <__udivdi3+0x17c>
 258:	96ce                	add	a3,a3,s3
 25a:	0176f463          	bgeu	a3,s7,262 <__udivdi3+0x17a>
 25e:	0f36f863          	bgeu	a3,s3,34e <__udivdi3+0x266>
 262:	197d                	addi	s2,s2,-1
 264:	41768433          	sub	s0,a3,s7
 268:	85d6                	mv	a1,s5
 26a:	8522                	mv	a0,s0
 26c:	2c85                	jal	4dc <__hidden___udivsi3>
 26e:	85aa                	mv	a1,a0
 270:	8baa                	mv	s7,a0
 272:	855a                	mv	a0,s6
 274:	24b1                	jal	4c0 <__mulsi3>
 276:	8b2a                	mv	s6,a0
 278:	85d6                	mv	a1,s5
 27a:	8522                	mv	a0,s0
 27c:	2471                	jal	508 <__umodsi3>
 27e:	04c2                	slli	s1,s1,0x10
 280:	0542                	slli	a0,a0,0x10
 282:	80c1                	srli	s1,s1,0x10
 284:	8cc9                	or	s1,s1,a0
 286:	0164f863          	bgeu	s1,s6,296 <__udivdi3+0x1ae>
 28a:	94ce                	add	s1,s1,s3
 28c:	0164f463          	bgeu	s1,s6,294 <__udivdi3+0x1ac>
 290:	0d34f263          	bgeu	s1,s3,354 <__udivdi3+0x26c>
 294:	1bfd                	addi	s7,s7,-1
 296:	01091793          	slli	a5,s2,0x10
 29a:	0177e7b3          	or	a5,a5,s7
 29e:	b725                	j	1c6 <__udivdi3+0xde>
 2a0:	010006b7          	lui	a3,0x1000
 2a4:	4761                	li	a4,24
 2a6:	f6d675e3          	bgeu	a2,a3,210 <__udivdi3+0x128>
 2aa:	4741                	li	a4,16
 2ac:	b795                	j	210 <__udivdi3+0x128>
 2ae:	8f1d                	sub	a4,a4,a5
 2b0:	00e619b3          	sll	s3,a2,a4
 2b4:	00f5d433          	srl	s0,a1,a5
 2b8:	0109db13          	srli	s6,s3,0x10
 2bc:	00e595b3          	sll	a1,a1,a4
 2c0:	00fad7b3          	srl	a5,s5,a5
 2c4:	00b7ea33          	or	s4,a5,a1
 2c8:	01099b93          	slli	s7,s3,0x10
 2cc:	85da                	mv	a1,s6
 2ce:	8522                	mv	a0,s0
 2d0:	00ea94b3          	sll	s1,s5,a4
 2d4:	010bdb93          	srli	s7,s7,0x10
 2d8:	2411                	jal	4dc <__hidden___udivsi3>
 2da:	85aa                	mv	a1,a0
 2dc:	892a                	mv	s2,a0
 2de:	855e                	mv	a0,s7
 2e0:	22c5                	jal	4c0 <__mulsi3>
 2e2:	8aaa                	mv	s5,a0
 2e4:	85da                	mv	a1,s6
 2e6:	8522                	mv	a0,s0
 2e8:	2405                	jal	508 <__umodsi3>
 2ea:	0542                	slli	a0,a0,0x10
 2ec:	010a5693          	srli	a3,s4,0x10
 2f0:	8ec9                	or	a3,a3,a0
 2f2:	0156f863          	bgeu	a3,s5,302 <__udivdi3+0x21a>
 2f6:	96ce                	add	a3,a3,s3
 2f8:	0156f463          	bgeu	a3,s5,300 <__udivdi3+0x218>
 2fc:	0536f363          	bgeu	a3,s3,342 <__udivdi3+0x25a>
 300:	197d                	addi	s2,s2,-1
 302:	41568433          	sub	s0,a3,s5
 306:	85da                	mv	a1,s6
 308:	8522                	mv	a0,s0
 30a:	2ac9                	jal	4dc <__hidden___udivsi3>
 30c:	85aa                	mv	a1,a0
 30e:	8aaa                	mv	s5,a0
 310:	855e                	mv	a0,s7
 312:	227d                	jal	4c0 <__mulsi3>
 314:	8baa                	mv	s7,a0
 316:	85da                	mv	a1,s6
 318:	8522                	mv	a0,s0
 31a:	22fd                	jal	508 <__umodsi3>
 31c:	010a1793          	slli	a5,s4,0x10
 320:	0542                	slli	a0,a0,0x10
 322:	83c1                	srli	a5,a5,0x10
 324:	8fc9                	or	a5,a5,a0
 326:	0177f863          	bgeu	a5,s7,336 <__udivdi3+0x24e>
 32a:	97ce                	add	a5,a5,s3
 32c:	0177f463          	bgeu	a5,s7,334 <__udivdi3+0x24c>
 330:	0137fc63          	bgeu	a5,s3,348 <__udivdi3+0x260>
 334:	1afd                	addi	s5,s5,-1
 336:	0942                	slli	s2,s2,0x10
 338:	41778433          	sub	s0,a5,s7
 33c:	01596a33          	or	s4,s2,s5
 340:	b5ed                	j	22a <__udivdi3+0x142>
 342:	1979                	addi	s2,s2,-2
 344:	96ce                	add	a3,a3,s3
 346:	bf75                	j	302 <__udivdi3+0x21a>
 348:	1af9                	addi	s5,s5,-2
 34a:	97ce                	add	a5,a5,s3
 34c:	b7ed                	j	336 <__udivdi3+0x24e>
 34e:	1979                	addi	s2,s2,-2
 350:	96ce                	add	a3,a3,s3
 352:	bf09                	j	264 <__udivdi3+0x17c>
 354:	1bf9                	addi	s7,s7,-2
 356:	b781                	j	296 <__udivdi3+0x1ae>
 358:	16d5e063          	bltu	a1,a3,4b8 <__udivdi3+0x3d0>
 35c:	67c1                	lui	a5,0x10
 35e:	02f6fd63          	bgeu	a3,a5,398 <__udivdi3+0x2b0>
 362:	1006b713          	sltiu	a4,a3,256
 366:	00173713          	seqz	a4,a4
 36a:	070e                	slli	a4,a4,0x3
 36c:	4781                	li	a5,0
 36e:	00e6d533          	srl	a0,a3,a4
 372:	76800793          	li	a5,1896
 376:	97aa                	add	a5,a5,a0
 378:	0007c783          	lbu	a5,0(a5) # 10000 <__data_load_start+0xf798>
 37c:	02000b13          	li	s6,32
 380:	97ba                	add	a5,a5,a4
 382:	03679263          	bne	a5,s6,3a6 <__udivdi3+0x2be>
 386:	00cab7b3          	sltu	a5,s5,a2
 38a:	0017b793          	seqz	a5,a5
 38e:	00b6b6b3          	sltu	a3,a3,a1
 392:	8fd5                	or	a5,a5,a3
 394:	4a01                	li	s4,0
 396:	bd05                	j	1c6 <__udivdi3+0xde>
 398:	010007b7          	lui	a5,0x1000
 39c:	4761                	li	a4,24
 39e:	fcf6f7e3          	bgeu	a3,a5,36c <__udivdi3+0x284>
 3a2:	4741                	li	a4,16
 3a4:	b7e1                	j	36c <__udivdi3+0x284>
 3a6:	40fb0b33          	sub	s6,s6,a5
 3aa:	00f65bb3          	srl	s7,a2,a5
 3ae:	016696b3          	sll	a3,a3,s6
 3b2:	00dbebb3          	or	s7,s7,a3
 3b6:	00f5d4b3          	srl	s1,a1,a5
 3ba:	010bdc93          	srli	s9,s7,0x10
 3be:	00fad7b3          	srl	a5,s5,a5
 3c2:	016595b3          	sll	a1,a1,s6
 3c6:	00b7ea33          	or	s4,a5,a1
 3ca:	010b9c13          	slli	s8,s7,0x10
 3ce:	85e6                	mv	a1,s9
 3d0:	8526                	mv	a0,s1
 3d2:	016619b3          	sll	s3,a2,s6
 3d6:	010c5c13          	srli	s8,s8,0x10
 3da:	2209                	jal	4dc <__hidden___udivsi3>
 3dc:	85aa                	mv	a1,a0
 3de:	842a                	mv	s0,a0
 3e0:	8562                	mv	a0,s8
 3e2:	28f9                	jal	4c0 <__mulsi3>
 3e4:	892a                	mv	s2,a0
 3e6:	85e6                	mv	a1,s9
 3e8:	8526                	mv	a0,s1
 3ea:	2a39                	jal	508 <__umodsi3>
 3ec:	0542                	slli	a0,a0,0x10
 3ee:	010a5713          	srli	a4,s4,0x10
 3f2:	8f49                	or	a4,a4,a0
 3f4:	01277863          	bgeu	a4,s2,404 <__udivdi3+0x31c>
 3f8:	975e                	add	a4,a4,s7
 3fa:	01277463          	bgeu	a4,s2,402 <__udivdi3+0x31a>
 3fe:	0b777763          	bgeu	a4,s7,4ac <__udivdi3+0x3c4>
 402:	147d                	addi	s0,s0,-1
 404:	412704b3          	sub	s1,a4,s2
 408:	85e6                	mv	a1,s9
 40a:	8526                	mv	a0,s1
 40c:	28c1                	jal	4dc <__hidden___udivsi3>
 40e:	85aa                	mv	a1,a0
 410:	892a                	mv	s2,a0
 412:	8562                	mv	a0,s8
 414:	2075                	jal	4c0 <__mulsi3>
 416:	8c2a                	mv	s8,a0
 418:	85e6                	mv	a1,s9
 41a:	8526                	mv	a0,s1
 41c:	20f5                	jal	508 <__umodsi3>
 41e:	010a1793          	slli	a5,s4,0x10
 422:	0542                	slli	a0,a0,0x10
 424:	83c1                	srli	a5,a5,0x10
 426:	8fc9                	or	a5,a5,a0
 428:	0187f863          	bgeu	a5,s8,438 <__udivdi3+0x350>
 42c:	97de                	add	a5,a5,s7
 42e:	0187f463          	bgeu	a5,s8,436 <__udivdi3+0x34e>
 432:	0977f063          	bgeu	a5,s7,4b2 <__udivdi3+0x3ca>
 436:	197d                	addi	s2,s2,-1
 438:	01099313          	slli	t1,s3,0x10
 43c:	0442                	slli	s0,s0,0x10
 43e:	01035313          	srli	t1,t1,0x10
 442:	01091513          	slli	a0,s2,0x10
 446:	418788b3          	sub	a7,a5,s8
 44a:	8141                	srli	a0,a0,0x10
 44c:	012467b3          	or	a5,s0,s2
 450:	859a                	mv	a1,t1
 452:	20bd                	jal	4c0 <__mulsi3>
 454:	882a                	mv	a6,a0
 456:	01091513          	slli	a0,s2,0x10
 45a:	8141                	srli	a0,a0,0x10
 45c:	0109d593          	srli	a1,s3,0x10
 460:	2085                	jal	4c0 <__mulsi3>
 462:	872a                	mv	a4,a0
 464:	859a                	mv	a1,t1
 466:	0107d513          	srli	a0,a5,0x10
 46a:	2899                	jal	4c0 <__mulsi3>
 46c:	832a                	mv	t1,a0
 46e:	0109d593          	srli	a1,s3,0x10
 472:	0107d513          	srli	a0,a5,0x10
 476:	20a9                	jal	4c0 <__mulsi3>
 478:	01085693          	srli	a3,a6,0x10
 47c:	971a                	add	a4,a4,t1
 47e:	96ba                	add	a3,a3,a4
 480:	0066f463          	bgeu	a3,t1,488 <__udivdi3+0x3a0>
 484:	6741                	lui	a4,0x10
 486:	953a                	add	a0,a0,a4
 488:	0106d613          	srli	a2,a3,0x10
 48c:	962a                	add	a2,a2,a0
 48e:	00c8ed63          	bltu	a7,a2,4a8 <__udivdi3+0x3c0>
 492:	0842                	slli	a6,a6,0x10
 494:	06c2                	slli	a3,a3,0x10
 496:	01085813          	srli	a6,a6,0x10
 49a:	016a9733          	sll	a4,s5,s6
 49e:	96c2                	add	a3,a3,a6
 4a0:	eed77ae3          	bgeu	a4,a3,394 <__udivdi3+0x2ac>
 4a4:	eec898e3          	bne	a7,a2,394 <__udivdi3+0x2ac>
 4a8:	17fd                	addi	a5,a5,-1 # ffffff <__data_load_start+0xfff797>
 4aa:	b5ed                	j	394 <__udivdi3+0x2ac>
 4ac:	1479                	addi	s0,s0,-2
 4ae:	975e                	add	a4,a4,s7
 4b0:	bf91                	j	404 <__udivdi3+0x31c>
 4b2:	1979                	addi	s2,s2,-2
 4b4:	97de                	add	a5,a5,s7
 4b6:	b749                	j	438 <__udivdi3+0x350>
 4b8:	4a01                	li	s4,0
 4ba:	4781                	li	a5,0
 4bc:	b329                	j	1c6 <__udivdi3+0xde>
	...

000004c0 <__mulsi3>:
 4c0:	862a                	mv	a2,a0
 4c2:	4501                	li	a0,0
 4c4:	0015f693          	andi	a3,a1,1
 4c8:	c291                	beqz	a3,4cc <__mulsi3+0xc>
 4ca:	9532                	add	a0,a0,a2
 4cc:	8185                	srli	a1,a1,0x1
 4ce:	0606                	slli	a2,a2,0x1
 4d0:	f9f5                	bnez	a1,4c4 <__mulsi3+0x4>
 4d2:	8082                	ret

000004d4 <__divsi3>:
 4d4:	02054e63          	bltz	a0,510 <__umodsi3+0x8>
 4d8:	0405c363          	bltz	a1,51e <__umodsi3+0x16>

000004dc <__hidden___udivsi3>:
 4dc:	862e                	mv	a2,a1
 4de:	85aa                	mv	a1,a0
 4e0:	557d                	li	a0,-1
 4e2:	c215                	beqz	a2,506 <__hidden___udivsi3+0x2a>
 4e4:	4685                	li	a3,1
 4e6:	00b67863          	bgeu	a2,a1,4f6 <__hidden___udivsi3+0x1a>
 4ea:	00c05663          	blez	a2,4f6 <__hidden___udivsi3+0x1a>
 4ee:	0606                	slli	a2,a2,0x1
 4f0:	0686                	slli	a3,a3,0x1
 4f2:	feb66ce3          	bltu	a2,a1,4ea <__hidden___udivsi3+0xe>
 4f6:	4501                	li	a0,0
 4f8:	00c5e463          	bltu	a1,a2,500 <__hidden___udivsi3+0x24>
 4fc:	8d91                	sub	a1,a1,a2
 4fe:	8d55                	or	a0,a0,a3
 500:	8285                	srli	a3,a3,0x1
 502:	8205                	srli	a2,a2,0x1
 504:	faf5                	bnez	a3,4f8 <__hidden___udivsi3+0x1c>
 506:	8082                	ret

00000508 <__umodsi3>:
 508:	8286                	mv	t0,ra
 50a:	3fc9                	jal	4dc <__hidden___udivsi3>
 50c:	852e                	mv	a0,a1
 50e:	8282                	jr	t0
 510:	40a00533          	neg	a0,a0
 514:	00b04763          	bgtz	a1,522 <__umodsi3+0x1a>
 518:	40b005b3          	neg	a1,a1
 51c:	b7c1                	j	4dc <__hidden___udivsi3>
 51e:	40b005b3          	neg	a1,a1
 522:	8286                	mv	t0,ra
 524:	3f65                	jal	4dc <__hidden___udivsi3>
 526:	40a00533          	neg	a0,a0
 52a:	8282                	jr	t0

0000052c <__modsi3>:
 52c:	8286                	mv	t0,ra
 52e:	0005c763          	bltz	a1,53c <__modsi3+0x10>
 532:	00054963          	bltz	a0,544 <__modsi3+0x18>
 536:	375d                	jal	4dc <__hidden___udivsi3>
 538:	852e                	mv	a0,a1
 53a:	8282                	jr	t0
 53c:	40b005b3          	neg	a1,a1
 540:	fe055be3          	bgez	a0,536 <__modsi3+0xa>
 544:	40a00533          	neg	a0,a0
 548:	3f51                	jal	4dc <__hidden___udivsi3>
 54a:	40b00533          	neg	a0,a1
 54e:	8282                	jr	t0
 550:	0001                	nop

00000552 <gpio_irq_handler>:
 552:	1141                	addi	sp,sp,-16 # 17ffff0 <__heap_limit+0xff0>
 554:	c606                	sw	ra,12(sp)
 556:	28ed                	jal	650 <gpio_int_get_pending>
 558:	8909                	andi	a0,a0,2
 55a:	e501                	bnez	a0,562 <gpio_irq_handler+0x10>
 55c:	40b2                	lw	ra,12(sp)
 55e:	0141                	addi	sp,sp,16
 560:	8082                	ret
 562:	4505                	li	a0,1
 564:	28d5                	jal	658 <gpio_int_clear>
 566:	2231                	jal	672 <get_tick_ms>
 568:	8401a783          	lw	a5,-1984(gp) # 1000040 <last_btn_tick_ms>
 56c:	03100613          	li	a2,49
 570:	40f507b3          	sub	a5,a0,a5
 574:	fef674e3          	bgeu	a2,a5,55c <gpio_irq_handler+0xa>
 578:	40b2                	lw	ra,12(sp)
 57a:	84a1a023          	sw	a0,-1984(gp) # 1000040 <last_btn_tick_ms>
 57e:	4501                	li	a0,0
 580:	0141                	addi	sp,sp,16
 582:	a849                	j	614 <gpio_toggle_pin>

00000584 <main>:
 584:	1141                	addi	sp,sp,-16
 586:	4585                	li	a1,1
 588:	4501                	li	a0,0
 58a:	c606                	sw	ra,12(sp)
 58c:	280d                	jal	5be <gpio_set_direction>
 58e:	4581                	li	a1,0
 590:	4505                	li	a0,1
 592:	2035                	jal	5be <gpio_set_direction>
 594:	4501                	li	a0,0
 596:	28b1                	jal	5f2 <gpio_clear_pin>
 598:	28e9                	jal	672 <get_tick_ms>
 59a:	84a1a023          	sw	a0,-1984(gp) # 1000040 <last_btn_tick_ms>
 59e:	4505                	li	a0,1
 5a0:	2849                	jal	632 <gpio_int_enable>
 5a2:	28e5                	jal	69a <irq_init>
 5a4:	55200593          	li	a1,1362
 5a8:	452d                	li	a0,11
 5aa:	2289                	jal	6ec <irq_register>
 5ac:	4505                	li	a0,1
 5ae:	2aa9                	jal	708 <irq_enable_meie>
 5b0:	4505                	li	a0,1
 5b2:	2aa5                	jal	72a <irq_global_enable>
 5b4:	10500073          	wfi
 5b8:	10500073          	wfi
 5bc:	bfe5                	j	5b4 <main+0x30>

000005be <gpio_set_direction>:
 5be:	4799                	li	a5,6
 5c0:	02a7e763          	bltu	a5,a0,5ee <gpio_set_direction+0x30>
 5c4:	4785                	li	a5,1
 5c6:	00a79533          	sll	a0,a5,a0
 5ca:	00f58b63          	beq	a1,a5,5e0 <gpio_set_direction+0x22>
 5ce:	400017b7          	lui	a5,0x40001
 5d2:	4398                	lw	a4,0(a5)
 5d4:	fff54513          	not	a0,a0
 5d8:	8d79                	and	a0,a0,a4
 5da:	c388                	sw	a0,0(a5)
 5dc:	4501                	li	a0,0
 5de:	8082                	ret
 5e0:	40001737          	lui	a4,0x40001
 5e4:	431c                	lw	a5,0(a4)
 5e6:	8fc9                	or	a5,a5,a0
 5e8:	c31c                	sw	a5,0(a4)
 5ea:	4501                	li	a0,0
 5ec:	8082                	ret
 5ee:	557d                	li	a0,-1
 5f0:	8082                	ret

000005f2 <gpio_clear_pin>:
 5f2:	4799                	li	a5,6
 5f4:	00a7ee63          	bltu	a5,a0,610 <gpio_clear_pin+0x1e>
 5f8:	40001737          	lui	a4,0x40001
 5fc:	4354                	lw	a3,4(a4)
 5fe:	4785                	li	a5,1
 600:	00a797b3          	sll	a5,a5,a0
 604:	fff7c793          	not	a5,a5
 608:	8ff5                	and	a5,a5,a3
 60a:	c35c                	sw	a5,4(a4)
 60c:	4501                	li	a0,0
 60e:	8082                	ret
 610:	557d                	li	a0,-1
 612:	8082                	ret

00000614 <gpio_toggle_pin>:
 614:	4799                	li	a5,6
 616:	00a7ec63          	bltu	a5,a0,62e <gpio_toggle_pin+0x1a>
 61a:	40001737          	lui	a4,0x40001
 61e:	4354                	lw	a3,4(a4)
 620:	4785                	li	a5,1
 622:	00a797b3          	sll	a5,a5,a0
 626:	8fb5                	xor	a5,a5,a3
 628:	c35c                	sw	a5,4(a4)
 62a:	4501                	li	a0,0
 62c:	8082                	ret
 62e:	557d                	li	a0,-1
 630:	8082                	ret

00000632 <gpio_int_enable>:
 632:	4799                	li	a5,6
 634:	00a7ec63          	bltu	a5,a0,64c <gpio_int_enable+0x1a>
 638:	40001737          	lui	a4,0x40001
 63c:	4754                	lw	a3,12(a4)
 63e:	4785                	li	a5,1
 640:	00a797b3          	sll	a5,a5,a0
 644:	8fd5                	or	a5,a5,a3
 646:	c75c                	sw	a5,12(a4)
 648:	4501                	li	a0,0
 64a:	8082                	ret
 64c:	557d                	li	a0,-1
 64e:	8082                	ret

00000650 <gpio_int_get_pending>:
 650:	400017b7          	lui	a5,0x40001
 654:	4bc8                	lw	a0,20(a5)
 656:	8082                	ret

00000658 <gpio_int_clear>:
 658:	4799                	li	a5,6
 65a:	00a7ea63          	bltu	a5,a0,66e <gpio_int_clear+0x16>
 65e:	4705                	li	a4,1
 660:	00a71733          	sll	a4,a4,a0
 664:	400017b7          	lui	a5,0x40001
 668:	cf98                	sw	a4,24(a5)
 66a:	4501                	li	a0,0
 66c:	8082                	ret
 66e:	557d                	li	a0,-1
 670:	8082                	ret

00000672 <get_tick_ms>:
 672:	1141                	addi	sp,sp,-16
 674:	400027b7          	lui	a5,0x40002
 678:	c606                	sw	ra,12(sp)
 67a:	0791                	addi	a5,a5,4 # 40002004 <__stack_top+0x3e802004>
 67c:	400026b7          	lui	a3,0x40002
 680:	438c                	lw	a1,0(a5)
 682:	4288                	lw	a0,0(a3)
 684:	4398                	lw	a4,0(a5)
 686:	fee59de3          	bne	a1,a4,680 <get_tick_ms+0xe>
 68a:	6641                	lui	a2,0x10
 68c:	a0060613          	addi	a2,a2,-1536 # fa00 <__data_load_start+0xf198>
 690:	4681                	li	a3,0
 692:	3c99                	jal	e8 <__udivdi3>
 694:	40b2                	lw	ra,12(sp)
 696:	0141                	addi	sp,sp,16
 698:	8082                	ret

0000069a <irq_init>:
 69a:	010007b7          	lui	a5,0x1000
 69e:	00078793          	mv	a5,a5
 6a2:	0007a023          	sw	zero,0(a5) # 1000000 <s_handlers>
 6a6:	0007a223          	sw	zero,4(a5)
 6aa:	0007a423          	sw	zero,8(a5)
 6ae:	0007a623          	sw	zero,12(a5)
 6b2:	0007a823          	sw	zero,16(a5)
 6b6:	0007aa23          	sw	zero,20(a5)
 6ba:	0007ac23          	sw	zero,24(a5)
 6be:	0007ae23          	sw	zero,28(a5)
 6c2:	0207a023          	sw	zero,32(a5)
 6c6:	0207a223          	sw	zero,36(a5)
 6ca:	0207a423          	sw	zero,40(a5)
 6ce:	0207a623          	sw	zero,44(a5)
 6d2:	0207a823          	sw	zero,48(a5)
 6d6:	0207aa23          	sw	zero,52(a5)
 6da:	0207ac23          	sw	zero,56(a5)
 6de:	0207ae23          	sw	zero,60(a5)
 6e2:	06000793          	li	a5,96
 6e6:	30579073          	csrw	mtvec,a5
 6ea:	8082                	ret

000006ec <irq_register>:
 6ec:	47bd                	li	a5,15
 6ee:	00a7eb63          	bltu	a5,a0,704 <irq_register+0x18>
 6f2:	010007b7          	lui	a5,0x1000
 6f6:	050a                	slli	a0,a0,0x2
 6f8:	00078793          	mv	a5,a5
 6fc:	97aa                	add	a5,a5,a0
 6fe:	c38c                	sw	a1,0(a5)
 700:	4501                	li	a0,0
 702:	8082                	ret
 704:	557d                	li	a0,-1
 706:	8082                	ret

00000708 <irq_enable_meie>:
 708:	304027f3          	csrr	a5,mie
 70c:	c901                	beqz	a0,71c <irq_enable_meie+0x14>
 70e:	6705                	lui	a4,0x1
 710:	80070713          	addi	a4,a4,-2048 # 800 <__clz_tab+0x98>
 714:	8fd9                	or	a5,a5,a4
 716:	30479073          	csrw	mie,a5
 71a:	8082                	ret
 71c:	777d                	lui	a4,0xfffff
 71e:	7ff70713          	addi	a4,a4,2047 # fffff7ff <__stack_top+0xfe7ff7ff>
 722:	8ff9                	and	a5,a5,a4
 724:	30479073          	csrw	mie,a5
 728:	8082                	ret

0000072a <irq_global_enable>:
 72a:	30002773          	csrr	a4,mstatus
 72e:	ff777793          	andi	a5,a4,-9
 732:	c119                	beqz	a0,738 <irq_global_enable+0xe>
 734:	00876793          	ori	a5,a4,8
 738:	30079073          	csrw	mstatus,a5
 73c:	8082                	ret

0000073e <irq_trap_dispatch>:
 73e:	800007b7          	lui	a5,0x80000
 742:	7f078793          	addi	a5,a5,2032 # 800007f0 <__stack_top+0x7e8007f0>
 746:	8fe9                	and	a5,a5,a0
 748:	80000737          	lui	a4,0x80000
 74c:	00e78363          	beq	a5,a4,752 <irq_trap_dispatch+0x14>
 750:	8082                	ret
 752:	7ff57513          	andi	a0,a0,2047
 756:	010007b7          	lui	a5,0x1000
 75a:	050a                	slli	a0,a0,0x2
 75c:	00078793          	mv	a5,a5
 760:	97aa                	add	a5,a5,a0
 762:	439c                	lw	a5,0(a5)
 764:	d7f5                	beqz	a5,750 <irq_trap_dispatch+0x12>
 766:	8782                	jr	a5

Disassembly of section .rodata:

00000768 <__clz_tab>:
 768:	0100                	addi	s0,sp,128
 76a:	0202                	c.slli64	tp
 76c:	03030303          	lb	t1,48(t1)
 770:	0404                	addi	s1,sp,512
 772:	0404                	addi	s1,sp,512
 774:	0404                	addi	s1,sp,512
 776:	0404                	addi	s1,sp,512
 778:	0505                	addi	a0,a0,1
 77a:	0505                	addi	a0,a0,1
 77c:	0505                	addi	a0,a0,1
 77e:	0505                	addi	a0,a0,1
 780:	0505                	addi	a0,a0,1
 782:	0505                	addi	a0,a0,1
 784:	0505                	addi	a0,a0,1
 786:	0505                	addi	a0,a0,1
 788:	0606                	slli	a2,a2,0x1
 78a:	0606                	slli	a2,a2,0x1
 78c:	0606                	slli	a2,a2,0x1
 78e:	0606                	slli	a2,a2,0x1
 790:	0606                	slli	a2,a2,0x1
 792:	0606                	slli	a2,a2,0x1
 794:	0606                	slli	a2,a2,0x1
 796:	0606                	slli	a2,a2,0x1
 798:	0606                	slli	a2,a2,0x1
 79a:	0606                	slli	a2,a2,0x1
 79c:	0606                	slli	a2,a2,0x1
 79e:	0606                	slli	a2,a2,0x1
 7a0:	0606                	slli	a2,a2,0x1
 7a2:	0606                	slli	a2,a2,0x1
 7a4:	0606                	slli	a2,a2,0x1
 7a6:	0606                	slli	a2,a2,0x1
 7a8:	07070707          	.insn	4, 0x07070707
 7ac:	07070707          	.insn	4, 0x07070707
 7b0:	07070707          	.insn	4, 0x07070707
 7b4:	07070707          	.insn	4, 0x07070707
 7b8:	07070707          	.insn	4, 0x07070707
 7bc:	07070707          	.insn	4, 0x07070707
 7c0:	07070707          	.insn	4, 0x07070707
 7c4:	07070707          	.insn	4, 0x07070707
 7c8:	07070707          	.insn	4, 0x07070707
 7cc:	07070707          	.insn	4, 0x07070707
 7d0:	07070707          	.insn	4, 0x07070707
 7d4:	07070707          	.insn	4, 0x07070707
 7d8:	07070707          	.insn	4, 0x07070707
 7dc:	07070707          	.insn	4, 0x07070707
 7e0:	07070707          	.insn	4, 0x07070707
 7e4:	07070707          	.insn	4, 0x07070707
 7e8:	0808                	addi	a0,sp,16
 7ea:	0808                	addi	a0,sp,16
 7ec:	0808                	addi	a0,sp,16
 7ee:	0808                	addi	a0,sp,16
 7f0:	0808                	addi	a0,sp,16
 7f2:	0808                	addi	a0,sp,16
 7f4:	0808                	addi	a0,sp,16
 7f6:	0808                	addi	a0,sp,16
 7f8:	0808                	addi	a0,sp,16
 7fa:	0808                	addi	a0,sp,16
 7fc:	0808                	addi	a0,sp,16
 7fe:	0808                	addi	a0,sp,16
 800:	0808                	addi	a0,sp,16
 802:	0808                	addi	a0,sp,16
 804:	0808                	addi	a0,sp,16
 806:	0808                	addi	a0,sp,16
 808:	0808                	addi	a0,sp,16
 80a:	0808                	addi	a0,sp,16
 80c:	0808                	addi	a0,sp,16
 80e:	0808                	addi	a0,sp,16
 810:	0808                	addi	a0,sp,16
 812:	0808                	addi	a0,sp,16
 814:	0808                	addi	a0,sp,16
 816:	0808                	addi	a0,sp,16
 818:	0808                	addi	a0,sp,16
 81a:	0808                	addi	a0,sp,16
 81c:	0808                	addi	a0,sp,16
 81e:	0808                	addi	a0,sp,16
 820:	0808                	addi	a0,sp,16
 822:	0808                	addi	a0,sp,16
 824:	0808                	addi	a0,sp,16
 826:	0808                	addi	a0,sp,16
 828:	0808                	addi	a0,sp,16
 82a:	0808                	addi	a0,sp,16
 82c:	0808                	addi	a0,sp,16
 82e:	0808                	addi	a0,sp,16
 830:	0808                	addi	a0,sp,16
 832:	0808                	addi	a0,sp,16
 834:	0808                	addi	a0,sp,16
 836:	0808                	addi	a0,sp,16
 838:	0808                	addi	a0,sp,16
 83a:	0808                	addi	a0,sp,16
 83c:	0808                	addi	a0,sp,16
 83e:	0808                	addi	a0,sp,16
 840:	0808                	addi	a0,sp,16
 842:	0808                	addi	a0,sp,16
 844:	0808                	addi	a0,sp,16
 846:	0808                	addi	a0,sp,16
 848:	0808                	addi	a0,sp,16
 84a:	0808                	addi	a0,sp,16
 84c:	0808                	addi	a0,sp,16
 84e:	0808                	addi	a0,sp,16
 850:	0808                	addi	a0,sp,16
 852:	0808                	addi	a0,sp,16
 854:	0808                	addi	a0,sp,16
 856:	0808                	addi	a0,sp,16
 858:	0808                	addi	a0,sp,16
 85a:	0808                	addi	a0,sp,16
 85c:	0808                	addi	a0,sp,16
 85e:	0808                	addi	a0,sp,16
 860:	0808                	addi	a0,sp,16
 862:	0808                	addi	a0,sp,16
 864:	0808                	addi	a0,sp,16
 866:	0808                	addi	a0,sp,16

Disassembly of section .comment:

00000000 <.comment>:
   0:	3a434347          	.insn	4, 0x3a434347
   4:	2820                	.insn	2, 0x2820
   6:	31313567          	.insn	4, 0x31313567
   a:	6335                	lui	t1,0xd
   c:	34346537          	lui	a0,0x34346
  10:	20296637          	lui	a2,0x20296
  14:	3531                	jal	fffffe20 <__stack_top+0xfe7ffe20>
  16:	322e                	.insn	2, 0x322e
  18:	302e                	.insn	2, 0x302e
	...

Disassembly of section .riscv.attributes:

00000000 <.riscv.attributes>:
   0:	3441                	jal	fffffa80 <__stack_top+0xfe7ffa80>
   2:	0000                	unimp
   4:	7200                	.insn	2, 0x7200
   6:	7369                	lui	t1,0xffffa
   8:	01007663          	bgeu	zero,a6,14 <_start+0x14>
   c:	002a                	c.slli	zero,0xa
   e:	0000                	unimp
  10:	1004                	addi	s1,sp,32
  12:	7205                	lui	tp,0xfffe1
  14:	3376                	.insn	2, 0x3376
  16:	6932                	.insn	2, 0x6932
  18:	7032                	.insn	2, 0x7032
  1a:	5f31                	li	t5,-20
  1c:	30703263          	.insn	4, 0x30703263
  20:	7a5f 6369 7273      	.insn	6, 0x727363697a5f
  26:	7032                	.insn	2, 0x7032
  28:	5f30                	lw	a2,120(a4)
  2a:	637a                	.insn	2, 0x637a
  2c:	3161                	jal	fffffcb4 <__stack_top+0xfe7ffcb4>
  2e:	3070                	.insn	2, 0x3070
  30:	0800                	addi	s0,sp,16
  32:	0a01                	addi	s4,s4,0
  34:	0b                	.byte	0x0b

Disassembly of section .debug_info:

00000000 <.debug_info>:
   0:	0a25                	addi	s4,s4,9
   2:	0000                	unimp
   4:	0005                	c.nop	1
   6:	0401                	addi	s0,s0,0
   8:	0000                	unimp
   a:	0000                	unimp
   c:	4714                	lw	a3,8(a4)
   e:	0001                	nop
  10:	1d00                	addi	s0,sp,688
  12:	03164703          	lbu	a4,49(a2) # 20296031 <__stack_top+0x1ea96031>
  16:	0000                	unimp
  18:	0000                	unimp
  1a:	2b00                	.insn	2, 0x2b00
  1c:	0000                	unimp
  1e:	e800                	.insn	2, 0xe800
  20:	0000                	unimp
  22:	d600                	sw	s0,40(a2)
  24:	00000003          	lb	zero,0(zero) # 0 <_start>
  28:	0000                	unimp
  2a:	0500                	addi	s0,sp,640
  2c:	0708                	addi	a0,sp,896
  2e:	0065                	c.nop	25
  30:	0000                	unimp
  32:	0415                	addi	s0,s0,5
  34:	6905                	lui	s2,0x1
  36:	746e                	.insn	2, 0x746e
  38:	0500                	addi	s0,sp,640
  3a:	0704                	addi	s1,sp,896
  3c:	0000006f          	j	3c <_start+0x3c>
  40:	0805                	addi	a6,a6,1
  42:	5705                	li	a4,-31
  44:	0000                	unimp
  46:	0500                	addi	s0,sp,640
  48:	0410                	addi	a2,sp,512
  4a:	012c                	addi	a1,sp,136
  4c:	0000                	unimp
  4e:	0105                	addi	sp,sp,1
  50:	9e06                	add	t3,t3,ra
  52:	0000                	unimp
  54:	0500                	addi	s0,sp,640
  56:	0801                	addi	a6,a6,0
  58:	009c                	addi	a5,sp,64
  5a:	0000                	unimp
  5c:	0205                	addi	tp,tp,1 # fffe1001 <__stack_top+0xfe7e1001>
  5e:	2a05                	jal	18e <__udivdi3+0xa6>
  60:	0000                	unimp
  62:	0500                	addi	s0,sp,640
  64:	0702                	c.slli64	a4
  66:	00c6                	slli	ra,ra,0x11
  68:	0000                	unimp
  6a:	0405                	addi	s0,s0,1
  6c:	5c05                	li	s8,-31
  6e:	0000                	unimp
  70:	0500                	addi	s0,sp,640
  72:	0704                	addi	s1,sp,896
  74:	006a                	c.slli	zero,0x1a
  76:	0000                	unimp
  78:	0105                	addi	sp,sp,1
  7a:	a508                	.insn	2, 0xa508
  7c:	0000                	unimp
  7e:	0500                	addi	s0,sp,640
  80:	0201                	addi	tp,tp,0 # 0 <_start>
  82:	00fd                	addi	ra,ra,31
  84:	0000                	unimp
  86:	be09                	j	fffffb98 <__stack_top+0xfe7ffb98>
  88:	0000                	unimp
  8a:	7e00                	.insn	2, 0x7e00
  8c:	5516                	lw	a0,100(sp)
  8e:	0000                	unimp
  90:	0b00                	addi	s0,sp,400
  92:	0086                	slli	ra,ra,0x1
  94:	0000                	unimp
  96:	e209                	bnez	a2,98 <trap_entry+0x38>
  98:	0000                	unimp
  9a:	8300                	.insn	2, 0x8300
  9c:	0000320f          	.insn	4, 0x320f
  a0:	0900                	addi	s0,sp,144
  a2:	00e1                	addi	ra,ra,24
  a4:	0000                	unimp
  a6:	1684                	addi	s1,sp,864
  a8:	0039                	c.nop	14
  aa:	0000                	unimp
  ac:	da09                	beqz	a2,ffffffbe <__stack_top+0xfe7fffbe>
  ae:	0000                	unimp
  b0:	8700                	.insn	2, 0x8700
  b2:	0000400f          	.insn	4, 0x400f
  b6:	0900                	addi	s0,sp,144
  b8:	00d9                	addi	ra,ra,22
  ba:	0000                	unimp
  bc:	1688                	addi	a0,sp,864
  be:	0000002b          	.insn	4, 0x002b
  c2:	0205                	addi	tp,tp,1 # 1 <_start+0x1>
  c4:	9304                	.insn	2, 0x9304
  c6:	0000                	unimp
  c8:	0500                	addi	s0,sp,640
  ca:	0304                	addi	s1,sp,384
  cc:	0000008b          	.insn	4, 0x008b
  d0:	0405                	addi	s0,s0,1
  d2:	1b04                	addi	s1,sp,432
  d4:	0000                	unimp
  d6:	0500                	addi	s0,sp,640
  d8:	0308                	addi	a0,sp,384
  da:	00000013          	nop
  de:	0805                	addi	a6,a6,1
  e0:	3104                	.insn	2, 0x3104
  e2:	0001                	nop
  e4:	0500                	addi	s0,sp,640
  e6:	0310                	addi	a2,sp,384
  e8:	00000103          	lb	sp,0(zero) # 0 <_start>
  ec:	2005                	jal	10c <__udivdi3+0x24>
  ee:	00012403          	lw	s0,0(sp)
  f2:	1600                	addi	s0,sp,800
  f4:	000a                	c.slli	zero,0x2
  f6:	0000                	unimp
  f8:	0208                	addi	a0,sp,256
  fa:	0205                	addi	tp,tp,1 # 1 <_start+0x1>
  fc:	1e0a                	slli	t3,t3,0x22
  fe:	0001                	nop
 100:	1700                	addi	s0,sp,928
 102:	6f6c                	.insn	2, 0x6f6c
 104:	05020077          	.insn	4, 0x05020077
 108:	1a02                	slli	s4,s4,0x20
 10a:	0096                	slli	ra,ra,0x5
 10c:	0000                	unimp
 10e:	1800                	addi	s0,sp,48
 110:	007c                	addi	a5,sp,12
 112:	0000                	unimp
 114:	0502                	c.slli64	a0
 116:	1f02                	slli	t5,t5,0x20
 118:	0096                	slli	ra,ra,0x5
 11a:	0000                	unimp
 11c:	0004                	.insn	2, 0x0004
 11e:	0819                	addi	a6,a6,6
 120:	0c02                	c.slli64	s8
 122:	0902                	c.slli64	s2
 124:	013e                	slli	sp,sp,0xf
 126:	0000                	unimp
 128:	7310                	.insn	2, 0x7310
 12a:	0e00                	addi	s0,sp,784
 12c:	1302                	slli	t1,t1,0x20
 12e:	000000f3          	.insn	4, 0x00f3
 132:	6c10                	.insn	2, 0x6c10
 134:	006c                	addi	a1,sp,12
 136:	ac0a020f          	.insn	4, 0xac0a020f
 13a:	0000                	unimp
 13c:	0000                	unimp
 13e:	341a                	.insn	2, 0x341a
 140:	0000                	unimp
 142:	0200                	addi	s0,sp,256
 144:	0210                	addi	a2,sp,256
 146:	00011e03          	lh	t3,0(sp)
 14a:	0b00                	addi	s0,sp,400
 14c:	013e                	slli	sp,sp,0xf
 14e:	0000                	unimp
 150:	0000911b          	.insn	4, 0x911b
 154:	6000                	.insn	2, 0x6000
 156:	0001                	nop
 158:	1c00                	addi	s0,sp,560
 15a:	0039                	c.nop	14
 15c:	0000                	unimp
 15e:	00ff 500b 0001 1d00 	.insn	10, 0x00811d000001500b00ff
 166:	0081 
 168:	0000                	unimp
 16a:	1a02                	slli	s4,s4,0x20
 16c:	1602                	slli	a2,a2,0x20
 16e:	0160                	addi	s0,sp,140
 170:	0000                	unimp
 172:	001e                	c.slli	zero,0x7
 174:	0000                	unimp
 176:	0100                	addi	s0,sp,128
 178:	0512                	slli	a0,a0,0x4
 17a:	b701                	j	7a <trap_entry+0x1a>
 17c:	0000                	unimp
 17e:	e800                	.insn	2, 0xe800
 180:	0000                	unimp
 182:	d600                	sw	s0,40(a2)
 184:	01000003          	lb	zero,16(zero) # 10 <_start+0x10>
 188:	679c                	.insn	2, 0x679c
 18a:	0006                	c.slli	zero,0x1
 18c:	1100                	addi	s0,sp,160
 18e:	006e                	c.slli	zero,0x1b
 190:	b714                	.insn	2, 0xb714
 192:	0000                	unimp
 194:	3400                	.insn	2, 0x3400
 196:	0000                	unimp
 198:	0c00                	addi	s0,sp,528
 19a:	0000                	unimp
 19c:	1100                	addi	s0,sp,160
 19e:	0064                	addi	s1,sp,12
 1a0:	b71f 0000 f600      	.insn	6, 0xf6000000b71f
 1a6:	0000                	unimp
 1a8:	ce00                	sw	s0,24(a2)
 1aa:	0000                	unimp
 1ac:	1f00                	addi	s0,sp,944
 1ae:	00000667          	jalr	a2,zero # 0 <_start>
 1b2:	00e8                	addi	a0,sp,76
 1b4:	0000                	unimp
 1b6:	0c02                	c.slli64	s8
 1b8:	0000                	unimp
 1ba:	0100                	addi	s0,sp,128
 1bc:	0514                	addi	a3,sp,640
 1be:	0c0a                	slli	s8,s8,0x2
 1c0:	0679                	addi	a2,a2,30
 1c2:	0000                	unimp
 1c4:	01ad                	addi	gp,gp,11 # 100080b <__global_pointer$+0xb>
 1c6:	0000                	unimp
 1c8:	0190                	addi	a2,sp,192
 1ca:	0000                	unimp
 1cc:	810c                	.insn	2, 0x810c
 1ce:	0006                	c.slli	zero,0x1
 1d0:	3100                	.insn	2, 0x3100
 1d2:	0002                	c.slli64	zero
 1d4:	1800                	addi	s0,sp,48
 1d6:	0002                	c.slli64	zero
 1d8:	0c00                	addi	s0,sp,528
 1da:	0689                	addi	a3,a3,2 # 40002002 <__stack_top+0x3e802002>
 1dc:	0000                	unimp
 1de:	029e                	slli	t0,t0,0x7
 1e0:	0000                	unimp
 1e2:	029a                	slli	t0,t0,0x6
 1e4:	0000                	unimp
 1e6:	920a                	add	tp,tp,sp
 1e8:	0006                	c.slli	zero,0x1
 1ea:	0a00                	addi	s0,sp,272
 1ec:	069d                	addi	a3,a3,7
 1ee:	0000                	unimp
 1f0:	a80a                	.insn	2, 0xa80a
 1f2:	0006                	c.slli	zero,0x1
 1f4:	0100                	addi	s0,sp,128
 1f6:	000006b3          	add	a3,zero,zero
 1fa:	02d4                	addi	a3,sp,324
 1fc:	0000                	unimp
 1fe:	02ae                	slli	t0,t0,0xb
 200:	0000                	unimp
 202:	be01                	j	fffffd12 <__stack_top+0xfe7ffd12>
 204:	0006                	c.slli	zero,0x1
 206:	5000                	lw	s0,32(s0)
 208:	33000003          	lb	zero,816(zero) # 330 <__udivdi3+0x248>
 20c:	01000003          	lb	zero,16(zero) # 10 <_start+0x10>
 210:	06c9                	addi	a3,a3,18
 212:	0000                	unimp
 214:	03b4                	addi	a3,sp,456
 216:	0000                	unimp
 218:	0394                	addi	a3,sp,448
 21a:	0000                	unimp
 21c:	d401                	beqz	s0,124 <__udivdi3+0x3c>
 21e:	0006                	c.slli	zero,0x1
 220:	2c00                	.insn	2, 0x2c00
 222:	0004                	.insn	2, 0x0004
 224:	f800                	.insn	2, 0xf800
 226:	01000003          	lb	zero,16(zero) # 10 <_start+0x10>
 22a:	06df 0000 04aa      	.insn	6, 0x04aa000006df
 230:	0000                	unimp
 232:	049a                	slli	s1,s1,0x6
 234:	0000                	unimp
 236:	ea01                	bnez	a2,246 <__udivdi3+0x15e>
 238:	0006                	c.slli	zero,0x1
 23a:	d100                	sw	s0,32(a0)
 23c:	0004                	.insn	2, 0x0004
 23e:	c700                	sw	s0,8(a4)
 240:	0004                	.insn	2, 0x0004
 242:	0100                	addi	s0,sp,128
 244:	06f5                	addi	a3,a3,29
 246:	0000                	unimp
 248:	04f6                	slli	s1,s1,0x1d
 24a:	0000                	unimp
 24c:	000004e7          	jalr	s1,zero # 0 <_start>
 250:	0001                	nop
 252:	23000007          	.insn	4, 0x23000007
 256:	0005                	c.nop	1
 258:	1b00                	addi	s0,sp,432
 25a:	0005                	c.nop	1
 25c:	0100                	addi	s0,sp,128
 25e:	070a                	slli	a4,a4,0x2
 260:	0000                	unimp
 262:	0544                	addi	s1,sp,644
 264:	0000                	unimp
 266:	0532                	slli	a0,a0,0xc
 268:	0000                	unimp
 26a:	150a                	slli	a0,a0,0x22
 26c:	08000007          	.insn	4, 0x08000007
 270:	0720                	addi	s0,sp,904
 272:	0000                	unimp
 274:	0019                	c.nop	6
 276:	0000                	unimp
 278:	00000297          	auipc	t0,0x0
 27c:	2501                	jal	87c <__data_load_start+0x14>
 27e:	8e000007          	.insn	4, 0x8e000007
 282:	0005                	c.nop	1
 284:	8400                	.insn	2, 0x8400
 286:	0005                	c.nop	1
 288:	0100                	addi	s0,sp,128
 28a:	0731                	addi	a4,a4,12 # 8000000c <__stack_top+0x7e80000c>
 28c:	0000                	unimp
 28e:	000005b7          	lui	a1,0x0
 292:	05b5                	addi	a1,a1,13 # d <_start+0xd>
 294:	0000                	unimp
 296:	0800                	addi	s0,sp,16
 298:	073e                	slli	a4,a4,0xf
 29a:	0000                	unimp
 29c:	0028                	addi	a0,sp,8
 29e:	0000                	unimp
 2a0:	0336                	slli	t1,t1,0xd
 2a2:	0000                	unimp
 2a4:	4301                	li	t1,0
 2a6:	c1000007          	.insn	4, 0xc1000007
 2aa:	0005                	c.nop	1
 2ac:	bd00                	.insn	2, 0xbd00
 2ae:	0005                	c.nop	1
 2b0:	0100                	addi	s0,sp,128
 2b2:	0000074f          	.insn	4, 0x074f
 2b6:	000005d7          	.insn	4, 0x05d7
 2ba:	000005cf          	.insn	4, 0x05cf
 2be:	5b01                	li	s6,-32
 2c0:	0e000007          	.insn	4, 0x0e000007
 2c4:	0006                	c.slli	zero,0x1
 2c6:	0000                	unimp
 2c8:	0006                	c.slli	zero,0x1
 2ca:	0100                	addi	s0,sp,128
 2cc:	00000767          	jalr	a4,zero # 0 <_start>
 2d0:	0652                	slli	a2,a2,0x14
 2d2:	0000                	unimp
 2d4:	0644                	addi	s1,sp,772
 2d6:	0000                	unimp
 2d8:	7301                	lui	t1,0xfffe0
 2da:	96000007          	.insn	4, 0x96000007
 2de:	0006                	c.slli	zero,0x1
 2e0:	8a00                	.insn	2, 0x8a00
 2e2:	0006                	c.slli	zero,0x1
 2e4:	0100                	addi	s0,sp,128
 2e6:	077f 0000 06d8 0000 	.insn	10, 0x06d0000006d80000077f
 2ee:	06d0 
 2f0:	0000                	unimp
 2f2:	8b01                	andi	a4,a4,0
 2f4:	09000007          	.insn	4, 0x09000007
 2f8:	ff000007          	.insn	4, 0xff000007
 2fc:	0006                	c.slli	zero,0x1
 2fe:	0400                	addi	s0,sp,512
 300:	0160                	addi	s0,sp,140
 302:	0000                	unimp
 304:	0a0d                	addi	s4,s4,3
 306:	0000                	unimp
 308:	6c04                	.insn	2, 0x6c04
 30a:	0001                	nop
 30c:	1600                	addi	s0,sp,800
 30e:	000a                	c.slli	zero,0x2
 310:	0400                	addi	s0,sp,512
 312:	0174                	addi	a3,sp,140
 314:	0000                	unimp
 316:	0a1f 0000 9604      	.insn	6, 0x960400000a1f
 31c:	0001                	nop
 31e:	0d00                	addi	s0,sp,656
 320:	000a                	c.slli	zero,0x2
 322:	0400                	addi	s0,sp,512
 324:	019e                	slli	gp,gp,0x7
 326:	0000                	unimp
 328:	0a16                	slli	s4,s4,0x5
 32a:	0000                	unimp
 32c:	a604                	.insn	2, 0xa604
 32e:	0001                	nop
 330:	1f00                	addi	s0,sp,944
 332:	000a                	c.slli	zero,0x2
 334:	0000                	unimp
 336:	9808                	.insn	2, 0x9808
 338:	32000007          	.insn	4, 0x32000007
 33c:	0000                	unimp
 33e:	5e00                	lw	s0,56(a2)
 340:	01000003          	lb	zero,16(zero) # 10 <_start+0x10>
 344:	079d                	addi	a5,a5,7 # 1000007 <s_handlers+0x7>
 346:	0000                	unimp
 348:	00000733          	add	a4,zero,zero
 34c:	072d                	addi	a4,a4,11
 34e:	0000                	unimp
 350:	a901                	j	760 <irq_trap_dispatch+0x22>
 352:	44000007          	.insn	4, 0x44000007
 356:	42000007          	.insn	4, 0x42000007
 35a:	00000007          	.insn	4, 0x0007
 35e:	1008                	addi	a0,sp,32
 360:	0008                	.insn	2, 0x0008
 362:	4200                	lw	s0,0(a2)
 364:	0000                	unimp
 366:	fd00                	.insn	2, 0xfd00
 368:	01000003          	lb	zero,16(zero) # 10 <_start+0x10>
 36c:	0815                	addi	a6,a6,5
 36e:	0000                	unimp
 370:	00000753          	.insn	4, 0x0753
 374:	074c                	addi	a1,sp,900
 376:	0000                	unimp
 378:	2101                	jal	778 <__clz_tab+0x10>
 37a:	0008                	.insn	2, 0x0008
 37c:	7200                	.insn	2, 0x7200
 37e:	62000007          	.insn	4, 0x62000007
 382:	01000007          	.insn	4, 0x01000007
 386:	082d                	addi	a6,a6,11
 388:	0000                	unimp
 38a:	000007b7          	lui	a5,0x0
 38e:	0000079b          	.insn	4, 0x079b
 392:	3901                	jal	ffffffa2 <__stack_top+0xfe7fffa2>
 394:	0008                	.insn	2, 0x0008
 396:	0900                	addi	s0,sp,144
 398:	0008                	.insn	2, 0x0008
 39a:	ed00                	.insn	2, 0xed00
 39c:	01000007          	.insn	4, 0x01000007
 3a0:	0845                	addi	a6,a6,17
 3a2:	0000                	unimp
 3a4:	0859                	addi	a6,a6,22
 3a6:	0000                	unimp
 3a8:	0841                	addi	a6,a6,16
 3aa:	0000                	unimp
 3ac:	5101                	li	sp,-32
 3ae:	0008                	.insn	2, 0x0008
 3b0:	a300                	.insn	2, 0xa300
 3b2:	0008                	.insn	2, 0x0008
 3b4:	9300                	.insn	2, 0x9300
 3b6:	0008                	.insn	2, 0x0008
 3b8:	0100                	addi	s0,sp,128
 3ba:	085d                	addi	a6,a6,23
 3bc:	0000                	unimp
 3be:	08e2                	slli	a7,a7,0x18
 3c0:	0000                	unimp
 3c2:	08ca                	slli	a7,a7,0x12
 3c4:	0000                	unimp
 3c6:	3804                	.insn	2, 0x3804
 3c8:	0002                	c.slli64	zero
 3ca:	0d00                	addi	s0,sp,656
 3cc:	000a                	c.slli	zero,0x2
 3ce:	0400                	addi	s0,sp,512
 3d0:	0244                	addi	s1,sp,260
 3d2:	0000                	unimp
 3d4:	0a16                	slli	s4,s4,0x5
 3d6:	0000                	unimp
 3d8:	4c04                	lw	s1,24(s0)
 3da:	0002                	c.slli64	zero
 3dc:	1f00                	addi	s0,sp,944
 3de:	000a                	c.slli	zero,0x2
 3e0:	0400                	addi	s0,sp,512
 3e2:	026e                	slli	tp,tp,0x1b
 3e4:	0000                	unimp
 3e6:	0a0d                	addi	s4,s4,3
 3e8:	0000                	unimp
 3ea:	7604                	.insn	2, 0x7604
 3ec:	0002                	c.slli64	zero
 3ee:	1600                	addi	s0,sp,800
 3f0:	000a                	c.slli	zero,0x2
 3f2:	0400                	addi	s0,sp,512
 3f4:	027e                	slli	tp,tp,0x1f
 3f6:	0000                	unimp
 3f8:	0a1f 0000 0800      	.insn	6, 0x080000000a1f
 3fe:	07b6                	slli	a5,a5,0xd
 400:	0000                	unimp
 402:	004d                	c.nop	19
 404:	0000                	unimp
 406:	049c                	addi	a5,sp,576
 408:	0000                	unimp
 40a:	bb01                	j	11a <__udivdi3+0x32>
 40c:	15000007          	.insn	4, 0x15000007
 410:	0009                	c.nop	2
 412:	0d00                	addi	s0,sp,656
 414:	0009                	c.nop	2
 416:	0100                	addi	s0,sp,128
 418:	000007c7          	.insn	4, 0x07c7
 41c:	0934                	addi	a3,sp,152
 41e:	0000                	unimp
 420:	0924                	addi	s1,sp,152
 422:	0000                	unimp
 424:	d301                	beqz	a4,324 <__udivdi3+0x23c>
 426:	79000007          	.insn	4, 0x79000007
 42a:	0009                	c.nop	2
 42c:	5d00                	lw	s0,56(a0)
 42e:	0009                	c.nop	2
 430:	0100                	addi	s0,sp,128
 432:	07df 0000 09cb      	.insn	6, 0x09cb000007df
 438:	0000                	unimp
 43a:	000009af          	.insn	4, 0x09af
 43e:	eb01                	bnez	a4,44e <__udivdi3+0x366>
 440:	1d000007          	.insn	4, 0x1d000007
 444:	000a                	c.slli	zero,0x2
 446:	0100                	addi	s0,sp,128
 448:	000a                	c.slli	zero,0x2
 44a:	0100                	addi	s0,sp,128
 44c:	000007f7          	.insn	4, 0x07f7
 450:	00000a77          	.insn	4, 0x0a77
 454:	00000a63          	beqz	zero,468 <__udivdi3+0x380>
 458:	0301                	addi	t1,t1,0 # fffe0000 <__stack_top+0xfe7e0000>
 45a:	0008                	.insn	2, 0x0008
 45c:	c400                	sw	s0,8(s0)
 45e:	000a                	c.slli	zero,0x2
 460:	ac00                	.insn	2, 0xac00
 462:	000a                	c.slli	zero,0x2
 464:	0400                	addi	s0,sp,512
 466:	02da                	slli	t0,t0,0x16
 468:	0000                	unimp
 46a:	0a0d                	addi	s4,s4,3
 46c:	0000                	unimp
 46e:	e204                	.insn	2, 0xe204
 470:	0002                	c.slli64	zero
 472:	1600                	addi	s0,sp,800
 474:	000a                	c.slli	zero,0x2
 476:	0400                	addi	s0,sp,512
 478:	02ea                	slli	t0,t0,0x1a
 47a:	0000                	unimp
 47c:	0a1f 0000 0c04      	.insn	6, 0x0c0400000a1f
 482:	0d000003          	lb	zero,208(zero) # d0 <trap_entry+0x70>
 486:	000a                	c.slli	zero,0x2
 488:	0400                	addi	s0,sp,512
 48a:	0314                	addi	a3,sp,384
 48c:	0000                	unimp
 48e:	0a16                	slli	s4,s4,0x5
 490:	0000                	unimp
 492:	1c04                	addi	s1,sp,560
 494:	1f000003          	lb	zero,496(zero) # 1f0 <__udivdi3+0x108>
 498:	000a                	c.slli	zero,0x2
 49a:	0000                	unimp
 49c:	6a08                	.insn	2, 0x6a08
 49e:	0008                	.insn	2, 0x0008
 4a0:	5d00                	lw	s0,56(a0)
 4a2:	0000                	unimp
 4a4:	c400                	sw	s0,8(s0)
 4a6:	0004                	.insn	2, 0x0004
 4a8:	0100                	addi	s0,sp,128
 4aa:	0000086f          	jal	a6,4aa <__udivdi3+0x3c2>
 4ae:	00000af7          	.insn	4, 0x0af7
 4b2:	00000aef          	jal	s5,4b2 <__udivdi3+0x3ca>
 4b6:	7b01                	lui	s6,0xfffe0
 4b8:	0008                	.insn	2, 0x0008
 4ba:	0e00                	addi	s0,sp,784
 4bc:	0600000b          	.insn	4, 0x0600000b
 4c0:	0000000b          	.insn	4, 0x000b
 4c4:	9a12                	add	s4,s4,tp
 4c6:	0008                	.insn	2, 0x0008
 4c8:	6d00                	.insn	2, 0x6d00
 4ca:	0000                	unimp
 4cc:	0100                	addi	s0,sp,128
 4ce:	0000089b          	.insn	4, 0x089b
 4d2:	0b21                	addi	s6,s6,8 # fffe0008 <__stack_top+0xfe7e0008>
 4d4:	0000                	unimp
 4d6:	0b1d                	addi	s6,s6,7
 4d8:	0000                	unimp
 4da:	a601                	j	7da <__clz_tab+0x72>
 4dc:	0008                	.insn	2, 0x0008
 4de:	2d00                	.insn	2, 0x2d00
 4e0:	2900000b          	.insn	4, 0x2900000b
 4e4:	0800000b          	.insn	4, 0x0800000b
 4e8:	08b1                	addi	a7,a7,12
 4ea:	0000                	unimp
 4ec:	007d                	c.nop	31
 4ee:	0000                	unimp
 4f0:	0586                	slli	a1,a1,0x1
 4f2:	0000                	unimp
 4f4:	b601                	j	fffffff4 <__stack_top+0xfe7ffff4>
 4f6:	0008                	.insn	2, 0x0008
 4f8:	4c00                	lw	s0,24(s0)
 4fa:	4400000b          	.insn	4, 0x4400000b
 4fe:	0100000b          	.insn	4, 0x0100000b
 502:	08c2                	slli	a7,a7,0x10
 504:	0000                	unimp
 506:	00000b6b          	.insn	4, 0x0b6b
 50a:	00000b5b          	.insn	4, 0x0b5b
 50e:	ce01                	beqz	a2,526 <__umodsi3+0x1e>
 510:	0008                	.insn	2, 0x0008
 512:	a800                	.insn	2, 0xa800
 514:	9400000b          	.insn	4, 0x9400000b
 518:	0100000b          	.insn	4, 0x0100000b
 51c:	08da                	slli	a7,a7,0x16
 51e:	0000                	unimp
 520:	0bec                	addi	a1,sp,476
 522:	0000                	unimp
 524:	0bd0                	addi	a2,sp,468
 526:	0000                	unimp
 528:	e601                	bnez	a2,530 <__modsi3+0x4>
 52a:	0008                	.insn	2, 0x0008
 52c:	3e00                	.insn	2, 0x3e00
 52e:	000c                	.insn	2, 0x000c
 530:	2200                	.insn	2, 0x2200
 532:	000c                	.insn	2, 0x000c
 534:	0100                	addi	s0,sp,128
 536:	08f2                	slli	a7,a7,0x1c
 538:	0000                	unimp
 53a:	0c98                	addi	a4,sp,592
 53c:	0000                	unimp
 53e:	0c84                	addi	s1,sp,592
 540:	0000                	unimp
 542:	fe01                	bnez	a2,45a <__udivdi3+0x372>
 544:	0008                	.insn	2, 0x0008
 546:	e500                	.insn	2, 0xe500
 548:	000c                	.insn	2, 0x000c
 54a:	cd00                	sw	s0,24(a0)
 54c:	000c                	.insn	2, 0x000c
 54e:	0400                	addi	s0,sp,512
 550:	03dc                	addi	a5,sp,452
 552:	0000                	unimp
 554:	0a0d                	addi	s4,s4,3
 556:	0000                	unimp
 558:	e404                	.insn	2, 0xe404
 55a:	16000003          	lb	zero,352(zero) # 160 <__udivdi3+0x78>
 55e:	000a                	c.slli	zero,0x2
 560:	0400                	addi	s0,sp,512
 562:	03ec                	addi	a1,sp,460
 564:	0000                	unimp
 566:	0a1f 0000 0e04      	.insn	6, 0x0e0400000a1f
 56c:	0004                	.insn	2, 0x0004
 56e:	0d00                	addi	s0,sp,656
 570:	000a                	c.slli	zero,0x2
 572:	0400                	addi	s0,sp,512
 574:	0416                	slli	s0,s0,0x5
 576:	0000                	unimp
 578:	0a16                	slli	s4,s4,0x5
 57a:	0000                	unimp
 57c:	1e04                	addi	s1,sp,816
 57e:	0004                	.insn	2, 0x0004
 580:	1f00                	addi	s0,sp,944
 582:	000a                	c.slli	zero,0x2
 584:	0000                	unimp
 586:	0b12                	slli	s6,s6,0x4
 588:	0009                	c.nop	2
 58a:	a100                	.insn	2, 0xa100
 58c:	0000                	unimp
 58e:	0100                	addi	s0,sp,128
 590:	0910                	addi	a2,sp,144
 592:	0000                	unimp
 594:	0d18                	addi	a4,sp,656
 596:	0000                	unimp
 598:	0d10                	addi	a2,sp,656
 59a:	0000                	unimp
 59c:	1c01                	addi	s8,s8,-32
 59e:	0009                	c.nop	2
 5a0:	3700                	.insn	2, 0x3700
 5a2:	000d                	c.nop	3
 5a4:	2700                	.insn	2, 0x2700
 5a6:	000d                	c.nop	3
 5a8:	0100                	addi	s0,sp,128
 5aa:	0928                	addi	a0,sp,152
 5ac:	0000                	unimp
 5ae:	0d5f 0000 0d5b      	.insn	6, 0x0d5b00000d5f
 5b4:	0000                	unimp
 5b6:	3401                	jal	ffffffb6 <__stack_top+0xfe7fffb6>
 5b8:	0009                	c.nop	2
 5ba:	6b00                	.insn	2, 0x6b00
 5bc:	000d                	c.nop	3
 5be:	6700                	.insn	2, 0x6700
 5c0:	000d                	c.nop	3
 5c2:	0700                	addi	s0,sp,896
 5c4:	0940                	addi	s0,sp,148
 5c6:	0000                	unimp
 5c8:	6201                	.insn	2, 0x6201
 5ca:	4c01                	li	s8,0
 5cc:	0009                	c.nop	2
 5ce:	7b00                	.insn	2, 0x7b00
 5d0:	000d                	c.nop	3
 5d2:	7300                	.insn	2, 0x7300
 5d4:	000d                	c.nop	3
 5d6:	0100                	addi	s0,sp,128
 5d8:	0958                	addi	a4,sp,148
 5da:	0000                	unimp
 5dc:	0da8                	addi	a0,sp,728
 5de:	0000                	unimp
 5e0:	0d90                	addi	a2,sp,720
 5e2:	0000                	unimp
 5e4:	00096407          	.insn	4, 0x00096407
 5e8:	0100                	addi	s0,sp,128
 5ea:	09700863          	beq	zero,s7,67a <get_tick_ms+0x8>
 5ee:	0000                	unimp
 5f0:	00c0                	addi	s0,sp,68
 5f2:	0000                	unimp
 5f4:	00000607          	.insn	4, 0x0607
 5f8:	00097507          	.insn	4, 0x00097507
 5fc:	0100                	addi	s0,sp,128
 5fe:	075a                	slli	a4,a4,0x16
 600:	0981                	addi	s3,s3,0
 602:	0000                	unimp
 604:	5b01                	li	s6,-32
 606:	1300                	addi	s0,sp,416
 608:	098e                	slli	s3,s3,0x3
 60a:	0000                	unimp
 60c:	0456                	slli	s0,s0,0x15
 60e:	0000                	unimp
 610:	000e                	c.slli	zero,0x3
 612:	0000                	unimp
 614:	00000627          	.insn	4, 0x0627
 618:	00099307          	.insn	4, 0x00099307
 61c:	0100                	addi	s0,sp,128
 61e:	075a                	slli	a4,a4,0x16
 620:	099f 0000 5b01      	.insn	6, 0x5b010000099f
 626:	1300                	addi	s0,sp,416
 628:	09ac                	addi	a1,sp,216
 62a:	0000                	unimp
 62c:	0464                	addi	s1,sp,524
 62e:	0000                	unimp
 630:	000a                	c.slli	zero,0x2
 632:	0000                	unimp
 634:	00000647          	.insn	4, 0x0647
 638:	0009b107          	.insn	4, 0x0009b107
 63c:	0100                	addi	s0,sp,128
 63e:	075a                	slli	a4,a4,0x16
 640:	09bd                	addi	s3,s3,15
 642:	0000                	unimp
 644:	5b01                	li	s6,-32
 646:	2000                	.insn	2, 0x2000
 648:	09ca                	slli	s3,s3,0x12
 64a:	0000                	unimp
 64c:	046e                	slli	s0,s0,0x1b
 64e:	0000                	unimp
 650:	000a                	c.slli	zero,0x2
 652:	0000                	unimp
 654:	0009cb07          	.insn	4, 0x0009cb07
 658:	0100                	addi	s0,sp,128
 65a:	075a                	slli	a4,a4,0x16
 65c:	000009d7          	.insn	4, 0x09d7
 660:	5b01                	li	s6,-32
 662:	0000                	unimp
 664:	0000                	unimp
 666:	2100                	.insn	2, 0x2100
 668:	00000117          	auipc	sp,0x0
 66c:	e301                	bnez	a4,66c <gpio_int_clear+0x14>
 66e:	00b70103          	lb	sp,11(a4)
 672:	0000                	unimp
 674:	000a0703          	lb	a4,0(s4)
 678:	0d00                	addi	s0,sp,656
 67a:	006e                	c.slli	zero,0x1b
 67c:	0000b717          	auipc	a4,0xb
 680:	0d00                	addi	s0,sp,656
 682:	0064                	addi	s1,sp,12
 684:	b722                	.insn	2, 0xb722
 686:	0000                	unimp
 688:	0d00                	addi	s0,sp,656
 68a:	7072                	.insn	2, 0x7072
 68c:	2e00                	.insn	2, 0x2e00
 68e:	00000a07          	.insn	4, 0x0a07
 692:	006e6e03          	.insn	4, 0x006e6e03
 696:	03e5                	addi	t2,t2,25
 698:	4b11                	li	s6,4
 69a:	0001                	nop
 69c:	0300                	addi	s0,sp,384
 69e:	6464                	.insn	2, 0x6464
 6a0:	e600                	.insn	2, 0xe600
 6a2:	014b1103          	lh	sp,20(s6)
 6a6:	0000                	unimp
 6a8:	00727203          	.insn	4, 0x00727203
 6ac:	3e0b03e7          	jalr	t2,992(s6)
 6b0:	0001                	nop
 6b2:	0300                	addi	s0,sp,384
 6b4:	3064                	.insn	2, 0x3064
 6b6:	e800                	.insn	2, 0xe800
 6b8:	00a10a03          	lb	s4,10(sp) # 672 <get_tick_ms>
 6bc:	0000                	unimp
 6be:	00316403          	.insn	4, 0x00316403
 6c2:	03e8                	addi	a0,sp,460
 6c4:	a10e                	.insn	2, 0xa10e
 6c6:	0000                	unimp
 6c8:	0300                	addi	s0,sp,384
 6ca:	306e                	.insn	2, 0x306e
 6cc:	e800                	.insn	2, 0xe800
 6ce:	00a11203          	lh	tp,10(sp)
 6d2:	0000                	unimp
 6d4:	00316e03          	.insn	4, 0x00316e03
 6d8:	03e8                	addi	a0,sp,460
 6da:	a116                	.insn	2, 0xa116
 6dc:	0000                	unimp
 6de:	0300                	addi	s0,sp,384
 6e0:	326e                	.insn	2, 0x326e
 6e2:	e800                	.insn	2, 0xe800
 6e4:	00a11a03          	lh	s4,10(sp)
 6e8:	0000                	unimp
 6ea:	00307103          	.insn	4, 0x00307103
 6ee:	03e9                	addi	t2,t2,26
 6f0:	a10a                	.insn	2, 0xa10a
 6f2:	0000                	unimp
 6f4:	0300                	addi	s0,sp,384
 6f6:	3171                	jal	382 <__udivdi3+0x29a>
 6f8:	e900                	.insn	2, 0xe900
 6fa:	00a10e03          	lb	t3,10(sp)
 6fe:	0000                	unimp
 700:	ea006203          	.insn	4, 0xea006203
 704:	00a10a03          	lb	s4,10(sp)
 708:	0000                	unimp
 70a:	006d6203          	.insn	4, 0x006d6203
 70e:	03ea                	slli	t2,t2,0x1a
 710:	a10d                	j	b32 <__data_load_start+0x2ca>
 712:	0000                	unimp
 714:	0300                	addi	s0,sp,384
 716:	b3007777          	.insn	4, 0xb3007777
 71a:	1104                	addi	s1,sp,160
 71c:	0000014b          	.insn	4, 0x014b
 720:	3e06                	.insn	2, 0x3e06
 722:	02000007          	.insn	4, 0x02000007
 726:	0138                	addi	a4,sp,136
 728:	0000                	unimp
 72a:	041a                	slli	s0,s0,0x6
 72c:	a104                	.insn	2, 0xa104
 72e:	0000                	unimp
 730:	0300                	addi	s0,sp,384
 732:	5f5f 0061 041a      	.insn	6, 0x041a00615f5f
 738:	a104                	.insn	2, 0xa104
 73a:	0000                	unimp
 73c:	0000                	unimp
 73e:	9806                	add	a6,a6,ra
 740:	02000007          	.insn	4, 0x02000007
 744:	0041                	c.nop	16
 746:	0000                	unimp
 748:	0426                	slli	s0,s0,0x9
 74a:	a104                	.insn	2, 0xa104
 74c:	0000                	unimp
 74e:	0200                	addi	s0,sp,256
 750:	003c                	addi	a5,sp,8
 752:	0000                	unimp
 754:	0426                	slli	s0,s0,0x9
 756:	a104                	.insn	2, 0xa104
 758:	0000                	unimp
 75a:	0200                	addi	s0,sp,256
 75c:	00ee                	slli	ra,ra,0x1b
 75e:	0000                	unimp
 760:	0426                	slli	s0,s0,0x9
 762:	a104                	.insn	2, 0xa104
 764:	0000                	unimp
 766:	0200                	addi	s0,sp,256
 768:	00e9                	addi	ra,ra,26
 76a:	0000                	unimp
 76c:	0426                	slli	s0,s0,0x9
 76e:	a104                	.insn	2, 0xa104
 770:	0000                	unimp
 772:	0200                	addi	s0,sp,256
 774:	0142                	slli	sp,sp,0x10
 776:	0000                	unimp
 778:	0426                	slli	s0,s0,0x9
 77a:	a104                	.insn	2, 0xa104
 77c:	0000                	unimp
 77e:	0200                	addi	s0,sp,256
 780:	013d                	addi	sp,sp,15
 782:	0000                	unimp
 784:	0426                	slli	s0,s0,0x9
 786:	a104                	.insn	2, 0xa104
 788:	0000                	unimp
 78a:	0300                	addi	s0,sp,384
 78c:	5f5f 006d 0426      	.insn	6, 0x0426006d5f5f
 792:	a104                	.insn	2, 0xa104
 794:	0000                	unimp
 796:	0000                	unimp
 798:	b606                	.insn	2, 0xb606
 79a:	02000007          	.insn	4, 0x02000007
 79e:	0138                	addi	a4,sp,136
 7a0:	0000                	unimp
 7a2:	0432                	slli	s0,s0,0xc
 7a4:	a104                	.insn	2, 0xa104
 7a6:	0000                	unimp
 7a8:	0300                	addi	s0,sp,384
 7aa:	5f5f 0061 0432      	.insn	6, 0x043200615f5f
 7b0:	a104                	.insn	2, 0xa104
 7b2:	0000                	unimp
 7b4:	0000                	unimp
 7b6:	1006                	c.slli	zero,0x21
 7b8:	0008                	.insn	2, 0x0008
 7ba:	0200                	addi	s0,sp,256
 7bc:	0041                	c.nop	16
 7be:	0000                	unimp
 7c0:	a108044b          	.insn	4, 0xa108044b
 7c4:	0000                	unimp
 7c6:	0200                	addi	s0,sp,256
 7c8:	003c                	addi	a5,sp,8
 7ca:	0000                	unimp
 7cc:	a108044b          	.insn	4, 0xa108044b
 7d0:	0000                	unimp
 7d2:	0200                	addi	s0,sp,256
 7d4:	00ee                	slli	ra,ra,0x1b
 7d6:	0000                	unimp
 7d8:	a108044b          	.insn	4, 0xa108044b
 7dc:	0000                	unimp
 7de:	0200                	addi	s0,sp,256
 7e0:	00e9                	addi	ra,ra,26
 7e2:	0000                	unimp
 7e4:	a108044b          	.insn	4, 0xa108044b
 7e8:	0000                	unimp
 7ea:	0200                	addi	s0,sp,256
 7ec:	0142                	slli	sp,sp,0x10
 7ee:	0000                	unimp
 7f0:	a108044b          	.insn	4, 0xa108044b
 7f4:	0000                	unimp
 7f6:	0200                	addi	s0,sp,256
 7f8:	013d                	addi	sp,sp,15
 7fa:	0000                	unimp
 7fc:	a108044b          	.insn	4, 0xa108044b
 800:	0000                	unimp
 802:	0300                	addi	s0,sp,384
 804:	5f5f 006d 044b      	.insn	6, 0x044b006d5f5f
 80a:	a108                	.insn	2, 0xa108
 80c:	0000                	unimp
 80e:	0000                	unimp
 810:	6a06                	.insn	2, 0x6a06
 812:	0008                	.insn	2, 0x0008
 814:	0200                	addi	s0,sp,256
 816:	0041                	c.nop	16
 818:	0000                	unimp
 81a:	0450                	addi	a2,sp,516
 81c:	a104                	.insn	2, 0xa104
 81e:	0000                	unimp
 820:	0200                	addi	s0,sp,256
 822:	003c                	addi	a5,sp,8
 824:	0000                	unimp
 826:	0450                	addi	a2,sp,516
 828:	a104                	.insn	2, 0xa104
 82a:	0000                	unimp
 82c:	0200                	addi	s0,sp,256
 82e:	00ee                	slli	ra,ra,0x1b
 830:	0000                	unimp
 832:	0450                	addi	a2,sp,516
 834:	a104                	.insn	2, 0xa104
 836:	0000                	unimp
 838:	0200                	addi	s0,sp,256
 83a:	00e9                	addi	ra,ra,26
 83c:	0000                	unimp
 83e:	0450                	addi	a2,sp,516
 840:	a104                	.insn	2, 0xa104
 842:	0000                	unimp
 844:	0200                	addi	s0,sp,256
 846:	0142                	slli	sp,sp,0x10
 848:	0000                	unimp
 84a:	0450                	addi	a2,sp,516
 84c:	a104                	.insn	2, 0xa104
 84e:	0000                	unimp
 850:	0200                	addi	s0,sp,256
 852:	013d                	addi	sp,sp,15
 854:	0000                	unimp
 856:	0450                	addi	a2,sp,516
 858:	a104                	.insn	2, 0xa104
 85a:	0000                	unimp
 85c:	0300                	addi	s0,sp,384
 85e:	5f5f 006d 0450      	.insn	6, 0x0450006d5f5f
 864:	a104                	.insn	2, 0xa104
 866:	0000                	unimp
 868:	0000                	unimp
 86a:	8806                	mv	a6,ra
 86c:	0008                	.insn	2, 0x0008
 86e:	0200                	addi	s0,sp,256
 870:	0138                	addi	a4,sp,136
 872:	0000                	unimp
 874:	a1040473          	.insn	4, 0xa1040473
 878:	0000                	unimp
 87a:	0300                	addi	s0,sp,384
 87c:	5f5f 0061 0473      	.insn	6, 0x047300615f5f
 882:	a104                	.insn	2, 0xa104
 884:	0000                	unimp
 886:	0000                	unimp
 888:	9a06                	add	s4,s4,ra
 88a:	0008                	.insn	2, 0x0008
 88c:	0300                	addi	s0,sp,384
 88e:	5f5f 0078 0481      	.insn	6, 0x048100785f5f
 894:	a105                	j	cb4 <__data_load_start+0x44c>
 896:	0000                	unimp
 898:	0000                	unimp
 89a:	030e                	slli	t1,t1,0x3
 89c:	316d                	jal	546 <__modsi3+0x1a>
 89e:	9100                	.insn	2, 0x9100
 8a0:	0f04                	addi	s1,sp,912
 8a2:	00a1                	addi	ra,ra,8
 8a4:	0000                	unimp
 8a6:	00306d03          	.insn	4, 0x00306d03
 8aa:	0491                	addi	s1,s1,4
 8ac:	0000a113          	slti	sp,ra,0
 8b0:	0600                	addi	s0,sp,768
 8b2:	0000090b          	.insn	4, 0x090b
 8b6:	4102                	lw	sp,0(sp)
 8b8:	0000                	unimp
 8ba:	9c00                	.insn	2, 0x9c00
 8bc:	0804                	addi	s1,sp,16
 8be:	00a1                	addi	ra,ra,8
 8c0:	0000                	unimp
 8c2:	3c02                	.insn	2, 0x3c02
 8c4:	0000                	unimp
 8c6:	9c00                	.insn	2, 0x9c00
 8c8:	0804                	addi	s1,sp,16
 8ca:	00a1                	addi	ra,ra,8
 8cc:	0000                	unimp
 8ce:	ee02                	.insn	2, 0xee02
 8d0:	0000                	unimp
 8d2:	9c00                	.insn	2, 0x9c00
 8d4:	0804                	addi	s1,sp,16
 8d6:	00a1                	addi	ra,ra,8
 8d8:	0000                	unimp
 8da:	e902                	.insn	2, 0xe902
 8dc:	0000                	unimp
 8de:	9c00                	.insn	2, 0x9c00
 8e0:	0804                	addi	s1,sp,16
 8e2:	00a1                	addi	ra,ra,8
 8e4:	0000                	unimp
 8e6:	4202                	lw	tp,0(sp)
 8e8:	0001                	nop
 8ea:	9c00                	.insn	2, 0x9c00
 8ec:	0804                	addi	s1,sp,16
 8ee:	00a1                	addi	ra,ra,8
 8f0:	0000                	unimp
 8f2:	3d02                	.insn	2, 0x3d02
 8f4:	0001                	nop
 8f6:	9c00                	.insn	2, 0x9c00
 8f8:	0804                	addi	s1,sp,16
 8fa:	00a1                	addi	ra,ra,8
 8fc:	0000                	unimp
 8fe:	6d5f5f03          	lhu	t5,1749(t5)
 902:	9c00                	.insn	2, 0x9c00
 904:	0804                	addi	s1,sp,16
 906:	00a1                	addi	ra,ra,8
 908:	0000                	unimp
 90a:	0600                	addi	s0,sp,768
 90c:	09e5                	addi	s3,s3,25
 90e:	0000                	unimp
 910:	aa02                	.insn	2, 0xaa02
 912:	0000                	unimp
 914:	9d00                	.insn	2, 0x9d00
 916:	0804                	addi	s1,sp,16
 918:	00a1                	addi	ra,ra,8
 91a:	0000                	unimp
 91c:	af02                	.insn	2, 0xaf02
 91e:	0000                	unimp
 920:	9d00                	.insn	2, 0x9d00
 922:	0804                	addi	s1,sp,16
 924:	00a1                	addi	ra,ra,8
 926:	0000                	unimp
 928:	b402                	.insn	2, 0xb402
 92a:	0000                	unimp
 92c:	9d00                	.insn	2, 0x9d00
 92e:	0804                	addi	s1,sp,16
 930:	00a1                	addi	ra,ra,8
 932:	0000                	unimp
 934:	b902                	.insn	2, 0xb902
 936:	0000                	unimp
 938:	9d00                	.insn	2, 0x9d00
 93a:	0804                	addi	s1,sp,16
 93c:	00a1                	addi	ra,ra,8
 93e:	0000                	unimp
 940:	1402                	slli	s0,s0,0x20
 942:	0002                	c.slli64	zero
 944:	9d00                	.insn	2, 0x9d00
 946:	0804                	addi	s1,sp,16
 948:	00a1                	addi	ra,ra,8
 94a:	0000                	unimp
 94c:	1202                	slli	tp,tp,0x20
 94e:	0001                	nop
 950:	9d00                	.insn	2, 0x9d00
 952:	0804                	addi	s1,sp,16
 954:	00a1                	addi	ra,ra,8
 956:	0000                	unimp
 958:	0f02                	c.slli64	t5
 95a:	0002                	c.slli64	zero
 95c:	9d00                	.insn	2, 0x9d00
 95e:	0804                	addi	s1,sp,16
 960:	00a1                	addi	ra,ra,8
 962:	0000                	unimp
 964:	4602                	lw	a2,0(sp)
 966:	0000                	unimp
 968:	9d00                	.insn	2, 0x9d00
 96a:	0804                	addi	s1,sp,16
 96c:	00a1                	addi	ra,ra,8
 96e:	0000                	unimp
 970:	8e06                	mv	t3,ra
 972:	0009                	c.nop	2
 974:	0200                	addi	s0,sp,256
 976:	0000004b          	.insn	4, 0x004b
 97a:	049d                	addi	s1,s1,7
 97c:	a108                	.insn	2, 0xa108
 97e:	0000                	unimp
 980:	0200                	addi	s0,sp,256
 982:	0051                	c.nop	20
 984:	0000                	unimp
 986:	049d                	addi	s1,s1,7
 988:	a108                	.insn	2, 0xa108
 98a:	0000                	unimp
 98c:	0000                	unimp
 98e:	ac06                	.insn	2, 0xac06
 990:	0009                	c.nop	2
 992:	0200                	addi	s0,sp,256
 994:	0000004b          	.insn	4, 0x004b
 998:	049d                	addi	s1,s1,7
 99a:	a108                	.insn	2, 0xa108
 99c:	0000                	unimp
 99e:	0200                	addi	s0,sp,256
 9a0:	0051                	c.nop	20
 9a2:	0000                	unimp
 9a4:	049d                	addi	s1,s1,7
 9a6:	a108                	.insn	2, 0xa108
 9a8:	0000                	unimp
 9aa:	0000                	unimp
 9ac:	ca06                	sw	ra,20(sp)
 9ae:	0009                	c.nop	2
 9b0:	0200                	addi	s0,sp,256
 9b2:	0000004b          	.insn	4, 0x004b
 9b6:	049d                	addi	s1,s1,7
 9b8:	a108                	.insn	2, 0xa108
 9ba:	0000                	unimp
 9bc:	0200                	addi	s0,sp,256
 9be:	0051                	c.nop	20
 9c0:	0000                	unimp
 9c2:	049d                	addi	s1,s1,7
 9c4:	a108                	.insn	2, 0xa108
 9c6:	0000                	unimp
 9c8:	0000                	unimp
 9ca:	020e                	slli	tp,tp,0x3
 9cc:	0000004b          	.insn	4, 0x004b
 9d0:	049d                	addi	s1,s1,7
 9d2:	a108                	.insn	2, 0xa108
 9d4:	0000                	unimp
 9d6:	0200                	addi	s0,sp,256
 9d8:	0051                	c.nop	20
 9da:	0000                	unimp
 9dc:	049d                	addi	s1,s1,7
 9de:	a108                	.insn	2, 0xa108
 9e0:	0000                	unimp
 9e2:	0000                	unimp
 9e4:	0600                	addi	s0,sp,768
 9e6:	000009f7          	.insn	4, 0x09f7
 9ea:	785f5f03          	lhu	t5,1925(t5)
 9ee:	a200                	.insn	2, 0xa200
 9f0:	0504                	addi	s1,sp,640
 9f2:	00a1                	addi	ra,ra,8
 9f4:	0000                	unimp
 9f6:	0e00                	addi	s0,sp,784
 9f8:	785f5f03          	lhu	t5,1925(t5)
 9fc:	aa00                	.insn	2, 0xaa00
 9fe:	0504                	addi	s1,sp,640
 a00:	00a1                	addi	ra,ra,8
 a02:	0000                	unimp
 a04:	0000                	unimp
 a06:	2200                	.insn	2, 0x2200
 a08:	b704                	.insn	2, 0xb704
 a0a:	0000                	unimp
 a0c:	0f00                	addi	s0,sp,912
 a0e:	02f0                	addi	a2,sp,332
 a10:	0000                	unimp
 a12:	02f0                	addi	a2,sp,332
 a14:	0000                	unimp
 a16:	0000210f          	.insn	4, 0x210f
 a1a:	2100                	.insn	2, 0x2100
 a1c:	0000                	unimp
 a1e:	0f00                	addi	s0,sp,912
 a20:	000000f3          	.insn	4, 0x00f3
 a24:	000000f3          	.insn	4, 0x00f3
 a28:	2d00                	.insn	2, 0x2d00
 a2a:	0000                	unimp
 a2c:	0500                	addi	s0,sp,640
 a2e:	0100                	addi	s0,sp,128
 a30:	db04                	sw	s1,48(a4)
 a32:	0001                	nop
 a34:	0100                	addi	s0,sp,128
 a36:	00000cc3          	.insn	4, 0x0cc3
 a3a:	04c0                	addi	s0,sp,580
 a3c:	0000                	unimp
 a3e:	1918                	addi	a4,sp,176
 a40:	0002                	c.slli64	zero
 a42:	4600                	lw	s0,8(a2)
 a44:	0002                	c.slli64	zero
 a46:	a800                	.insn	2, 0xa800
 a48:	0002                	c.slli64	zero
 a4a:	0100                	addi	s0,sp,128
 a4c:	0280                	addi	s0,sp,320
 a4e:	0021                	c.nop	8
 a50:	0000                	unimp
 a52:	0004c02f          	.insn	4, 0x0004c02f
 a56:	1400                	addi	s0,sp,544
 a58:	005a0003          	lb	zero,5(s4)
 a5c:	0000                	unimp
 a5e:	0005                	c.nop	1
 a60:	0401                	addi	s0,s0,0
 a62:	00000203          	lb	tp,0(zero) # 0 <_start>
 a66:	3d01                	jal	876 <__data_load_start+0xe>
 a68:	000d                	c.nop	3
 a6a:	d400                	sw	s0,40(s0)
 a6c:	0004                	.insn	2, 0x0004
 a6e:	8600                	.insn	2, 0x8600
 a70:	b401                	j	470 <__udivdi3+0x388>
 a72:	0002                	c.slli64	zero
 a74:	4600                	lw	s0,8(a2)
 a76:	0002                	c.slli64	zero
 a78:	a800                	.insn	2, 0xa800
 a7a:	0002                	c.slli64	zero
 a7c:	0100                	addi	s0,sp,128
 a7e:	0280                	addi	s0,sp,320
 a80:	02de                	slli	t0,t0,0x17
 a82:	0000                	unimp
 a84:	d45c                	sw	a5,44(s0)
 a86:	0004                	.insn	2, 0x0004
 a88:	5c00                	lw	s0,56(s0)
 a8a:	f002                	.insn	2, 0xf002
 a8c:	0002                	c.slli64	zero
 a8e:	5c00                	lw	s0,56(s0)
 a90:	04dc                	addi	a5,sp,580
 a92:	0000                	unimp
 a94:	022c                	addi	a1,sp,264
 a96:	000002e7          	jalr	t0,zero # 0 <_start>
 a9a:	dc5c                	sw	a5,60(s0)
 a9c:	0004                	.insn	2, 0x0004
 a9e:	2c00                	.insn	2, 0x2c00
 aa0:	f302                	.insn	2, 0xf302
 aa2:	0000                	unimp
 aa4:	5c00                	lw	s0,56(s0)
 aa6:	0508                	addi	a0,sp,640
 aa8:	0000                	unimp
 aaa:	0208                	addi	a0,sp,256
 aac:	02fa                	slli	t0,t0,0x1e
 aae:	0000                	unimp
 ab0:	2c5c                	.insn	2, 0x2c5c
 ab2:	0005                	c.nop	1
 ab4:	2400                	.insn	2, 0x2400
 ab6:	00ee0003          	lb	zero,14(t3)
 aba:	0000                	unimp
 abc:	0005                	c.nop	1
 abe:	0401                	addi	s0,s0,0
 ac0:	0000022b          	.insn	4, 0x022b
 ac4:	00030303          	lb	t1,0(t1)
 ac8:	1d00                	addi	s0,sp,688
 aca:	03164703          	lbu	a4,49(a2)
 ace:	0000                	unimp
 ad0:	0000                	unimp
 ad2:	2b00                	.insn	2, 0x2b00
 ad4:	0000                	unimp
 ad6:	9000                	.insn	2, 0x9000
 ad8:	000e                	c.slli	zero,0x3
 ada:	0400                	addi	s0,sp,512
 adc:	0504                	addi	s1,sp,640
 ade:	6e69                	lui	t3,0x1a
 ae0:	0074                	addi	a3,sp,12
 ae2:	0401                	addi	s0,s0,0
 ae4:	00006f07          	.insn	4, 0x6f07
 ae8:	0100                	addi	s0,sp,128
 aea:	0508                	addi	a0,sp,640
 aec:	00000057          	.insn	4, 0x0057
 af0:	1001                	c.nop	-32
 af2:	2c04                	.insn	2, 0x2c04
 af4:	0001                	nop
 af6:	0100                	addi	s0,sp,128
 af8:	0601                	addi	a2,a2,0
 afa:	009e                	slli	ra,ra,0x7
 afc:	0000                	unimp
 afe:	0101                	addi	sp,sp,0
 b00:	9c08                	.insn	2, 0x9c08
 b02:	0000                	unimp
 b04:	0100                	addi	s0,sp,128
 b06:	0502                	c.slli64	a0
 b08:	002a                	c.slli	zero,0xa
 b0a:	0000                	unimp
 b0c:	0201                	addi	tp,tp,0 # 0 <_start>
 b0e:	0000c607          	.insn	4, 0xc607
 b12:	0100                	addi	s0,sp,128
 b14:	0504                	addi	s1,sp,640
 b16:	005c                	addi	a5,sp,4
 b18:	0000                	unimp
 b1a:	0401                	addi	s0,s0,0
 b1c:	00006a07          	.insn	4, 0x6a07
 b20:	0100                	addi	s0,sp,128
 b22:	0708                	addi	a0,sp,896
 b24:	0065                	c.nop	25
 b26:	0000                	unimp
 b28:	0101                	addi	sp,sp,0
 b2a:	a508                	.insn	2, 0xa508
 b2c:	0000                	unimp
 b2e:	0100                	addi	s0,sp,128
 b30:	0201                	addi	tp,tp,0 # 0 <_start>
 b32:	00fd                	addi	ra,ra,31
 b34:	0000                	unimp
 b36:	be05                	j	666 <gpio_int_clear+0xe>
 b38:	0000                	unimp
 b3a:	0200                	addi	s0,sp,256
 b3c:	167e                	slli	a2,a2,0x3f
 b3e:	0046                	c.slli	zero,0x11
 b40:	0000                	unimp
 b42:	7e02                	.insn	2, 0x7e02
 b44:	0000                	unimp
 b46:	0100                	addi	s0,sp,128
 b48:	0402                	c.slli64	s0
 b4a:	00000093          	li	ra,0
 b4e:	0401                	addi	s0,s0,0
 b50:	00008b03          	lb	s6,0(ra)
 b54:	0100                	addi	s0,sp,128
 b56:	0404                	addi	s1,sp,512
 b58:	0000001b          	.insn	4, 0x001b
 b5c:	0801                	addi	a6,a6,0
 b5e:	00001303          	lh	t1,0(zero) # 0 <_start>
 b62:	0100                	addi	s0,sp,128
 b64:	0408                	addi	a0,sp,512
 b66:	0131                	addi	sp,sp,12
 b68:	0000                	unimp
 b6a:	1001                	c.nop	-32
 b6c:	00010303          	lb	t1,0(sp)
 b70:	0100                	addi	s0,sp,128
 b72:	0320                	addi	s0,sp,392
 b74:	0124                	addi	s1,sp,136
 b76:	0000                	unimp
 b78:	8a06                	mv	s4,ra
 b7a:	0000                	unimp
 b7c:	d000                	sw	s0,32(s0)
 b7e:	0000                	unimp
 b80:	0700                	addi	s0,sp,896
 b82:	002a                	c.slli	zero,0xa
 b84:	0000                	unimp
 b86:	00ff c002 0000 0800 	.insn	10, 0x008108000000c00200ff
 b8e:	0081 
 b90:	0000                	unimp
 b92:	1a02                	slli	s4,s4,0x20
 b94:	1602                	slli	a2,a2,0x20
 b96:	00d0                	addi	a2,sp,68
 b98:	0000                	unimp
 b9a:	d509                	beqz	a0,aa4 <__data_load_start+0x23c>
 b9c:	0000                	unimp
 b9e:	0100                	addi	s0,sp,128
 ba0:	029e                	slli	t0,t0,0x7
 ba2:	6803050f          	.insn	4, 0x6803050f
 ba6:	00000007          	.insn	4, 0x0007

Disassembly of section .debug_abbrev:

00000000 <.debug_abbrev>:
   0:	3401                	jal	fffffa00 <__stack_top+0xfe7ffa00>
   2:	3100                	.insn	2, 0x3100
   4:	b7170213          	addi	tp,a4,-1167 # b1ed <__data_load_start+0xa985>
   8:	1742                	slli	a4,a4,0x30
   a:	0000                	unimp
   c:	3402                	.insn	2, 0x3402
   e:	0300                	addi	s0,sp,384
  10:	3a0e                	.insn	2, 0x3a0e
  12:	0121                	addi	sp,sp,8
  14:	0b39053b          	.insn	4, 0x0b39053b
  18:	1349                	addi	t1,t1,-14
  1a:	0000                	unimp
  1c:	03003403          	.insn	4, 0x03003403
  20:	3a08                	.insn	2, 0x3a08
  22:	0121                	addi	sp,sp,8
  24:	0b39053b          	.insn	4, 0x0b39053b
  28:	1349                	addi	t1,t1,-14
  2a:	0000                	unimp
  2c:	4804                	lw	s1,16(s0)
  2e:	7d00                	.insn	2, 0x7d00
  30:	7f01                	lui	t5,0xfffe0
  32:	05000013          	li	zero,80
  36:	0024                	addi	s1,sp,8
  38:	0b3e0b0b          	.insn	4, 0x0b3e0b0b
  3c:	00000e03          	lb	t3,0(zero) # 0 <_start>
  40:	0b06                	slli	s6,s6,0x1
  42:	0101                	addi	sp,sp,0
  44:	07000013          	li	zero,112
  48:	0034                	addi	a3,sp,8
  4a:	1331                	addi	t1,t1,-20
  4c:	1802                	slli	a6,a6,0x20
  4e:	0000                	unimp
  50:	0b08                	addi	a0,sp,400
  52:	3101                	jal	fffffc52 <__stack_top+0xfe7ffc52>
  54:	01175513          	srli	a0,a4,0x11
  58:	09000013          	li	zero,144
  5c:	0016                	c.slli	zero,0x5
  5e:	213a0e03          	lb	t3,531(s4)
  62:	3b02                	.insn	2, 0x3b02
  64:	490b390b          	.insn	4, 0x490b390b
  68:	0a000013          	li	zero,160
  6c:	0034                	addi	a3,sp,8
  6e:	1331                	addi	t1,t1,-20
  70:	0000                	unimp
  72:	4900260b          	.insn	4, 0x4900260b
  76:	0c000013          	li	zero,192
  7a:	0005                	c.nop	1
  7c:	1331                	addi	t1,t1,-20
  7e:	1702                	slli	a4,a4,0x20
  80:	001742b7          	lui	t0,0x174
  84:	0d00                	addi	s0,sp,656
  86:	0005                	c.nop	1
  88:	213a0803          	lb	a6,531(s4)
  8c:	3b01                	jal	fffffd9c <__stack_top+0xfe7ffd9c>
  8e:	e321                	bnez	a4,ce <trap_entry+0x6e>
  90:	490b3907          	.insn	4, 0x490b3907
  94:	0e000013          	li	zero,224
  98:	0000010b          	.insn	4, 0x010b
  9c:	3f002e0f          	.insn	4, 0x3f002e0f
  a0:	3c19                	jal	fffffab6 <__stack_top+0xfe7ffab6>
  a2:	6e19                	lui	t3,0x6
  a4:	030e                	slli	t1,t1,0x3
  a6:	000e                	c.slli	zero,0x3
  a8:	1000                	addi	s0,sp,32
  aa:	000d                	c.nop	3
  ac:	213a0803          	lb	a6,531(s4)
  b0:	3b02                	.insn	2, 0x3b02
  b2:	3905                	jal	fffffce2 <__stack_top+0xfe7ffce2>
  b4:	0013490b          	.insn	4, 0x0013490b
  b8:	1100                	addi	s0,sp,160
  ba:	0005                	c.nop	1
  bc:	213a0803          	lb	a6,531(s4)
  c0:	3b01                	jal	fffffdd0 <__stack_top+0xfe7ffdd0>
  c2:	9221                	srli	a2,a2,0x28
  c4:	390a                	.insn	2, 0x390a
  c6:	0213490b          	.insn	4, 0x0213490b
  ca:	1742b717          	auipc	a4,0x1742b
  ce:	0000                	unimp
  d0:	0b12                	slli	s6,s6,0x4
  d2:	3101                	jal	fffffcd2 <__stack_top+0xfe7ffcd2>
  d4:	00175513          	srli	a0,a4,0x1
  d8:	1300                	addi	s0,sp,416
  da:	1331010b          	.insn	4, 0x1331010b
  de:	0111                	addi	sp,sp,4
  e0:	0612                	slli	a2,a2,0x4
  e2:	1301                	addi	t1,t1,-32
  e4:	0000                	unimp
  e6:	1114                	addi	a3,sp,160
  e8:	2501                	jal	6e8 <irq_init+0x4e>
  ea:	130e                	slli	t1,t1,0x23
  ec:	0b01900b          	.insn	4, 0x0b01900b
  f0:	0191                	addi	gp,gp,4 # 1000804 <__global_pointer$+0x4>
  f2:	0306                	slli	t1,t1,0x1
  f4:	1b1f 111f 1201      	.insn	6, 0x1201111f1b1f
  fa:	1006                	c.slli	zero,0x21
  fc:	15000017          	auipc	zero,0x15000
 100:	0024                	addi	s1,sp,8
 102:	0b3e0b0b          	.insn	4, 0x0b3e0b0b
 106:	00000803          	lb	a6,0(zero) # 0 <_start>
 10a:	1316                	slli	t1,t1,0x25
 10c:	0301                	addi	t1,t1,0
 10e:	0b0e                	slli	s6,s6,0x3
 110:	3b0b3a0b          	.insn	4, 0x3b0b3a0b
 114:	3905                	jal	fffffd44 <__stack_top+0xfe7ffd44>
 116:	0013010b          	.insn	4, 0x0013010b
 11a:	1700                	addi	s0,sp,928
 11c:	000d                	c.nop	3
 11e:	0b3a0803          	lb	a6,179(s4)
 122:	0b39053b          	.insn	4, 0x0b39053b
 126:	1349                	addi	t1,t1,-14
 128:	0b38                	addi	a4,sp,408
 12a:	0000                	unimp
 12c:	0d18                	addi	a4,sp,656
 12e:	0300                	addi	s0,sp,384
 130:	3a0e                	.insn	2, 0x3a0e
 132:	39053b0b          	.insn	4, 0x39053b0b
 136:	3813490b          	.insn	4, 0x3813490b
 13a:	1900000b          	.insn	4, 0x1900000b
 13e:	0b0b0117          	auipc	sp,0xb0b0
 142:	0b3a                	slli	s6,s6,0xe
 144:	0b39053b          	.insn	4, 0x0b39053b
 148:	1301                	addi	t1,t1,-32
 14a:	0000                	unimp
 14c:	161a                	slli	a2,a2,0x26
 14e:	0300                	addi	s0,sp,384
 150:	3a0e                	.insn	2, 0x3a0e
 152:	39053b0b          	.insn	4, 0x39053b0b
 156:	0013490b          	.insn	4, 0x0013490b
 15a:	1b00                	addi	s0,sp,432
 15c:	0101                	addi	sp,sp,0 # b0b013e <__stack_top+0x98b013e>
 15e:	1349                	addi	t1,t1,-14
 160:	1301                	addi	t1,t1,-32
 162:	0000                	unimp
 164:	211c                	.insn	2, 0x211c
 166:	4900                	lw	s0,16(a0)
 168:	000b2f13          	slti	t5,s6,0
 16c:	1d00                	addi	s0,sp,688
 16e:	0034                	addi	a3,sp,8
 170:	0b3a0e03          	lb	t3,179(s4)
 174:	0b39053b          	.insn	4, 0x0b39053b
 178:	1349                	addi	t1,t1,-14
 17a:	193c193f 2e1e0000 	.insn	8, 0x2e1e0000193c193f
 182:	3f01                	jal	92 <trap_entry+0x32>
 184:	0319                	addi	t1,t1,6
 186:	3a0e                	.insn	2, 0x3a0e
 188:	39053b0b          	.insn	4, 0x39053b0b
 18c:	4919270b          	.insn	4, 0x4919270b
 190:	12011113          	.insn	4, 0x12011113
 194:	4006                	.insn	2, 0x4006
 196:	7a18                	.insn	2, 0x7a18
 198:	0119                	addi	sp,sp,6
 19a:	1f000013          	li	zero,496
 19e:	011d                	addi	sp,sp,7
 1a0:	1331                	addi	t1,t1,-20
 1a2:	0152                	slli	sp,sp,0x14
 1a4:	42b8                	lw	a4,64(a3)
 1a6:	5817550b          	.insn	4, 0x5817550b
 1aa:	5705590b          	.insn	4, 0x5705590b
 1ae:	2000000b          	.insn	4, 0x2000000b
 1b2:	1331010b          	.insn	4, 0x1331010b
 1b6:	0111                	addi	sp,sp,4
 1b8:	0612                	slli	a2,a2,0x4
 1ba:	0000                	unimp
 1bc:	2e21                	jal	4d4 <__divsi3>
 1be:	0301                	addi	t1,t1,0
 1c0:	3a0e                	.insn	2, 0x3a0e
 1c2:	39053b0b          	.insn	4, 0x39053b0b
 1c6:	4919270b          	.insn	4, 0x4919270b
 1ca:	010b2013          	slti	zero,s6,16
 1ce:	22000013          	li	zero,544
 1d2:	0b0b000f          	.insn	4, 0x0b0b000f
 1d6:	1349                	addi	t1,t1,-14
 1d8:	0000                	unimp
 1da:	0100                	addi	s0,sp,128
 1dc:	0111                	addi	sp,sp,4
 1de:	1710                	addi	a2,sp,928
 1e0:	0111                	addi	sp,sp,4
 1e2:	0f12                	slli	t5,t5,0x4
 1e4:	0e1b0e03          	lb	t3,225(s6)
 1e8:	0e25                	addi	t3,t3,9 # 6009 <__data_load_start+0x57a1>
 1ea:	00000513          	li	a0,0
 1ee:	2e02                	.insn	2, 0x2e02
 1f0:	0300                	addi	s0,sp,384
 1f2:	3f0e                	.insn	2, 0x3f0e
 1f4:	4919                	li	s2,6
 1f6:	1115                	addi	sp,sp,-27
 1f8:	1201                	addi	tp,tp,-32 # ffffffe0 <__stack_top+0xfe7fffe0>
 1fa:	0300000f          	fence	rw,unknown
 1fe:	0000003b          	.insn	4, 0x003b
 202:	0100                	addi	s0,sp,128
 204:	0111                	addi	sp,sp,4
 206:	1710                	addi	a2,sp,928
 208:	0111                	addi	sp,sp,4
 20a:	0f12                	slli	t5,t5,0x4
 20c:	0e1b0e03          	lb	t3,225(s6)
 210:	0e25                	addi	t3,t3,9
 212:	00000513          	li	a0,0
 216:	2e02                	.insn	2, 0x2e02
 218:	0300                	addi	s0,sp,384
 21a:	3f0e                	.insn	2, 0x3f0e
 21c:	4919                	li	s2,6
 21e:	1115                	addi	sp,sp,-27
 220:	1201                	addi	tp,tp,-32 # ffffffe0 <__stack_top+0xfe7fffe0>
 222:	0300000f          	fence	rw,unknown
 226:	0000003b          	.insn	4, 0x003b
 22a:	0100                	addi	s0,sp,128
 22c:	0024                	addi	s1,sp,8
 22e:	0b3e0b0b          	.insn	4, 0x0b3e0b0b
 232:	00000e03          	lb	t3,0(zero) # 0 <_start>
 236:	2602                	.insn	2, 0x2602
 238:	4900                	lw	s0,16(a0)
 23a:	03000013          	li	zero,48
 23e:	0111                	addi	sp,sp,4
 240:	0e25                	addi	t3,t3,9
 242:	01900b13          	li	s6,25
 246:	0601910b          	.insn	4, 0x0601910b
 24a:	1f1b1f03          	lh	t5,497(s6)
 24e:	1710                	addi	a2,sp,928
 250:	0000                	unimp
 252:	2404                	.insn	2, 0x2404
 254:	0b00                	addi	s0,sp,400
 256:	030b3e0b          	.insn	4, 0x030b3e0b
 25a:	0008                	.insn	2, 0x0008
 25c:	0500                	addi	s0,sp,640
 25e:	0016                	c.slli	zero,0x5
 260:	0b3a0e03          	lb	t3,179(s4)
 264:	0b390b3b          	.insn	4, 0x0b390b3b
 268:	1349                	addi	t1,t1,-14
 26a:	0000                	unimp
 26c:	0106                	slli	sp,sp,0x1
 26e:	4901                	li	s2,0
 270:	00130113          	addi	sp,t1,1
 274:	0700                	addi	s0,sp,896
 276:	0021                	c.nop	8
 278:	1349                	addi	t1,t1,-14
 27a:	00000b2f          	.insn	4, 0x0b2f
 27e:	3408                	.insn	2, 0x3408
 280:	0300                	addi	s0,sp,384
 282:	3a0e                	.insn	2, 0x3a0e
 284:	39053b0b          	.insn	4, 0x39053b0b
 288:	3f13490b          	.insn	4, 0x3f13490b
 28c:	3c19                	jal	fffffca2 <__stack_top+0xfe7ffca2>
 28e:	0019                	c.nop	6
 290:	0900                	addi	s0,sp,144
 292:	0034                	addi	a3,sp,8
 294:	0b3a1347          	.insn	4, 0x0b3a1347
 298:	0b39053b          	.insn	4, 0x0b39053b
 29c:	1802                	slli	a6,a6,0x20
 29e:	0000                	unimp
	...

Disassembly of section .debug_loclists:

00000000 <.debug_loclists>:
   0:	0ddf 0000 0005      	.insn	6, 0x000500000ddf
   6:	0004                	.insn	2, 0x0004
   8:	0000                	unimp
   a:	0000                	unimp
   c:	3000                	.insn	2, 0x3000
   e:	5c30                	lw	a2,120(s0)
  10:	605c                	.insn	2, 0x605c
  12:	6660                	.insn	2, 0x6660
  14:	7a66                	.insn	2, 0x7a66
  16:	a57a                	.insn	2, 0xa57a
  18:	a501                	j	618 <gpio_toggle_pin+0x4>
  1a:	b701                	j	ffffff1a <__stack_top+0xfe7fff1a>
  1c:	b701                	j	ffffff1c <__stack_top+0xfe7fff1c>
  1e:	ef01                	bnez	a4,36 <_start+0x36>
  20:	ef01                	bnez	a4,38 <_start+0x38>
  22:	f901                	bnez	a0,ffffff32 <__stack_top+0xfe7fff32>
  24:	f901                	bnez	a0,ffffff34 <__stack_top+0xfe7fff34>
  26:	8601                	c.srai64	a2
  28:	8602                	jr	a2
  2a:	8b02                	jr	s6
  2c:	8b02                	jr	s6
  2e:	8c02                	jr	s8
  30:	00038c03          	lb	s8,0(t2)
  34:	0004                	.insn	2, 0x0004
  36:	0676                	slli	a2,a2,0x1d
  38:	935a                	add	t1,t1,s6
  3a:	5b04                	lw	s1,48(a4)
  3c:	76040493          	addi	s1,s0,1888
  40:	01fc                	addi	a5,sp,204
  42:	a306                	.insn	2, 0xa306
  44:	2b0aa503          	lw	a0,688(s5)
  48:	049f 01fc 028a      	.insn	6, 0x028a01fc049f
  4e:	5a06                	lw	s4,96(sp)
  50:	935b0493          	addi	s1,s6,-1739
  54:	0404                	addi	s1,sp,512
  56:	028a                	slli	t0,t0,0x2
  58:	0294                	addi	a3,sp,320
  5a:	a306                	.insn	2, 0xa306
  5c:	2b0aa503          	lw	a0,688(s5)
  60:	049f 0294 02c2      	.insn	6, 0x02c20294049f
  66:	5a06                	lw	s4,96(sp)
  68:	935b0493          	addi	s1,s6,-1739
  6c:	0404                	addi	s1,sp,512
  6e:	02c2                	slli	t0,t0,0x10
  70:	03b8                	addi	a4,sp,456
  72:	a306                	.insn	2, 0xa306
  74:	2b0aa503          	lw	a0,688(s5)
  78:	049f 03b8 03e8      	.insn	6, 0x03e803b8049f
  7e:	5a06                	lw	s4,96(sp)
  80:	935b0493          	addi	s1,s6,-1739
  84:	0404                	addi	s1,sp,512
  86:	03e8                	addi	a0,sp,460
  88:	04f0                	addi	a2,sp,588
  8a:	a306                	.insn	2, 0xa306
  8c:	2b0aa503          	lw	a0,688(s5)
  90:	049f 04f0 058a      	.insn	6, 0x058a04f0049f
  96:	5a06                	lw	s4,96(sp)
  98:	935b0493          	addi	s1,s6,-1739
  9c:	0404                	addi	s1,sp,512
  9e:	058a                	slli	a1,a1,0x2
  a0:	05b0                	addi	a2,sp,712
  a2:	a306                	.insn	2, 0xa306
  a4:	2b0aa503          	lw	a0,688(s5)
  a8:	049f 05b0 05be      	.insn	6, 0x05be05b0049f
  ae:	5a06                	lw	s4,96(sp)
  b0:	935b0493          	addi	s1,s6,-1739
  b4:	0404                	addi	s1,sp,512
  b6:	05be                	slli	a1,a1,0xf
  b8:	07d0                	addi	a2,sp,964
  ba:	a306                	.insn	2, 0xa306
  bc:	2b0aa503          	lw	a0,688(s5)
  c0:	049f 07d0 07d6      	.insn	6, 0x07d607d0049f
  c6:	5a06                	lw	s4,96(sp)
  c8:	935b0493          	addi	s1,s6,-1739
  cc:	0004                	.insn	2, 0x0004
  ce:	3100                	.insn	2, 0x3100
  d0:	5c31                	li	s8,-20
  d2:	605c                	.insn	2, 0x605c
  d4:	6660                	.insn	2, 0x6660
  d6:	7a66                	.insn	2, 0x7a66
  d8:	a57a                	.insn	2, 0xa57a
  da:	a501                	j	6da <irq_init+0x40>
  dc:	c001                	beqz	s0,dc <trap_entry+0x7c>
  de:	c001                	beqz	s0,de <trap_entry+0x7e>
  e0:	ef01                	bnez	a4,f8 <__udivdi3+0x10>
  e2:	ef01                	bnez	a4,fa <__udivdi3+0x12>
  e4:	8501                	c.srai64	a0
  e6:	8502                	jr	a0
  e8:	8602                	jr	a2
  ea:	8602                	jr	a2
  ec:	a502                	.insn	2, 0xa502
  ee:	a502                	.insn	2, 0xa502
  f0:	8c02                	jr	s8
  f2:	00038c03          	lb	s8,0(t2)
  f6:	0004                	.insn	2, 0x0004
  f8:	935c0677          	.insn	4, 0x935c0677
  fc:	5d04                	lw	s1,56(a0)
  fe:	77040493          	addi	s1,s0,1904
 102:	01fc                	addi	a5,sp,204
 104:	a306                	.insn	2, 0xa306
 106:	2b0ca503          	lw	a0,688(s9)
 10a:	049f 01fc 028a      	.insn	6, 0x028a01fc049f
 110:	5c06                	lw	s8,96(sp)
 112:	935d0493          	addi	s1,s10,-1739
 116:	0404                	addi	s1,sp,512
 118:	028a                	slli	t0,t0,0x2
 11a:	0294                	addi	a3,sp,320
 11c:	a306                	.insn	2, 0xa306
 11e:	2b0ca503          	lw	a0,688(s9)
 122:	049f 0294 02c2      	.insn	6, 0x02c20294049f
 128:	5c06                	lw	s8,96(sp)
 12a:	935d0493          	addi	s1,s10,-1739
 12e:	0404                	addi	s1,sp,512
 130:	02c2                	slli	t0,t0,0x10
 132:	03b8                	addi	a4,sp,456
 134:	a306                	.insn	2, 0xa306
 136:	2b0ca503          	lw	a0,688(s9)
 13a:	049f 03b8 03f1      	.insn	6, 0x03f103b8049f
 140:	5c06                	lw	s8,96(sp)
 142:	935d0493          	addi	s1,s10,-1739
 146:	0404                	addi	s1,sp,512
 148:	03f1                	addi	t2,t2,28
 14a:	04f0                	addi	a2,sp,588
 14c:	a306                	.insn	2, 0xa306
 14e:	2b0ca503          	lw	a0,688(s9)
 152:	049f 04f0 05ac      	.insn	6, 0x05ac04f0049f
 158:	5c06                	lw	s8,96(sp)
 15a:	935d0493          	addi	s1,s10,-1739
 15e:	0404                	addi	s1,sp,512
 160:	05ac                	addi	a1,sp,712
 162:	05b0                	addi	a2,sp,712
 164:	a306                	.insn	2, 0xa306
 166:	2b0ca503          	lw	a0,688(s9)
 16a:	049f 05b0 05f3      	.insn	6, 0x05f305b0049f
 170:	5c06                	lw	s8,96(sp)
 172:	935d0493          	addi	s1,s10,-1739
 176:	0404                	addi	s1,sp,512
 178:	07d005f3          	.insn	4, 0x07d005f3
 17c:	a306                	.insn	2, 0xa306
 17e:	2b0ca503          	lw	a0,688(s9)
 182:	049f 07d0 07d6      	.insn	6, 0x07d607d0049f
 188:	5c06                	lw	s8,96(sp)
 18a:	935d0493          	addi	s1,s10,-1739
 18e:	0004                	.insn	2, 0x0004
 190:	2f02                	.insn	2, 0x2f02
 192:	605c                	.insn	2, 0x605c
 194:	7a66                	.insn	2, 0x7a66
 196:	01a5                	addi	gp,gp,9 # 1000809 <__global_pointer$+0x9>
 198:	01ef01b3          	add	gp,t5,t5
 19c:	01f9                	addi	gp,gp,30 # 100081e <__global_pointer$+0x1e>
 19e:	01f9                	addi	gp,gp,30 # 100081e <__global_pointer$+0x1e>
 1a0:	0285                	addi	t0,t0,1 # 174001 <__data_load_start+0x173799>
 1a2:	0286                	slli	t0,t0,0x1
 1a4:	028b028b          	.insn	4, 0x028b028b
 1a8:	038c0297          	auipc	t0,0x38c0
 1ac:	0400                	addi	s0,sp,512
 1ae:	7000                	.insn	2, 0x7000
 1b0:	5a06                	lw	s4,96(sp)
 1b2:	935b0493          	addi	s1,s6,-1739
 1b6:	0404                	addi	s1,sp,512
 1b8:	01fc                	addi	a5,sp,204
 1ba:	028a                	slli	t0,t0,0x2
 1bc:	5906                	lw	s2,96(sp)
 1be:	935b0493          	addi	s1,s6,-1739
 1c2:	0404                	addi	s1,sp,512
 1c4:	0294                	addi	a3,sp,320
 1c6:	02c2                	slli	t0,t0,0x10
 1c8:	5906                	lw	s2,96(sp)
 1ca:	935b0493          	addi	s1,s6,-1739
 1ce:	0404                	addi	s1,sp,512
 1d0:	03b8                	addi	a4,sp,456
 1d2:	03d8                	addi	a4,sp,452
 1d4:	5906                	lw	s2,96(sp)
 1d6:	935b0493          	addi	s1,s6,-1739
 1da:	0404                	addi	s1,sp,512
 1dc:	04f0                	addi	a2,sp,588
 1de:	058a                	slli	a1,a1,0x2
 1e0:	5a06                	lw	s4,96(sp)
 1e2:	935b0493          	addi	s1,s6,-1739
 1e6:	0404                	addi	s1,sp,512
 1e8:	058a                	slli	a1,a1,0x2
 1ea:	05ac                	addi	a1,sp,712
 1ec:	6506                	.insn	2, 0x6506
 1ee:	935b0493          	addi	s1,s6,-1739
 1f2:	0404                	addi	s1,sp,512
 1f4:	05b0                	addi	a2,sp,712
 1f6:	05be                	slli	a1,a1,0xf
 1f8:	5a06                	lw	s4,96(sp)
 1fa:	935b0493          	addi	s1,s6,-1739
 1fe:	0404                	addi	s1,sp,512
 200:	05be                	slli	a1,a1,0xf
 202:	05de                	slli	a1,a1,0x17
 204:	6506                	.insn	2, 0x6506
 206:	935b0493          	addi	s1,s6,-1739
 20a:	0404                	addi	s1,sp,512
 20c:	07d0                	addi	a2,sp,964
 20e:	07d6                	slli	a5,a5,0x15
 210:	5a06                	lw	s4,96(sp)
 212:	935b0493          	addi	s1,s6,-1739
 216:	0004                	.insn	2, 0x0004
 218:	1a02                	slli	s4,s4,0x20
 21a:	311a                	.insn	2, 0x311a
 21c:	5d5c                	lw	a5,60(a0)
 21e:	605d                	c.lui	zero,0x17
 220:	7066                	.insn	2, 0x7066
 222:	01a5                	addi	gp,gp,9 # 1000809 <__global_pointer$+0x9>
 224:	01ef01a7          	.insn	4, 0x01ef01a7
 228:	0284                	addi	s1,sp,320
 22a:	0286                	slli	t0,t0,0x1
 22c:	0291                	addi	t0,t0,4 # 38c01ac <__stack_top+0x20c01ac>
 22e:	038c                	addi	a1,sp,448
 230:	0400                	addi	s0,sp,512
 232:	4000                	lw	s0,0(s0)
 234:	5c06                	lw	s8,96(sp)
 236:	935d0493          	addi	s1,s10,-1739
 23a:	0404                	addi	s1,sp,512
 23c:	7740                	.insn	2, 0x7740
 23e:	5c06                	lw	s8,96(sp)
 240:	93640493          	addi	s1,s0,-1738
 244:	0404                	addi	s1,sp,512
 246:	01fc                	addi	a5,sp,204
 248:	0280                	addi	s0,sp,320
 24a:	5c06                	lw	s8,96(sp)
 24c:	935d0493          	addi	s1,s10,-1739
 250:	0404                	addi	s1,sp,512
 252:	0280                	addi	s0,sp,320
 254:	028a                	slli	t0,t0,0x2
 256:	5c06                	lw	s8,96(sp)
 258:	93640493          	addi	s1,s0,-1738
 25c:	0404                	addi	s1,sp,512
 25e:	0294                	addi	a3,sp,320
 260:	02a8                	addi	a0,sp,328
 262:	5c06                	lw	s8,96(sp)
 264:	935d0493          	addi	s1,s10,-1739
 268:	0404                	addi	s1,sp,512
 26a:	03b8                	addi	a4,sp,456
 26c:	03bc                	addi	a5,sp,456
 26e:	5c06                	lw	s8,96(sp)
 270:	935d0493          	addi	s1,s10,-1739
 274:	0404                	addi	s1,sp,512
 276:	04f0                	addi	a2,sp,588
 278:	05aa                	slli	a1,a1,0xa
 27a:	5c06                	lw	s8,96(sp)
 27c:	935d0493          	addi	s1,s10,-1739
 280:	0404                	addi	s1,sp,512
 282:	05b0                	addi	a2,sp,712
 284:	05ca                	slli	a1,a1,0x12
 286:	5c06                	lw	s8,96(sp)
 288:	935d0493          	addi	s1,s10,-1739
 28c:	0404                	addi	s1,sp,512
 28e:	07d0                	addi	a2,sp,964
 290:	07d6                	slli	a5,a5,0x15
 292:	5c06                	lw	s8,96(sp)
 294:	935d0493          	addi	s1,s10,-1739
 298:	0004                	.insn	2, 0x0004
 29a:	5a02                	lw	s4,32(sp)
 29c:	005c                	addi	a5,sp,4
 29e:	0004                	.insn	2, 0x0004
 2a0:	01de                	slli	gp,gp,0x17
 2a2:	3002                	.insn	2, 0x3002
 2a4:	049f 01fc 07d6      	.insn	6, 0x07d601fc049f
 2aa:	3002                	.insn	2, 0x3002
 2ac:	009f 230a 2623      	.insn	6, 0x2623230a009f
 2b2:	5826                	lw	a6,104(sp)
 2b4:	605c                	.insn	2, 0x605c
 2b6:	6660                	.insn	2, 0x6660
 2b8:	6f66                	.insn	2, 0x6f66
 2ba:	a57a                	.insn	2, 0xa57a
 2bc:	a501                	j	8bc <__data_load_start+0x54>
 2be:	aa01                	j	3ce <__udivdi3+0x2e6>
 2c0:	ae01                	j	5d0 <gpio_set_direction+0x12>
 2c2:	ef01                	bnez	a4,2da <__udivdi3+0x1f2>
 2c4:	ef01                	bnez	a4,2dc <__udivdi3+0x1f4>
 2c6:	8501                	c.srai64	a0
 2c8:	8602                	jr	a2
 2ca:	9b02                	jalr	s6
 2cc:	9b02                	jalr	s6
 2ce:	8c02                	jr	s8
 2d0:	00038c03          	lb	s8,0(t2)
 2d4:	0004                	.insn	2, 0x0004
 2d6:	0156                	slli	sp,sp,0x15
 2d8:	045c                	addi	a5,sp,516
 2da:	6256                	.insn	2, 0x6256
 2dc:	7c09                	lui	s8,0xfffe2
 2de:	7e00                	.insn	2, 0x7e00
 2e0:	0800                	addi	s0,sp,16
 2e2:	9f241aff 01de6204 	.insn	12, 0xfc04630101de62049f241aff
 2ea:	fc046301 
 2ee:	8a01                	andi	a2,a2,0
 2f0:	0102                	c.slli64	sp
 2f2:	045c                	addi	a5,sp,516
 2f4:	028a                	slli	t0,t0,0x2
 2f6:	0294                	addi	a3,sp,320
 2f8:	6301                	.insn	2, 0x6301
 2fa:	9404                	.insn	2, 0x9404
 2fc:	9e02                	jalr	t3
 2fe:	0102                	c.slli64	sp
 300:	045c                	addi	a5,sp,516
 302:	02c2                	slli	t0,t0,0x10
 304:	03b8                	addi	a4,sp,456
 306:	6301                	.insn	2, 0x6301
 308:	b804                	.insn	2, 0xb804
 30a:	0103c603          	lbu	a2,16(t2)
 30e:	045c                	addi	a5,sp,516
 310:	03cc                	addi	a1,sp,452
 312:	04f0                	addi	a2,sp,588
 314:	6301                	.insn	2, 0x6301
 316:	f004                	.insn	2, 0xf004
 318:	ac04                	.insn	2, 0xac04
 31a:	0105                	addi	sp,sp,1
 31c:	045c                	addi	a5,sp,516
 31e:	05b0                	addi	a2,sp,712
 320:	05ee                	slli	a1,a1,0x1b
 322:	5c01                	li	s8,-32
 324:	ee04                	.insn	2, 0xee04
 326:	d005                	beqz	s0,246 <__udivdi3+0x15e>
 328:	04630107          	.insn	4, 0x04630107
 32c:	07d0                	addi	a2,sp,964
 32e:	07d6                	slli	a5,a5,0x15
 330:	5c01                	li	s8,-32
 332:	0b00                	addi	s0,sp,400
 334:	1a1a                	slli	s4,s4,0x26
 336:	5c58                	lw	a4,60(s0)
 338:	5d5d                	li	s10,-9
 33a:	6666                	.insn	2, 0x6666
 33c:	a570                	.insn	2, 0xa570
 33e:	a701                	j	a3e <__data_load_start+0x1d6>
 340:	ef01                	bnez	a4,358 <__udivdi3+0x270>
 342:	8401                	c.srai64	s0
 344:	8602                	jr	a2
 346:	9102                	jalr	sp
 348:	9202                	jalr	tp
 34a:	8c02                	jr	s8
 34c:	00038c03          	lb	s8,0(t2)
 350:	0004                	.insn	2, 0x0004
 352:	0140                	addi	s0,sp,132
 354:	045d                	addi	s0,s0,23
 356:	de40                	sw	s0,60(a2)
 358:	0101                	addi	sp,sp,0
 35a:	0464                	addi	s1,sp,524
 35c:	01fc                	addi	a5,sp,204
 35e:	0280                	addi	s0,sp,320
 360:	5d01                	li	s10,-32
 362:	8004                	.insn	2, 0x8004
 364:	9402                	jalr	s0
 366:	0102                	c.slli64	sp
 368:	0464                	addi	s1,sp,524
 36a:	0294                	addi	a3,sp,320
 36c:	02a8                	addi	a0,sp,328
 36e:	5d01                	li	s10,-32
 370:	b804                	.insn	2, 0xb804
 372:	0103bc03          	.insn	4, 0x0103bc03
 376:	045d                	addi	s0,s0,23
 378:	04f0                	addi	a2,sp,588
 37a:	05aa                	slli	a1,a1,0xa
 37c:	5d01                	li	s10,-32
 37e:	b004                	.insn	2, 0xb004
 380:	ca05                	beqz	a2,3b0 <__udivdi3+0x2c8>
 382:	0105                	addi	sp,sp,1
 384:	045d                	addi	s0,s0,23
 386:	05ce                	slli	a1,a1,0x13
 388:	07d0                	addi	a2,sp,964
 38a:	6701                	.insn	2, 0x6701
 38c:	d004                	sw	s1,32(s0)
 38e:	0107d607          	.insn	4, 0x0107d607
 392:	005d                	c.nop	23
 394:	2a0c                	.insn	2, 0x2a0c
 396:	492a                	lw	s2,136(sp)
 398:	645c                	.insn	2, 0x645c
 39a:	9866                	add	a6,a6,s9
 39c:	a501                	j	99c <__data_load_start+0x134>
 39e:	ed01                	bnez	a0,3b6 <__udivdi3+0x2ce>
 3a0:	ef01                	bnez	a4,3b8 <__udivdi3+0x2d0>
 3a2:	f901                	bnez	a0,2b2 <__udivdi3+0x1ca>
 3a4:	f901                	bnez	a0,2b4 <__udivdi3+0x1cc>
 3a6:	8501                	c.srai64	a0
 3a8:	8602                	jr	a2
 3aa:	8b02                	jr	s6
 3ac:	8b02                	jr	s6
 3ae:	9e02                	jalr	t3
 3b0:	8c02                	jr	s8
 3b2:	00040003          	lb	zero,0(s0)
 3b6:	016a                	slli	sp,sp,0x1a
 3b8:	045a                	slli	s0,s0,0x16
 3ba:	c06a                	sw	s10,0(sp)
 3bc:	0101                	addi	sp,sp,0
 3be:	0459                	addi	s0,s0,22
 3c0:	01fc                	addi	a5,sp,204
 3c2:	0290                	addi	a2,sp,320
 3c4:	5901                	li	s2,-32
 3c6:	9404                	.insn	2, 0x9404
 3c8:	9802                	jalr	a6
 3ca:	04590103          	lb	sp,69(s2) # 1045 <__data_load_start+0x7dd>
 3ce:	03b8                	addi	a4,sp,456
 3d0:	04ec                	addi	a1,sp,588
 3d2:	5901                	li	s2,-32
 3d4:	f004                	.insn	2, 0xf004
 3d6:	8a04                	.insn	2, 0x8a04
 3d8:	0105                	addi	sp,sp,1
 3da:	045a                	slli	s0,s0,0x16
 3dc:	058a                	slli	a1,a1,0x2
 3de:	05ac                	addi	a1,sp,712
 3e0:	6501                	.insn	2, 0x6501
 3e2:	b004                	.insn	2, 0xb004
 3e4:	be05                	j	ffffff14 <__stack_top+0xfe7fff14>
 3e6:	0105                	addi	sp,sp,1
 3e8:	045a                	slli	s0,s0,0x16
 3ea:	05be                	slli	a1,a1,0xf
 3ec:	05ee                	slli	a1,a1,0x1b
 3ee:	6501                	.insn	2, 0x6501
 3f0:	d004                	sw	s1,32(s0)
 3f2:	0107d607          	.insn	4, 0x0107d607
 3f6:	005a                	c.slli	zero,0x16
 3f8:	280d                	jal	42a <__udivdi3+0x342>
 3fa:	5828                	lw	a0,112(s0)
 3fc:	605c                	.insn	2, 0x605c
 3fe:	6660                	.insn	2, 0x6660
 400:	7866                	.insn	2, 0x7866
 402:	8e78                	.insn	2, 0x8e78
 404:	a501                	j	a04 <__data_load_start+0x19c>
 406:	b301                	j	106 <__udivdi3+0x1e>
 408:	b501                	j	208 <__udivdi3+0x120>
 40a:	e201                	bnez	a2,40a <__udivdi3+0x322>
 40c:	e301                	bnez	a4,40c <__udivdi3+0x324>
 40e:	e901                	bnez	a0,41e <__udivdi3+0x336>
 410:	e901                	bnez	a0,420 <__udivdi3+0x338>
 412:	ed01                	bnez	a0,42a <__udivdi3+0x342>
 414:	ef01                	bnez	a4,42c <__udivdi3+0x344>
 416:	8501                	c.srai64	a0
 418:	8602                	jr	a2
 41a:	9702                	jalr	a4
 41c:	9d02                	jalr	s10
 41e:	cb02                	sw	zero,148(sp)
 420:	cb02                	sw	zero,148(sp)
 422:	8602                	jr	a2
 424:	8c038603          	lb	a2,-1856(t2)
 428:	00038c03          	lb	s8,0(t2)
 42c:	0004                	.insn	2, 0x0004
 42e:	0166                	slli	sp,sp,0x19
 430:	de66045b          	.insn	4, 0xde66045b
 434:	0101                	addi	sp,sp,0
 436:	0468                	addi	a0,sp,524
 438:	01fc                	addi	a5,sp,204
 43a:	028a                	slli	t0,t0,0x2
 43c:	5b01                	li	s6,-32
 43e:	8a04                	.insn	2, 0x8a04
 440:	9402                	jalr	s0
 442:	0102                	c.slli64	sp
 444:	0468                	addi	a0,sp,524
 446:	0294                	addi	a3,sp,320
 448:	02c0                	addi	s0,sp,324
 44a:	5b01                	li	s6,-32
 44c:	c004                	sw	s1,0(s0)
 44e:	8002                	.insn	2, 0x8002
 450:	04580103          	lb	sp,69(a6)
 454:	03b8                	addi	a4,sp,456
 456:	03d8                	addi	a4,sp,452
 458:	5b01                	li	s6,-32
 45a:	e004                	.insn	2, 0xe004
 45c:	0104d803          	lhu	a6,16(s1)
 460:	0464                	addi	s1,sp,524
 462:	04da                	slli	s1,s1,0x16
 464:	04e6                	slli	s1,s1,0x19
 466:	6401                	.insn	2, 0x6401
 468:	e604                	.insn	2, 0xe604
 46a:	ec04                	.insn	2, 0xec04
 46c:	0104                	addi	s1,sp,128
 46e:	0458                	addi	a4,sp,516
 470:	04f0                	addi	a2,sp,588
 472:	05ac                	addi	a1,sp,712
 474:	5b01                	li	s6,-32
 476:	b004                	.insn	2, 0xb004
 478:	de05                	beqz	a2,3b0 <__udivdi3+0x2c8>
 47a:	0105                	addi	sp,sp,1
 47c:	05ee045b          	.insn	4, 0x05ee045b
 480:	06e8                	addi	a0,sp,844
 482:	6401                	.insn	2, 0x6401
 484:	e804                	.insn	2, 0xe804
 486:	c406                	sw	ra,8(sp)
 488:	04610107          	.insn	4, 0x04610107
 48c:	07c4                	addi	s1,sp,964
 48e:	07d0                	addi	a2,sp,964
 490:	6401                	.insn	2, 0x6401
 492:	d004                	sw	s1,32(s0)
 494:	0107d607          	.insn	4, 0x0107d607
 498:	01b0005b          	.insn	4, 0x01b0005b
 49c:	01cd                	addi	gp,gp,19 # 1000813 <__global_pointer$+0x13>
 49e:	01e601e3          	beq	a2,t5,ca0 <__data_load_start+0x438>
 4a2:	029c                	addi	a5,sp,320
 4a4:	02b0                	addi	a2,sp,328
 4a6:	0386                	slli	t2,t2,0x1
 4a8:	0389                	addi	t2,t2,2
 4aa:	d004                	sw	s1,32(s0)
 4ac:	01049e03          	lh	t3,16(s1)
 4b0:	0458                	addi	a4,sp,516
 4b2:	04da                	slli	s1,s1,0x16
 4b4:	04e0                	addi	s0,sp,588
 4b6:	5801                	li	a6,-32
 4b8:	ee04                	.insn	2, 0xee04
 4ba:	a005                	j	4da <__divsi3+0x6>
 4bc:	0106                	slli	sp,sp,0x1
 4be:	0459                	addi	s0,s0,22
 4c0:	07c4                	addi	s1,sp,964
 4c2:	07ca                	slli	a5,a5,0x12
 4c4:	5901                	li	s2,-32
 4c6:	5400                	lw	s0,40(s0)
 4c8:	a35a                	.insn	2, 0xa35a
 4ca:	a501                	j	aca <__data_load_start+0x262>
 4cc:	ca01                	beqz	a2,4dc <__hidden___udivsi3>
 4ce:	8602                	jr	a2
 4d0:	01de0403          	lb	s0,29(t3)
 4d4:	01de                	slli	gp,gp,0x17
 4d6:	5f01                	li	t5,-32
 4d8:	b604                	.insn	2, 0xb604
 4da:	0103b803          	.insn	4, 0x0103b803
 4de:	045f 06e8 07c4      	.insn	6, 0x07c406e8045f
 4e4:	5f01                	li	t5,-32
 4e6:	5800                	lw	s0,48(s0)
 4e8:	795a                	.insn	2, 0x795a
 4ea:	7a7a                	.insn	2, 0x7a7a
 4ec:	01a5                	addi	gp,gp,9 # 1000809 <__global_pointer$+0x9>
 4ee:	01e2                	slli	gp,gp,0x18
 4f0:	01e901e3          	beq	s2,t5,cf2 <__data_load_start+0x48a>
 4f4:	de0401ef          	jal	gp,fff40ad4 <__stack_top+0xfe740ad4>
 4f8:	de01                	beqz	a2,410 <__udivdi3+0x328>
 4fa:	0101                	addi	sp,sp,0
 4fc:	0464                	addi	s1,sp,524
 4fe:	02c0                	addi	s0,sp,324
 500:	02c2                	slli	t0,t0,0x10
 502:	3102                	.insn	2, 0x3102
 504:	049f 02c2 03b8      	.insn	6, 0x03b802c2049f
 50a:	6401                	.insn	2, 0x6401
 50c:	d804                	sw	s1,48(s0)
 50e:	da04                	sw	s1,48(a2)
 510:	0104                	addi	s1,sp,128
 512:	0464                	addi	s1,sp,524
 514:	04e6                	slli	s1,s1,0x19
 516:	04f0                	addi	a2,sp,588
 518:	6401                	.insn	2, 0x6401
 51a:	ac00                	.insn	2, 0xac00
 51c:	b401                	j	ffffff1c <__stack_top+0xfe7fff1c>
 51e:	8e01                	sub	a2,a2,s0
 520:	9602                	jalr	a2
 522:	0402                	c.slli64	s0
 524:	03c8                	addi	a0,sp,452
 526:	03dc                	addi	a5,sp,452
 528:	5f01                	li	t5,-32
 52a:	c204                	sw	s1,0(a2)
 52c:	da05                	beqz	a2,45c <__udivdi3+0x374>
 52e:	0105                	addi	sp,sp,1
 530:	005f 211b 2a21      	.insn	6, 0x2a21211b005f
 536:	7a71                	lui	s4,0xffffc
 538:	01aa                	slli	gp,gp,0xa
 53a:	01b4                	addi	a3,sp,200
 53c:	01fc                	addi	a5,sp,204
 53e:	0282                	c.slli64	t0
 540:	0296028b          	.insn	4, 0x0296028b
 544:	4c04                	lw	s1,24(s0)
 546:	0656                	slli	a2,a2,0x15
 548:	2008                	.insn	2, 0x2008
 54a:	007f 9f1c 5604 016a 	.insn	10, 0x045e016a56049f1c007f
 552:	045e 
 554:	02b4                	addi	a3,sp,328
 556:	02c2                	slli	t0,t0,0x10
 558:	0806                	slli	a6,a6,0x1
 55a:	7f20                	.insn	2, 0x7f20
 55c:	1c00                	addi	s0,sp,560
 55e:	049f 03c6 03dc      	.insn	6, 0x03dc03c6049f
 564:	0806                	slli	a6,a6,0x1
 566:	7f20                	.insn	2, 0x7f20
 568:	1c00                	addi	s0,sp,560
 56a:	049f 059a 05a2      	.insn	6, 0x05a2059a049f
 570:	0806                	slli	a6,a6,0x1
 572:	7f20                	.insn	2, 0x7f20
 574:	1c00                	addi	s0,sp,560
 576:	049f 05be 05da      	.insn	6, 0x05da05be049f
 57c:	0806                	slli	a6,a6,0x1
 57e:	7f20                	.insn	2, 0x7f20
 580:	1c00                	addi	s0,sp,560
 582:	009f 2316 2623      	.insn	6, 0x26232316009f
 588:	5826                	lw	a6,104(sp)
 58a:	605c                	.insn	2, 0x605c
 58c:	6660                	.insn	2, 0x6660
 58e:	3204                	.insn	2, 0x3204
 590:	0156                	slli	sp,sp,0x15
 592:	045c                	addi	a5,sp,516
 594:	6256                	.insn	2, 0x6256
 596:	7c09                	lui	s8,0xfffe2
 598:	7e00                	.insn	2, 0x7e00
 59a:	0800                	addi	s0,sp,16
 59c:	9f241aff 01de6204 	.insn	12, 0xfc04630101de62049f241aff
 5a4:	fc046301 
 5a8:	8a01                	andi	a2,a2,0
 5aa:	0102                	c.slli64	sp
 5ac:	045c                	addi	a5,sp,516
 5ae:	028a                	slli	t0,t0,0x2
 5b0:	0294                	addi	a3,sp,320
 5b2:	6301                	.insn	2, 0x6301
 5b4:	1a00                	addi	s0,sp,304
 5b6:	041f 5040 5e01      	.insn	6, 0x5e015040041f
 5bc:	2e00                	.insn	2, 0x2e00
 5be:	6058                	.insn	2, 0x6058
 5c0:	0466                	slli	s0,s0,0x19
 5c2:	de6e                	sw	s11,60(sp)
 5c4:	0101                	addi	sp,sp,0
 5c6:	0466                	slli	s0,s0,0x19
 5c8:	028a                	slli	t0,t0,0x2
 5ca:	0294                	addi	a3,sp,320
 5cc:	6601                	.insn	2, 0x6601
 5ce:	3200                	.insn	2, 0x3200
 5d0:	4646                	lw	a2,80(sp)
 5d2:	6058                	.insn	2, 0x6058
 5d4:	6464                	.insn	2, 0x6464
 5d6:	0466                	slli	s0,s0,0x19
 5d8:	00fc                	addi	a5,sp,76
 5da:	01b8                	addi	a4,sp,200
 5dc:	6701                	.insn	2, 0x6701
 5de:	b804                	.insn	2, 0xb804
 5e0:	de01                	beqz	a2,4f8 <__hidden___udivsi3+0x1c>
 5e2:	0701                	addi	a4,a4,0 # 1742b0ca <__stack_top+0x15c2b0ca>
 5e4:	24400083          	lb	ra,580(zero) # 244 <__udivdi3+0x15c>
 5e8:	2540                	.insn	2, 0x2540
 5ea:	049f 028a 0290      	.insn	6, 0x0290028a049f
 5f0:	6701                	.insn	2, 0x6701
 5f2:	9004                	.insn	2, 0x9004
 5f4:	9402                	jalr	s0
 5f6:	0702                	c.slli64	a4
 5f8:	24400083          	lb	ra,580(zero) # 244 <__udivdi3+0x15c>
 5fc:	2540                	.insn	2, 0x2540
 5fe:	009f 3534 3635      	.insn	6, 0x36353534009f
 604:	3a36                	.insn	2, 0x3a36
 606:	3e3a                	.insn	2, 0x3e3a
 608:	583e                	lw	a6,236(sp)
 60a:	6260                	.insn	2, 0x6260
 60c:	6662                	.insn	2, 0x6662
 60e:	8004                	.insn	2, 0x8004
 610:	8201                	c.srli64	a2
 612:	0101                	addi	sp,sp,0
 614:	045a                	slli	s0,s0,0x16
 616:	0182                	c.slli64	gp
 618:	5b010183          	lb	gp,1456(sp)
 61c:	8304                	.insn	2, 0x8304
 61e:	9801                	andi	s0,s0,-32
 620:	0101                	addi	sp,sp,0
 622:	0462                	slli	s0,s0,0x18
 624:	0198                	addi	a4,sp,192
 626:	01a4                	addi	s1,sp,200
 628:	9f7f8203          	lb	tp,-1545(t6)
 62c:	a404                	.insn	2, 0xa404
 62e:	de01                	beqz	a2,546 <__modsi3+0x1a>
 630:	0101                	addi	sp,sp,0
 632:	0462                	slli	s0,s0,0x18
 634:	028a                	slli	t0,t0,0x2
 636:	028c                	addi	a1,sp,320
 638:	9f7f8203          	lb	tp,-1545(t6)
 63c:	8c04                	.insn	2, 0x8c04
 63e:	9402                	jalr	s0
 640:	0102                	c.slli64	sp
 642:	0062                	c.slli	zero,0x18
 644:	4442                	lw	s0,16(sp)
 646:	4544                	lw	s1,12(a0)
 648:	4d45                	li	s10,17
 64a:	514d                	li	sp,-13
 64c:	5851                	li	a6,-12
 64e:	6564                	.insn	2, 0x6564
 650:	6665                	lui	a2,0x19
 652:	b204                	.insn	2, 0xb204
 654:	b401                	j	54 <_start+0x54>
 656:	0101                	addi	sp,sp,0
 658:	045a                	slli	s0,s0,0x16
 65a:	01b4                	addi	a3,sp,200
 65c:	01b5                	addi	gp,gp,13 # 100080d <__global_pointer$+0xd>
 65e:	5b01                	li	s6,-32
 660:	b504                	.insn	2, 0xb504
 662:	ca01                	beqz	a2,672 <get_tick_ms>
 664:	0101                	addi	sp,sp,0
 666:	0465                	addi	s0,s0,25
 668:	01ca                	slli	gp,gp,0x12
 66a:	01d6                	slli	gp,gp,0x15
 66c:	9f7f8503          	lb	a0,-1545(t6)
 670:	d604                	sw	s1,40(a2)
 672:	de01                	beqz	a2,58a <main+0x6>
 674:	0101                	addi	sp,sp,0
 676:	0465                	addi	s0,s0,25
 678:	0290                	addi	a2,sp,320
 67a:	0292                	slli	t0,t0,0x4
 67c:	9f7f8503          	lb	a0,-1545(t6)
 680:	9204                	.insn	2, 0x9204
 682:	9402                	jalr	s0
 684:	0302                	c.slli64	t1
 686:	0185                	addi	gp,gp,1 # 1000801 <__global_pointer$+0x1>
 688:	009f 3833 3f38      	.insn	6, 0x3f383833009f
 68e:	6360583f 66646463 	.insn	8, 0x666464636360583f
 696:	fc04                	.insn	2, 0xfc04
 698:	9400                	.insn	2, 0x9400
 69a:	0601                	addi	a2,a2,0 # 19000 <__data_load_start+0x18798>
 69c:	0088                	addi	a0,sp,64
 69e:	0086                	slli	ra,ra,0x1
 6a0:	9f1d                	.insn	2, 0x9f1d
 6a2:	9404                	.insn	2, 0x9404
 6a4:	a801                	j	6b4 <irq_init+0x1a>
 6a6:	0101                	addi	sp,sp,0
 6a8:	045d                	addi	s0,s0,23
 6aa:	01a8                	addi	a0,sp,200
 6ac:	01de                	slli	gp,gp,0x17
 6ae:	5801                	li	a6,-32
 6b0:	8a04                	.insn	2, 0x8a04
 6b2:	8e02                	jr	t3
 6b4:	0102                	c.slli64	sp
 6b6:	045d                	addi	s0,s0,23
 6b8:	028e                	slli	t0,t0,0x3
 6ba:	0290                	addi	a2,sp,320
 6bc:	4000790b          	.insn	4, 0x4000790b
 6c0:	7a25                	lui	s4,0xfffe9
 6c2:	2100                	.insn	2, 0x2100
 6c4:	9f220083          	lb	ra,-1550(tp) # fffff9f2 <__stack_top+0xfe7ff9f2>
 6c8:	9004                	.insn	2, 0x9004
 6ca:	9402                	jalr	s0
 6cc:	0102                	c.slli64	sp
 6ce:	0058                	addi	a4,sp,4
 6d0:	4a40                	lw	s0,20(a2)
 6d2:	514a                	lw	sp,176(sp)
 6d4:	6564                	.insn	2, 0x6564
 6d6:	6665                	lui	a2,0x19
 6d8:	a804                	.insn	2, 0xa804
 6da:	c601                	beqz	a2,6e2 <irq_init+0x48>
 6dc:	0601                	addi	a2,a2,0 # 19000 <__data_load_start+0x18798>
 6de:	0078                	addi	a4,sp,12
 6e0:	0086                	slli	ra,ra,0x1
 6e2:	9f1d                	.insn	2, 0x9f1d
 6e4:	c604                	sw	s1,8(a2)
 6e6:	d601                	beqz	a2,5ee <gpio_set_direction+0x30>
 6e8:	0101                	addi	sp,sp,0
 6ea:	0459                	addi	s0,s0,22
 6ec:	0290                	addi	a2,sp,320
 6ee:	0292                	slli	t0,t0,0x4
 6f0:	5901                	li	s2,-32
 6f2:	9204                	.insn	2, 0x9204
 6f4:	9402                	jalr	s0
 6f6:	0602                	c.slli64	a2
 6f8:	00790083          	lb	ra,7(s2)
 6fc:	9f22                	add	t5,t5,s0
 6fe:	3700                	.insn	2, 0x3700
 700:	4848463f 64646058 	.insn	8, 0x646460584848463f
 708:	0466                	slli	s0,s0,0x19
 70a:	0186                	slli	gp,gp,0x1
 70c:	01a8                	addi	a0,sp,200
 70e:	5801                	li	a6,-32
 710:	b804                	.insn	2, 0xb804
 712:	bc01                	j	122 <__udivdi3+0x3a>
 714:	0101                	addi	sp,sp,0
 716:	045a                	slli	s0,s0,0x16
 718:	01bc                	addi	a5,sp,200
 71a:	01de                	slli	gp,gp,0x17
 71c:	6701                	.insn	2, 0x6701
 71e:	8a04                	.insn	2, 0x8a04
 720:	9002                	ebreak
 722:	0102                	c.slli64	sp
 724:	0458                	addi	a4,sp,516
 726:	0290                	addi	a2,sp,320
 728:	0294                	addi	a3,sp,320
 72a:	6701                	.insn	2, 0x6701
 72c:	6c00                	.insn	2, 0x6c00
 72e:	aa01a56f          	jal	a0,fff1a9ce <__stack_top+0xfe71a9ce>
 732:	0401                	addi	s0,s0,0
 734:	0298                	addi	a4,sp,320
 736:	029e                	slli	t0,t0,0x7
 738:	5c01                	li	s8,-32
 73a:	b804                	.insn	2, 0xb804
 73c:	0103c603          	lbu	a2,16(t2)
 740:	005c                	addi	a5,sp,4
 742:	7570                	.insn	2, 0x7570
 744:	a804                	.insn	2, 0xa804
 746:	b802                	.insn	2, 0xb802
 748:	0102                	c.slli64	sp
 74a:	005e                	c.slli	zero,0x17
 74c:	a57f e901 ef01 0401 	.insn	14, 0x650103b802c60401ef01e901a57f
 754:	02c6 03b8 6501 
 75a:	e604                	.insn	2, 0xe604
 75c:	f004                	.insn	2, 0xf004
 75e:	0104                	addi	s1,sp,128
 760:	0065                	c.nop	25
 762:	0180                	addi	s0,sp,192
 764:	0195                	addi	gp,gp,5 # 1000805 <__global_pointer$+0x5>
 766:	0195                	addi	gp,gp,5 # 1000805 <__global_pointer$+0x5>
 768:	01a5                	addi	gp,gp,9 # 1000809 <__global_pointer$+0x9>
 76a:	01e9                	addi	gp,gp,26 # 100081a <__global_pointer$+0x1a>
 76c:	01ed                	addi	gp,gp,27 # 100081b <__global_pointer$+0x1b>
 76e:	01ed                	addi	gp,gp,27 # 100081b <__global_pointer$+0x1b>
 770:	d40401ef          	jal	gp,fff40cb0 <__stack_top+0xfe740cb0>
 774:	9002                	ebreak
 776:	04660103          	lb	sp,70(a2)
 77a:	0390                	addi	a2,sp,448
 77c:	03b8                	addi	a4,sp,456
 77e:	40008307          	.insn	4, 0x40008307
 782:	4024                	lw	s1,64(s0)
 784:	9f25                	.insn	2, 0x9f25
 786:	e604                	.insn	2, 0xe604
 788:	ec04                	.insn	2, 0xec04
 78a:	0104                	addi	s1,sp,128
 78c:	0466                	slli	s0,s0,0x19
 78e:	04ec                	addi	a1,sp,588
 790:	04f0                	addi	a2,sp,588
 792:	40008307          	.insn	4, 0x40008307
 796:	4024                	lw	s1,64(s0)
 798:	9f25                	.insn	2, 0x9f25
 79a:	8200                	.insn	2, 0x8200
 79c:	8301                	c.srli64	a4
 79e:	8301                	c.srli64	a4
 7a0:	8401                	c.srai64	s0
 7a2:	8401                	c.srai64	s0
 7a4:	8901                	andi	a0,a0,0
 7a6:	8901                	andi	a0,a0,0
 7a8:	8d01                	sub	a0,a0,s0
 7aa:	8d01                	sub	a0,a0,s0
 7ac:	a501                	j	dac <__data_load_start+0x544>
 7ae:	e901                	bnez	a0,7be <__clz_tab+0x56>
 7b0:	eb01                	bnez	a4,7c0 <__clz_tab+0x58>
 7b2:	eb01                	bnez	a4,7c2 <__clz_tab+0x5a>
 7b4:	ef01                	bnez	a4,7cc <__clz_tab+0x64>
 7b6:	0401                	addi	s0,s0,0
 7b8:	02d8                	addi	a4,sp,324
 7ba:	02da                	slli	t0,t0,0x16
 7bc:	5a01                	li	s4,-32
 7be:	da04                	sw	s1,48(a2)
 7c0:	db02                	sw	zero,180(sp)
 7c2:	0102                	c.slli64	sp
 7c4:	02db045b          	.insn	4, 0x02db045b
 7c8:	02f0                	addi	a2,sp,332
 7ca:	6201                	.insn	2, 0x6201
 7cc:	f004                	.insn	2, 0xf004
 7ce:	fc02                	.insn	2, 0xfc02
 7d0:	0302                	c.slli64	t1
 7d2:	7f82                	.insn	2, 0x7f82
 7d4:	049f 02fc 03b8      	.insn	6, 0x03b802fc049f
 7da:	6201                	.insn	2, 0x6201
 7dc:	e604                	.insn	2, 0xe604
 7de:	e804                	.insn	2, 0xe804
 7e0:	0304                	addi	s1,sp,384
 7e2:	7f82                	.insn	2, 0x7f82
 7e4:	049f 04e8 04f0      	.insn	6, 0x04f004e8049f
 7ea:	6201                	.insn	2, 0x6201
 7ec:	9100                	.insn	2, 0x9100
 7ee:	9301                	srli	a4,a4,0x20
 7f0:	9301                	srli	a4,a4,0x20
 7f2:	9401                	srai	s0,s0,0x20
 7f4:	9401                	srai	s0,s0,0x20
 7f6:	9c01                	.insn	2, 0x9c01
 7f8:	9c01                	.insn	2, 0x9c01
 7fa:	a001                	j	7fa <__clz_tab+0x92>
 7fc:	a001                	j	7fc <__clz_tab+0x94>
 7fe:	a501                	j	dfe <__data_load_start+0x596>
 800:	ed01                	bnez	a0,818 <__clz_tab+0xb0>
 802:	ee01                	bnez	a2,81a <__clz_tab+0xb2>
 804:	ee01                	bnez	a2,81c <__clz_tab+0xb4>
 806:	ef01                	bnez	a4,81e <__clz_tab+0xb6>
 808:	0401                	addi	s0,s0,0
 80a:	038a                	slli	t2,t2,0x2
 80c:	038c                	addi	a1,sp,448
 80e:	5a01                	li	s4,-32
 810:	8c04                	.insn	2, 0x8c04
 812:	01038d03          	lb	s10,16(t2)
 816:	038d045b          	.insn	4, 0x038d045b
 81a:	03a2                	slli	t2,t2,0x8
 81c:	6701                	.insn	2, 0x6701
 81e:	a204                	.insn	2, 0xa204
 820:	0303ae03          	lw	t3,48(t2)
 824:	049f7f87          	.insn	4, 0x049f7f87
 828:	03ae                	slli	t2,t2,0xb
 82a:	03b8                	addi	a4,sp,456
 82c:	6701                	.insn	2, 0x6701
 82e:	ec04                	.insn	2, 0xec04
 830:	ee04                	.insn	2, 0xee04
 832:	0304                	addi	s1,sp,384
 834:	049f7f87          	.insn	4, 0x049f7f87
 838:	04ee                	slli	s1,s1,0x1b
 83a:	04f0                	addi	a2,sp,588
 83c:	9f018703          	lb	a4,-1552(gp) # 10001f0 <__bss_end+0x1ac>
 840:	8100                	.insn	2, 0x8100
 842:	8701                	c.srai64	a4
 844:	8701                	c.srai64	a4
 846:	8e01                	sub	a2,a2,s0
 848:	8e01                	sub	a2,a2,s0
 84a:	a501                	j	e4a <__data_load_start+0x5e2>
 84c:	e901                	bnez	a0,85c <__clz_tab+0xf4>
 84e:	ec01                	bnez	s0,866 <__clz_tab+0xfe>
 850:	ec01                	bnez	s0,868 <__data_load_start>
 852:	ed01                	bnez	a0,86a <__data_load_start+0x2>
 854:	ed01                	bnez	a0,86c <__data_load_start+0x4>
 856:	ef01                	bnez	a4,86e <__data_load_start+0x6>
 858:	0401                	addi	s0,s0,0
 85a:	02d4                	addi	a3,sp,324
 85c:	02ec                	addi	a1,sp,332
 85e:	7806                	.insn	2, 0x7806
 860:	8500                	.insn	2, 0x8500
 862:	1d00                	addi	s0,sp,688
 864:	049f 02ec 0380      	.insn	6, 0x038002ec049f
 86a:	5d01                	li	s10,-32
 86c:	8004                	.insn	2, 0x8004
 86e:	0103b803          	.insn	4, 0x0103b803
 872:	0458                	addi	a4,sp,516
 874:	04e6                	slli	s1,s1,0x19
 876:	04ea                	slli	s1,s1,0x1a
 878:	5d01                	li	s10,-32
 87a:	ea04                	.insn	2, 0xea04
 87c:	ec04                	.insn	2, 0xec04
 87e:	0b04                	addi	s1,sp,400
 880:	0079                	c.nop	30
 882:	2540                	.insn	2, 0x2540
 884:	007a                	c.slli	zero,0x1e
 886:	8321                	srli	a4,a4,0x8
 888:	2200                	.insn	2, 0x2200
 88a:	049f 04ec 04f0      	.insn	6, 0x04f004ec049f
 890:	5801                	li	a6,-32
 892:	8f00                	.insn	2, 0x8f00
 894:	9901                	andi	a0,a0,-32
 896:	9901                	andi	a0,a0,-32
 898:	a001                	j	898 <__data_load_start+0x30>
 89a:	ed01                	bnez	a0,8b2 <__data_load_start+0x4a>
 89c:	ee01                	bnez	a2,8b4 <__data_load_start+0x4c>
 89e:	ee01                	bnez	a2,8b6 <__data_load_start+0x4e>
 8a0:	ef01                	bnez	a4,8b8 <__data_load_start+0x50>
 8a2:	0401                	addi	s0,s0,0
 8a4:	0380                	addi	s0,sp,448
 8a6:	039e                	slli	t2,t2,0x7
 8a8:	7806                	.insn	2, 0x7806
 8aa:	8500                	.insn	2, 0x8500
 8ac:	1d00                	addi	s0,sp,688
 8ae:	049f 039e 03ae      	.insn	6, 0x03ae039e049f
 8b4:	5901                	li	s2,-32
 8b6:	ec04                	.insn	2, 0xec04
 8b8:	ee04                	.insn	2, 0xee04
 8ba:	0104                	addi	s1,sp,128
 8bc:	0459                	addi	s0,s0,22
 8be:	04ee                	slli	s1,s1,0x1b
 8c0:	04f0                	addi	a2,sp,588
 8c2:	8306                	mv	t1,ra
 8c4:	7900                	.insn	2, 0x7900
 8c6:	2200                	.insn	2, 0x2200
 8c8:	009f 0185 0186      	.insn	6, 0x01860185009f
 8ce:	0186                	slli	gp,gp,0x1
 8d0:	0191                	addi	gp,gp,4 # 1000804 <__global_pointer$+0x4>
 8d2:	0195                	addi	gp,gp,5 # 1000805 <__global_pointer$+0x5>
 8d4:	01970197          	auipc	gp,0x1970
 8d8:	01a5                	addi	gp,gp,9 # 19708dd <__stack_top+0x1708dd>
 8da:	01e9                	addi	gp,gp,26 # 100081a <__global_pointer$+0x1a>
 8dc:	01ed                	addi	gp,gp,27 # 100081b <__global_pointer$+0x1b>
 8de:	01ed                	addi	gp,gp,27 # 100081b <__global_pointer$+0x1b>
 8e0:	de0401ef          	jal	gp,fff40ec0 <__stack_top+0xfe740ec0>
 8e4:	e202                	.insn	2, 0xe202
 8e6:	0102                	c.slli64	sp
 8e8:	045a                	slli	s0,s0,0x16
 8ea:	02e2                	slli	t0,t0,0x18
 8ec:	038a                	slli	t2,t2,0x2
 8ee:	6701                	.insn	2, 0x6701
 8f0:	9004                	.insn	2, 0x9004
 8f2:	01039403          	lh	s0,16(t2)
 8f6:	045a                	slli	s0,s0,0x16
 8f8:	0394                	addi	a3,sp,448
 8fa:	03b8                	addi	a4,sp,456
 8fc:	6601                	.insn	2, 0x6601
 8fe:	e604                	.insn	2, 0xe604
 900:	ec04                	.insn	2, 0xec04
 902:	0104                	addi	s1,sp,128
 904:	04ec0467          	jalr	s0,78(s8) # fffe204e <__stack_top+0xfe7e204e>
 908:	04f0                	addi	a2,sp,588
 90a:	6601                	.insn	2, 0x6601
 90c:	bd00                	.insn	2, 0xbd00
 90e:	c001                	beqz	s0,90e <__data_load_start+0xa6>
 910:	c001                	beqz	s0,910 <__data_load_start+0xa8>
 912:	e901                	bnez	a0,922 <__data_load_start+0xba>
 914:	0401                	addi	s0,s0,0
 916:	03ec                	addi	a1,sp,460
 918:	03f1                	addi	t2,t2,28
 91a:	5b01                	li	s6,-32
 91c:	f104                	.insn	2, 0xf104
 91e:	0104e603          	.insn	4, 0x0104e603
 922:	0066                	c.slli	zero,0x19
 924:	01be                	slli	gp,gp,0xf
 926:	01d4                	addi	a3,sp,196
 928:	01d4                	addi	a3,sp,196
 92a:	01e301e3          	beq	t1,t5,112c <__data_load_start+0x8c4>
 92e:	01e6                	slli	gp,gp,0x19
 930:	01e6                	slli	gp,gp,0x19
 932:	01e9                	addi	gp,gp,26 # 100081a <__global_pointer$+0x1a>
 934:	f004                	.insn	2, 0xf004
 936:	0104ae03          	lw	t3,16(s1)
 93a:	04ae0467          	jalr	s0,74(t3)
 93e:	04da                	slli	s1,s1,0x16
 940:	40008307          	.insn	4, 0x40008307
 944:	4024                	lw	s1,64(s0)
 946:	9f25                	.insn	2, 0x9f25
 948:	da04                	sw	s1,48(a2)
 94a:	e004                	.insn	2, 0xe004
 94c:	0104                	addi	s1,sp,128
 94e:	04e00467          	jalr	s0,78(zero) # 4e <_start+0x4e>
 952:	04e6                	slli	s1,s1,0x19
 954:	40008307          	.insn	4, 0x40008307
 958:	4024                	lw	s1,64(s0)
 95a:	9f25                	.insn	2, 0x9f25
 95c:	c100                	sw	s0,0(a0)
 95e:	c201                	beqz	a2,95e <__data_load_start+0xf6>
 960:	c201                	beqz	a2,960 <__data_load_start+0xf8>
 962:	c301                	beqz	a4,962 <__data_load_start+0xfa>
 964:	c301                	beqz	a4,964 <__data_load_start+0xfc>
 966:	c801                	beqz	s0,976 <__data_load_start+0x10e>
 968:	c801                	beqz	s0,978 <__data_load_start+0x110>
 96a:	cc01                	beqz	s0,982 <__data_load_start+0x11a>
 96c:	cc01                	beqz	s0,984 <__data_load_start+0x11c>
 96e:	df01                	beqz	a4,886 <__data_load_start+0x1e>
 970:	e301                	bnez	a4,970 <__data_load_start+0x108>
 972:	e401                	bnez	s0,97a <__data_load_start+0x112>
 974:	e401                	bnez	s0,97c <__data_load_start+0x114>
 976:	e901                	bnez	a0,986 <__data_load_start+0x11e>
 978:	0401                	addi	s0,s0,0
 97a:	03f6                	slli	t2,t2,0x1d
 97c:	03f8                	addi	a4,sp,460
 97e:	5a01                	li	s4,-32
 980:	f804                	.insn	2, 0xf804
 982:	0103f903          	.insn	4, 0x0103f903
 986:	03f9045b          	.insn	4, 0x03f9045b
 98a:	048e                	slli	s1,s1,0x3
 98c:	6201                	.insn	2, 0x6201
 98e:	8e04                	.insn	2, 0x8e04
 990:	9a04                	.insn	2, 0x9a04
 992:	0304                	addi	s1,sp,384
 994:	7f82                	.insn	2, 0x7f82
 996:	049f 049a 04d0      	.insn	6, 0x04d0049a049f
 99c:	6201                	.insn	2, 0x6201
 99e:	da04                	sw	s1,48(a2)
 9a0:	dc04                	sw	s1,56(s0)
 9a2:	0304                	addi	s1,sp,384
 9a4:	7f82                	.insn	2, 0x7f82
 9a6:	049f 04dc 04e6      	.insn	6, 0x04e604dc049f
 9ac:	6201                	.insn	2, 0x6201
 9ae:	d000                	sw	s0,32(s0)
 9b0:	d201                	beqz	a2,8b0 <__data_load_start+0x48>
 9b2:	d201                	beqz	a2,8b2 <__data_load_start+0x4a>
 9b4:	d301                	beqz	a4,8b4 <__data_load_start+0x4c>
 9b6:	d301                	beqz	a4,8b6 <__data_load_start+0x4e>
 9b8:	da01                	beqz	a2,8c8 <__data_load_start+0x60>
 9ba:	da01                	beqz	a2,8ca <__data_load_start+0x62>
 9bc:	de01                	beqz	a2,8d4 <__data_load_start+0x6c>
 9be:	de01                	beqz	a2,8d6 <__data_load_start+0x6e>
 9c0:	e301                	bnez	a4,9c0 <__data_load_start+0x158>
 9c2:	e601                	bnez	a2,9ca <__data_load_start+0x162>
 9c4:	e701                	bnez	a4,9cc <__data_load_start+0x164>
 9c6:	e701                	bnez	a4,9ce <__data_load_start+0x166>
 9c8:	e901                	bnez	a0,9d8 <__data_load_start+0x170>
 9ca:	0401                	addi	s0,s0,0
 9cc:	04a8                	addi	a0,sp,584
 9ce:	04aa                	slli	s1,s1,0xa
 9d0:	5a01                	li	s4,-32
 9d2:	aa04                	.insn	2, 0xaa04
 9d4:	ab04                	.insn	2, 0xab04
 9d6:	0104                	addi	s1,sp,128
 9d8:	04ab045b          	.insn	4, 0x04ab045b
 9dc:	04c2                	slli	s1,s1,0x10
 9de:	6501                	.insn	2, 0x6501
 9e0:	c204                	sw	s1,0(a2)
 9e2:	ce04                	sw	s1,24(a2)
 9e4:	0304                	addi	s1,sp,384
 9e6:	7f85                	lui	t6,0xfffe1
 9e8:	049f 04ce 04da      	.insn	6, 0x04da04ce049f
 9ee:	6501                	.insn	2, 0x6501
 9f0:	e004                	.insn	2, 0xe004
 9f2:	e204                	.insn	2, 0xe204
 9f4:	0304                	addi	s1,sp,384
 9f6:	7f85                	lui	t6,0xfffe1
 9f8:	049f 04e2 04e6      	.insn	6, 0x04e604e2049f
 9fe:	6501                	.insn	2, 0x6501
 a00:	bf00                	.insn	2, 0xbf00
 a02:	c001                	beqz	s0,a02 <__data_load_start+0x19a>
 a04:	c001                	beqz	s0,a04 <__data_load_start+0x19c>
 a06:	c601                	beqz	a2,a0e <__data_load_start+0x1a6>
 a08:	c601                	beqz	a2,a10 <__data_load_start+0x1a8>
 a0a:	cd01                	beqz	a0,a22 <__data_load_start+0x1ba>
 a0c:	cd01                	beqz	a0,a24 <__data_load_start+0x1bc>
 a0e:	e001                	bnez	s0,a0e <__data_load_start+0x1a6>
 a10:	e301                	bnez	a4,a10 <__data_load_start+0x1a8>
 a12:	e501                	bnez	a0,a1a <__data_load_start+0x1b2>
 a14:	e501                	bnez	a0,a1c <__data_load_start+0x1b4>
 a16:	e601                	bnez	a2,a1e <__data_load_start+0x1b6>
 a18:	e601                	bnez	a2,a20 <__data_load_start+0x1b8>
 a1a:	e901                	bnez	a0,a2a <__data_load_start+0x1c2>
 a1c:	0401                	addi	s0,s0,0
 a1e:	03f0                	addi	a2,sp,460
 a20:	03f1                	addi	t2,t2,28
 a22:	7806                	.insn	2, 0x7806
 a24:	7b00                	.insn	2, 0x7b00
 a26:	1d00                	addi	s0,sp,688
 a28:	049f 03f1 048a      	.insn	6, 0x048a03f1049f
 a2e:	7806                	.insn	2, 0x7806
 a30:	8600                	.insn	2, 0x8600
 a32:	1d00                	addi	s0,sp,688
 a34:	049f 048a 049e      	.insn	6, 0x049e048a049f
 a3a:	5d01                	li	s10,-32
 a3c:	9e04                	.insn	2, 0x9e04
 a3e:	d404                	sw	s1,40(s0)
 a40:	0104                	addi	s1,sp,128
 a42:	0458                	addi	a4,sp,516
 a44:	04da                	slli	s1,s1,0x16
 a46:	04de                	slli	s1,s1,0x17
 a48:	5d01                	li	s10,-32
 a4a:	de04                	sw	s1,56(a2)
 a4c:	e004                	.insn	2, 0xe004
 a4e:	0b04                	addi	s1,sp,400
 a50:	0084                	addi	s1,sp,64
 a52:	2540                	.insn	2, 0x2540
 a54:	007a                	c.slli	zero,0x1e
 a56:	8321                	srli	a4,a4,0x8
 a58:	2200                	.insn	2, 0x2200
 a5a:	049f 04e0 04e6      	.insn	6, 0x04e604e0049f
 a60:	5801                	li	a6,-32
 a62:	ce00                	sw	s0,24(a2)
 a64:	d701                	beqz	a4,96c <__data_load_start+0x104>
 a66:	d701                	beqz	a4,96e <__data_load_start+0x106>
 a68:	e001                	bnez	s0,a68 <__data_load_start+0x200>
 a6a:	e001                	bnez	s0,a6a <__data_load_start+0x202>
 a6c:	e301                	bnez	a4,a6c <__data_load_start+0x204>
 a6e:	e601                	bnez	a2,a76 <__data_load_start+0x20e>
 a70:	e801                	bnez	s0,a80 <__data_load_start+0x218>
 a72:	e801                	bnez	s0,a82 <__data_load_start+0x21a>
 a74:	e901                	bnez	a0,a84 <__data_load_start+0x21c>
 a76:	0401                	addi	s0,s0,0
 a78:	049e                	slli	s1,s1,0x7
 a7a:	04be                	slli	s1,s1,0xf
 a7c:	7806                	.insn	2, 0x7806
 a7e:	8600                	.insn	2, 0x8600
 a80:	1d00                	addi	s0,sp,688
 a82:	049f 04be 04d4      	.insn	6, 0x04d404be049f
 a88:	5f01                	li	t5,-32
 a8a:	d404                	sw	s1,40(s0)
 a8c:	da04                	sw	s1,48(a2)
 a8e:	0104                	addi	s1,sp,128
 a90:	0458                	addi	a4,sp,516
 a92:	04e0                	addi	s0,sp,588
 a94:	04e4                	addi	s1,sp,588
 a96:	5f01                	li	t5,-32
 a98:	e404                	.insn	2, 0xe404
 a9a:	e604                	.insn	2, 0xe604
 a9c:	0d04                	addi	s1,sp,656
 a9e:	0084                	addi	s1,sp,64
 aa0:	2440                	.insn	2, 0x2440
 aa2:	2540                	.insn	2, 0x2540
 aa4:	007a                	c.slli	zero,0x1e
 aa6:	8321                	srli	a4,a4,0x8
 aa8:	2200                	.insn	2, 0x2200
 aaa:	009f 01c4 01c5      	.insn	6, 0x01c501c4009f
 ab0:	01c5                	addi	gp,gp,17 # 1000811 <__global_pointer$+0x11>
 ab2:	01d0                	addi	a2,sp,196
 ab4:	01d4                	addi	a3,sp,196
 ab6:	01d6                	slli	gp,gp,0x15
 ab8:	01d6                	slli	gp,gp,0x15
 aba:	01e301e3          	beq	t1,t5,12bc <__data_load_start+0xa54>
 abe:	01e6                	slli	gp,gp,0x19
 ac0:	01e6                	slli	gp,gp,0x19
 ac2:	01e9                	addi	gp,gp,26 # 100081a <__global_pointer$+0x1a>
 ac4:	fc04                	.insn	2, 0xfc04
 ac6:	01048003          	lb	zero,16(s1)
 aca:	045a                	slli	s0,s0,0x16
 acc:	0480                	addi	s0,sp,576
 ace:	04a8                	addi	a0,sp,584
 ad0:	6501                	.insn	2, 0x6501
 ad2:	ae04                	.insn	2, 0xae04
 ad4:	b204                	.insn	2, 0xb204
 ad6:	0104                	addi	s1,sp,128
 ad8:	045a                	slli	s0,s0,0x16
 ada:	04b2                	slli	s1,s1,0xc
 adc:	04da                	slli	s1,s1,0x16
 ade:	6701                	.insn	2, 0x6701
 ae0:	da04                	sw	s1,48(a2)
 ae2:	e004                	.insn	2, 0xe004
 ae4:	0104                	addi	s1,sp,128
 ae6:	0465                	addi	s0,s0,25
 ae8:	04e0                	addi	s0,sp,588
 aea:	04e6                	slli	s1,s1,0x19
 aec:	6701                	.insn	2, 0x6701
 aee:	f400                	.insn	2, 0xf400
 af0:	8401                	c.srai64	s0
 af2:	8602                	jr	a2
 af4:	9102                	jalr	sp
 af6:	0402                	c.slli64	s0
 af8:	04f4                	addi	a3,sp,588
 afa:	05aa                	slli	a1,a1,0xa
 afc:	5d01                	li	s10,-32
 afe:	b004                	.insn	2, 0xb004
 b00:	ca05                	beqz	a2,b30 <__data_load_start+0x2c8>
 b02:	0105                	addi	sp,sp,1
 b04:	005d                	c.nop	23
 b06:	01f8                	addi	a4,sp,204
 b08:	0285                	addi	t0,t0,1
 b0a:	02a5028b          	.insn	4, 0x02a5028b
 b0e:	8404                	.insn	2, 0x8404
 b10:	ac05                	j	d40 <__data_load_start+0x4d8>
 b12:	0105                	addi	sp,sp,1
 b14:	045e                	slli	s0,s0,0x17
 b16:	05be                	slli	a1,a1,0xf
 b18:	5e0105f3          	.insn	4, 0x5e0105f3
 b1c:	f300                	.insn	2, 0xf300
 b1e:	8402                	jr	s0
 b20:	07a60403          	lb	s0,122(a2)
 b24:	07c2                	slli	a5,a5,0x10
 b26:	5c01                	li	s8,-32
 b28:	f400                	.insn	2, 0xf400
 b2a:	f902                	.insn	2, 0xf902
 b2c:	0402                	c.slli64	s0
 b2e:	07a6                	slli	a5,a5,0x9
 b30:	07ac                	addi	a1,sp,968
 b32:	8010                	.insn	2, 0x8010
 b34:	0a00                	addi	s0,sp,272
 b36:	ffff                	.insn	2, 0xffff
 b38:	7d1a                	.insn	2, 0x7d1a
 b3a:	0a00                	addi	s0,sp,272
 b3c:	ffff                	.insn	2, 0xffff
 b3e:	401a                	.insn	2, 0x401a
 b40:	2224                	.insn	2, 0x2224
 b42:	009f 02a2 02a5      	.insn	6, 0x02a502a2009f
 b48:	02a5                	addi	t0,t0,9
 b4a:	038c                	addi	a1,sp,448
 b4c:	ee04                	.insn	2, 0xee04
 b4e:	f305                	bnez	a4,a6e <__data_load_start+0x206>
 b50:	0105                	addi	sp,sp,1
 b52:	05f3045b          	.insn	4, 0x05f3045b
 b56:	07d0                	addi	a2,sp,964
 b58:	6901                	.insn	2, 0x6901
 b5a:	a300                	.insn	2, 0xa300
 b5c:	b702                	.insn	2, 0xb702
 b5e:	b702                	.insn	2, 0xb702
 b60:	8602                	jr	a2
 b62:	89038603          	lb	a2,-1904(t2)
 b66:	8c038903          	lb	s2,-1856(t2)
 b6a:	05f20403          	lb	s0,95(tp) # 5f <_start+0x5f>
 b6e:	06b0                	addi	a2,sp,840
 b70:	6801                	.insn	2, 0x6801
 b72:	b004                	.insn	2, 0xb004
 b74:	c406                	sw	ra,8(sp)
 b76:	00870707          	.insn	4, 0x00870707
 b7a:	2440                	.insn	2, 0x2440
 b7c:	2540                	.insn	2, 0x2540
 b7e:	049f 07c4 07ca      	.insn	6, 0x07ca07c4049f
 b84:	6801                	.insn	2, 0x6801
 b86:	ca04                	sw	s1,16(a2)
 b88:	0707d007          	.insn	4, 0x0707d007
 b8c:	24400087          	.insn	4, 0x24400087
 b90:	2540                	.insn	2, 0x2540
 b92:	009f 02a6 02ab      	.insn	6, 0x02ab02a6009f
 b98:	02af02ab          	.insn	4, 0x02af02ab
 b9c:	02c402af          	.insn	4, 0x02c402af
 ba0:	0386                	slli	t2,t2,0x1
 ba2:	03870387          	.insn	4, 0x03870387
 ba6:	038c                	addi	a1,sp,448
 ba8:	f804                	.insn	2, 0xf804
 baa:	9005                	srli	s0,s0,0x21
 bac:	0106                	slli	sp,sp,0x1
 bae:	0458                	addi	a4,sp,516
 bb0:	0690                	addi	a2,sp,832
 bb2:	069c                	addi	a5,sp,832
 bb4:	9f7f7803          	.insn	4, 0x9f7f7803
 bb8:	9c04                	.insn	2, 0x9c04
 bba:	d606                	sw	ra,44(sp)
 bbc:	0106                	slli	sp,sp,0x1
 bbe:	0458                	addi	a4,sp,516
 bc0:	07c4                	addi	s1,sp,964
 bc2:	07c6                	slli	a5,a5,0x11
 bc4:	9f7f7803          	.insn	4, 0x9f7f7803
 bc8:	c604                	sw	s1,8(a2)
 bca:	0107d007          	.insn	4, 0x0107d007
 bce:	0058                	addi	a4,sp,4
 bd0:	02b502b3          	.insn	4, 0x02b502b3
 bd4:	02b5                	addi	t0,t0,13
 bd6:	02b6                	slli	t0,t0,0xd
 bd8:	02b6                	slli	t0,t0,0xd
 bda:	02bd                	addi	t0,t0,15
 bdc:	02bd                	addi	t0,t0,15
 bde:	02c1                	addi	t0,t0,16
 be0:	02c1                	addi	t0,t0,16
 be2:	0386                	slli	t2,t2,0x1
 be4:	0389                	addi	t2,t2,2
 be6:	038a                	slli	t2,t2,0x2
 be8:	038a                	slli	t2,t2,0x2
 bea:	038c                	addi	a1,sp,448
 bec:	aa04                	.insn	2, 0xaa04
 bee:	ac06                	.insn	2, 0xac06
 bf0:	0106                	slli	sp,sp,0x1
 bf2:	045a                	slli	s0,s0,0x16
 bf4:	06ac                	addi	a1,sp,840
 bf6:	06ad                	addi	a3,a3,11
 bf8:	5b01                	li	s6,-32
 bfa:	ad04                	.insn	2, 0xad04
 bfc:	c406                	sw	ra,8(sp)
 bfe:	0106                	slli	sp,sp,0x1
 c00:	0462                	slli	s0,s0,0x18
 c02:	06c4                	addi	s1,sp,836
 c04:	06d0                	addi	a2,sp,836
 c06:	9f7f8203          	lb	tp,-1545(t6) # fffe09f7 <__stack_top+0xfe7e09f7>
 c0a:	d004                	sw	s1,32(s0)
 c0c:	c406                	sw	ra,8(sp)
 c0e:	04620107          	.insn	4, 0x04620107
 c12:	07ca                	slli	a5,a5,0x12
 c14:	07cc                	addi	a1,sp,964
 c16:	9f7f8203          	lb	tp,-1545(t6)
 c1a:	cc04                	sw	s1,24(s0)
 c1c:	0107d007          	.insn	4, 0x0107d007
 c20:	0062                	c.slli	zero,0x18
 c22:	02a4                	addi	s1,sp,328
 c24:	02a5                	addi	t0,t0,9
 c26:	02a5                	addi	t0,t0,9
 c28:	02a9                	addi	t0,t0,10
 c2a:	02a9                	addi	t0,t0,10
 c2c:	02b0                	addi	a2,sp,328
 c2e:	02b0                	addi	a2,sp,328
 c30:	0386                	slli	t2,t2,0x1
 c32:	0386                	slli	t2,t2,0x1
 c34:	0388                	addi	a0,sp,448
 c36:	0388                	addi	a0,sp,448
 c38:	0389                	addi	t2,t2,2
 c3a:	0389                	addi	t2,t2,2
 c3c:	038c                	addi	a1,sp,448
 c3e:	f204                	.insn	2, 0xf204
 c40:	f305                	bnez	a4,b60 <__data_load_start+0x2f8>
 c42:	0605                	addi	a2,a2,1
 c44:	0079                	c.nop	30
 c46:	9f1d007b          	.insn	4, 0x9f1d007b
 c4a:	f304                	.insn	2, 0xf304
 c4c:	8c05                	sub	s0,s0,s1
 c4e:	0606                	slli	a2,a2,0x1
 c50:	0079                	c.nop	30
 c52:	0089                	addi	ra,ra,2
 c54:	9f1d                	.insn	2, 0x9f1d
 c56:	8c04                	.insn	2, 0x8c04
 c58:	a006                	.insn	2, 0xa006
 c5a:	0106                	slli	sp,sp,0x1
 c5c:	045e                	slli	s0,s0,0x17
 c5e:	06a0                	addi	s0,sp,840
 c60:	07c4                	addi	s1,sp,964
 c62:	5901                	li	s2,-32
 c64:	c404                	sw	s1,8(s0)
 c66:	0107c807          	.insn	4, 0x0107c807
 c6a:	045e                	slli	s0,s0,0x17
 c6c:	07c8                	addi	a0,sp,964
 c6e:	07ca                	slli	a5,a5,0x12
 c70:	4000840b          	.insn	4, 0x4000840b
 c74:	7a25                	lui	s4,0xfffe9
 c76:	2100                	.insn	2, 0x2100
 c78:	9f220087          	.insn	4, 0x9f220087
 c7c:	ca04                	sw	s1,16(a2)
 c7e:	0107d007          	.insn	4, 0x0107d007
 c82:	0059                	c.nop	22
 c84:	02b1                	addi	t0,t0,12
 c86:	02ba                	slli	t0,t0,0xe
 c88:	02ba                	slli	t0,t0,0xe
 c8a:	02c702c7          	.insn	4, 0x02c702c7
 c8e:	0386                	slli	t2,t2,0x1
 c90:	0389                	addi	t2,t2,2
 c92:	038b038b          	.insn	4, 0x038b038b
 c96:	038c                	addi	a1,sp,448
 c98:	a004                	.insn	2, 0xa004
 c9a:	c006                	sw	ra,0(sp)
 c9c:	0606                	slli	a2,a2,0x1
 c9e:	0079                	c.nop	30
 ca0:	0089                	addi	ra,ra,2
 ca2:	9f1d                	.insn	2, 0x9f1d
 ca4:	c004                	sw	s1,0(s0)
 ca6:	e206                	.insn	2, 0xe206
 ca8:	0106                	slli	sp,sp,0x1
 caa:	045f 06e2 07c4      	.insn	6, 0x07c406e2045f
 cb0:	6101                	addi	sp,sp,0
 cb2:	ca04                	sw	s1,16(a2)
 cb4:	0107ce07          	.insn	4, 0x0107ce07
 cb8:	045f 07ce 07d0      	.insn	6, 0x07d007ce045f
 cbe:	840d                	srai	s0,s0,0x3
 cc0:	4000                	lw	s0,0(s0)
 cc2:	4024                	lw	s1,64(s0)
 cc4:	7a25                	lui	s4,0xfffe9
 cc6:	2100                	.insn	2, 0x2100
 cc8:	9f220087          	.insn	4, 0x9f220087
 ccc:	a700                	.insn	2, 0xa700
 cce:	a802                	.insn	2, 0xa802
 cd0:	a802                	.insn	2, 0xa802
 cd2:	b302                	.insn	2, 0xb302
 cd4:	b702                	.insn	2, 0xb702
 cd6:	b902                	.insn	2, 0xb902
 cd8:	b902                	.insn	2, 0xb902
 cda:	8602                	jr	a2
 cdc:	89038603          	lb	a2,-1904(t2)
 ce0:	8c038903          	lb	s2,-1856(t2)
 ce4:	05fe0403          	lb	s0,95(t3)
 ce8:	0682                	c.slli64	a3
 cea:	5a01                	li	s4,-32
 cec:	8204                	.insn	2, 0x8204
 cee:	aa06                	.insn	2, 0xaa06
 cf0:	0106                	slli	sp,sp,0x1
 cf2:	0462                	slli	s0,s0,0x18
 cf4:	06b0                	addi	a2,sp,840
 cf6:	06b4                	addi	a3,sp,840
 cf8:	5a01                	li	s4,-32
 cfa:	b404                	.insn	2, 0xb404
 cfc:	c406                	sw	ra,8(sp)
 cfe:	04680107          	.insn	4, 0x04680107
 d02:	07c4                	addi	s1,sp,964
 d04:	07ca                	slli	a5,a5,0x12
 d06:	6201                	.insn	2, 0x6201
 d08:	ca04                	sw	s1,16(a2)
 d0a:	0107d007          	.insn	4, 0x0107d007
 d0e:	0068                	addi	a0,sp,12
 d10:	02d9                	addi	t0,t0,22
 d12:	02dc                	addi	a5,sp,324
 d14:	02dc                	addi	a5,sp,324
 d16:	02f9                	addi	t0,t0,30
 d18:	ee04                	.insn	2, 0xee04
 d1a:	f206                	.insn	2, 0xf206
 d1c:	0106                	slli	sp,sp,0x1
 d1e:	045a                	slli	s0,s0,0x16
 d20:	06f2                	slli	a3,a3,0x1c
 d22:	07ac                	addi	a1,sp,968
 d24:	6001                	.insn	2, 0x6001
 d26:	e000                	.insn	2, 0xe000
 d28:	e302                	.insn	2, 0xe302
 d2a:	e302                	.insn	2, 0xe302
 d2c:	ee02                	.insn	2, 0xee02
 d2e:	ee02                	.insn	2, 0xee02
 d30:	ef02                	.insn	2, 0xef02
 d32:	f002                	.insn	2, 0xf002
 d34:	fa02                	.insn	2, 0xfa02
 d36:	0402                	c.slli64	s0
 d38:	06fc                	addi	a5,sp,844
 d3a:	0782                	c.slli64	a5
 d3c:	5a01                	li	s4,-32
 d3e:	8204                	.insn	2, 0x8204
 d40:	01079007          	.insn	4, 0x01079007
 d44:	045e                	slli	s0,s0,0x17
 d46:	0790                	addi	a2,sp,960
 d48:	0796                	slli	a5,a5,0x5
 d4a:	8008                	.insn	2, 0x8008
 d4c:	4000                	lw	s0,0(s0)
 d4e:	7e25                	lui	t3,0xfffe9
 d50:	2200                	.insn	2, 0x2200
 d52:	049f 0798 07ae      	.insn	6, 0x07ae0798049f
 d58:	5d01                	li	s10,-32
 d5a:	e600                	.insn	2, 0xe600
 d5c:	8602                	jr	a2
 d5e:	07860403          	lb	s0,120(a2)
 d62:	07c4                	addi	s1,sp,964
 d64:	5601                	li	a2,-32
 d66:	ec00                	.insn	2, 0xec00
 d68:	8602                	jr	a2
 d6a:	07900403          	lb	s0,121(zero) # 79 <trap_entry+0x19>
 d6e:	07c4                	addi	s1,sp,964
 d70:	5a01                	li	s4,-32
 d72:	d300                	sw	s0,32(a4)
 d74:	e602                	.insn	2, 0xe602
 d76:	e602                	.insn	2, 0xe602
 d78:	8602                	jr	a2
 d7a:	06e80403          	lb	s0,110(a6)
 d7e:	0786                	slli	a5,a5,0x1
 d80:	5601                	li	a2,-32
 d82:	8604                	.insn	2, 0x8604
 d84:	0707c407          	.insn	4, 0x0707c407
 d88:	24400083          	lb	ra,580(zero) # 244 <__udivdi3+0x15c>
 d8c:	2540                	.insn	2, 0x2540
 d8e:	009f 02d2 02e3      	.insn	6, 0x02e302d2009f
 d94:	02e502e3          	beq	a0,a4,15b8 <__data_load_start+0xd50>
 d98:	02e5                	addi	t0,t0,25
 d9a:	02e9                	addi	t0,t0,26
 d9c:	02e9                	addi	t0,t0,26
 d9e:	02eb02eb          	.insn	4, 0x02eb02eb
 da2:	0380                	addi	s0,sp,448
 da4:	0380                	addi	s0,sp,448
 da6:	0386                	slli	t2,t2,0x1
 da8:	e804                	.insn	2, 0xe804
 daa:	8206                	mv	tp,ra
 dac:	007f0507          	.insn	4, 0x007f0507
 db0:	2540                	.insn	2, 0x2540
 db2:	049f 0782 0784      	.insn	6, 0x07840782049f
 db8:	5a01                	li	s4,-32
 dba:	8404                	.insn	2, 0x8404
 dbc:	05078e07          	.insn	4, 0x05078e07
 dc0:	007f 2540 049f 078e 	.insn	10, 0x0790078e049f2540007f
 dc8:	0790 
 dca:	5a01                	li	s4,-32
 dcc:	9004                	.insn	2, 0x9004
 dce:	0507c207          	.insn	4, 0x0507c207
 dd2:	007f 2540 049f 07c2 	.insn	10, 0x07c407c2049f2540007f
 dda:	07c4 
 ddc:	7f05                	lui	t5,0xfffe1
 dde:	4001                	c.li	zero,0
 de0:	9f25                	.insn	2, 0x9f25
	...

Disassembly of section .debug_aranges:

00000000 <.debug_aranges>:
   0:	001c                	.insn	2, 0x001c
   2:	0000                	unimp
   4:	0002                	c.slli64	zero
   6:	0000                	unimp
   8:	0000                	unimp
   a:	0004                	.insn	2, 0x0004
   c:	0000                	unimp
   e:	0000                	unimp
  10:	00e8                	addi	a0,sp,76
  12:	0000                	unimp
  14:	03d6                	slli	t2,t2,0x15
	...
  1e:	0000                	unimp
  20:	001c                	.insn	2, 0x001c
  22:	0000                	unimp
  24:	0002                	c.slli64	zero
  26:	0a29                	addi	s4,s4,10 # fffe900a <__stack_top+0xfe7e900a>
  28:	0000                	unimp
  2a:	0004                	.insn	2, 0x0004
  2c:	0000                	unimp
  2e:	0000                	unimp
  30:	04c0                	addi	s0,sp,580
  32:	0000                	unimp
  34:	0014                	.insn	2, 0x0014
	...
  3e:	0000                	unimp
  40:	001c                	.insn	2, 0x001c
  42:	0000                	unimp
  44:	0002                	c.slli64	zero
  46:	0a5a                	slli	s4,s4,0x16
  48:	0000                	unimp
  4a:	0004                	.insn	2, 0x0004
  4c:	0000                	unimp
  4e:	0000                	unimp
  50:	04d4                	addi	a3,sp,580
  52:	0000                	unimp
  54:	007c                	addi	a5,sp,12
	...
  5e:	0000                	unimp
  60:	0014                	.insn	2, 0x0014
  62:	0000                	unimp
  64:	0002                	c.slli64	zero
  66:	0ab8                	addi	a4,sp,344
  68:	0000                	unimp
  6a:	0004                	.insn	2, 0x0004
	...

Disassembly of section .debug_rnglists:

00000000 <.debug_rnglists>:
   0:	00cc                	addi	a1,sp,68
   2:	0000                	unimp
   4:	0005                	c.nop	1
   6:	0004                	.insn	2, 0x0004
   8:	0000                	unimp
   a:	0000                	unimp
   c:	0004                	.insn	2, 0x0004
   e:	0400                	addi	s0,sp,512
  10:	de1a                	sw	t1,60(sp)
  12:	0401                	addi	s0,s0,0
  14:	01fc                	addi	a5,sp,204
  16:	07d6                	slli	a5,a5,0x15
  18:	0400                	addi	s0,sp,512
  1a:	322c                	.insn	2, 0x322c
  1c:	3204                	.insn	2, 0x3204
  1e:	044c                	addi	a1,sp,516
  20:	5654                	lw	a3,44(a2)
  22:	fc04                	.insn	2, 0xfc04
  24:	8a01                	andi	a2,a2,0
  26:	0002                	c.slli64	zero
  28:	6a04                	.insn	2, 0x6a04
  2a:	01de                	slli	gp,gp,0x17
  2c:	8a04                	.insn	2, 0x8a04
  2e:	9402                	jalr	s0
  30:	0002                	c.slli64	zero
  32:	9404                	.insn	2, 0x9404
  34:	9602                	jalr	a2
  36:	0402                	c.slli64	s0
  38:	0298                	addi	a4,sp,320
  3a:	02b4                	addi	a3,sp,328
  3c:	b804                	.insn	2, 0xb804
  3e:	0003c803          	lbu	a6,0(t2)
  42:	c204                	sw	s1,0(a2)
  44:	b802                	.insn	2, 0xb802
  46:	04e60403          	lb	s0,78(a2)
  4a:	04f0                	addi	a2,sp,588
  4c:	0400                	addi	s0,sp,512
  4e:	03d0                	addi	a2,sp,452
  50:	03d4                	addi	a3,sp,452
  52:	e004                	.insn	2, 0xe004
  54:	0403e803          	.insn	4, 0x0403e803
  58:	03ec                	addi	a1,sp,460
  5a:	04e6                	slli	s1,s1,0x19
  5c:	0400                	addi	s0,sp,512
  5e:	04f4                	addi	a3,sp,588
  60:	0594                	addi	a3,sp,704
  62:	9804                	.insn	2, 0x9804
  64:	9a05                	andi	a2,a2,-31
  66:	0405                	addi	s0,s0,1
  68:	05b0                	addi	a2,sp,712
  6a:	05c2                	slli	a1,a1,0x10
  6c:	0400                	addi	s0,sp,512
  6e:	05ac                	addi	a1,sp,712
  70:	05b0                	addi	a2,sp,712
  72:	c204                	sw	s1,0(a2)
  74:	c205                	beqz	a2,94 <trap_entry+0x34>
  76:	07c40407          	.insn	4, 0x07c40407
  7a:	07d0                	addi	a2,sp,964
  7c:	0400                	addi	s0,sp,512
  7e:	05d2                	slli	a1,a1,0x14
  80:	05d6                	slli	a1,a1,0x15
  82:	e204                	.insn	2, 0xe204
  84:	ea05                	bnez	a2,b4 <trap_entry+0x54>
  86:	0405                	addi	s0,s0,1
  88:	05ee                	slli	a1,a1,0x1b
  8a:	06d0                	addi	a2,sp,836
  8c:	d404                	sw	s1,40(s0)
  8e:	d606                	sw	ra,44(sp)
  90:	0406                	slli	s0,s0,0x1
  92:	06de                	slli	a3,a3,0x17
  94:	06e2                	slli	a3,a3,0x18
  96:	e404                	.insn	2, 0xe404
  98:	e806                	.insn	2, 0xe806
  9a:	0406                	slli	s0,s0,0x1
  9c:	07c4                	addi	s1,sp,964
  9e:	07d0                	addi	a2,sp,964
  a0:	0400                	addi	s0,sp,512
  a2:	06d0                	addi	a2,sp,836
  a4:	06d4                	addi	a3,sp,836
  a6:	d604                	sw	s1,40(a2)
  a8:	de06                	sw	ra,60(sp)
  aa:	0406                	slli	s0,s0,0x1
  ac:	06e2                	slli	a3,a3,0x18
  ae:	06e4                	addi	s1,sp,844
  b0:	e804                	.insn	2, 0xe804
  b2:	a606                	.insn	2, 0xa606
  b4:	07aa0407          	.insn	4, 0x07aa0407
  b8:	07b2                	slli	a5,a5,0xc
  ba:	b604                	.insn	2, 0xb604
  bc:	0007b807          	.insn	4, 0x0007b807
  c0:	da04                	sw	s1,48(a2)
  c2:	de06                	sw	ra,60(sp)
  c4:	0406                	slli	s0,s0,0x1
  c6:	06e2                	slli	a3,a3,0x18
  c8:	06e4                	addi	s1,sp,844
  ca:	e804                	.insn	2, 0xe804
  cc:	ee06                	.insn	2, 0xee06
  ce:	0006                	c.slli	zero,0x1

Disassembly of section .debug_line:

00000000 <.debug_line>:
   0:	00000cbf 00040005 	.insn	8, 0x0004000500000cbf
   8:	00000033          	add	zero,zero,zero
   c:	0101                	addi	sp,sp,0
   e:	f601                	bnez	a2,ffffff16 <__stack_top+0xfe7fff16>
  10:	0df2                	slli	s11,s11,0x1c
  12:	0100                	addi	s0,sp,128
  14:	0101                	addi	sp,sp,0
  16:	0001                	nop
  18:	0000                	unimp
  1a:	0001                	nop
  1c:	0100                	addi	s0,sp,128
  1e:	0101                	addi	sp,sp,0
  20:	021f 002b 0000      	.insn	6, 0x002b021f
  26:	008d                	addi	ra,ra,3
  28:	0000                	unimp
  2a:	0102                	c.slli64	sp
  2c:	021f 030b 0000      	.insn	6, 0x030b021f
  32:	0000                	unimp
  34:	1700                	addi	s0,sp,928
  36:	0000                	unimp
  38:	0100                	addi	s0,sp,128
  3a:	0021                	c.nop	8
  3c:	0000                	unimp
  3e:	0001                	nop
  40:	0205                	addi	tp,tp,1 # 1 <_start+0x1>
  42:	00e8                	addi	a0,sp,76
  44:	0000                	unimp
  46:	010a9203          	lh	tp,16(s5)
  4a:	0105                	addi	sp,sp,1
  4c:	0009                	c.nop	2
  4e:	1800                	addi	s0,sp,48
  50:	0305                	addi	t1,t1,1
  52:	0009                	c.nop	2
  54:	0300                	addi	s0,sp,384
  56:	05017dcf          	.insn	4, 0x05017dcf
  5a:	0901                	addi	s2,s2,0
  5c:	0000                	unimp
  5e:	0519                	addi	a0,a0,6 # 34346006 <__stack_top+0x32b46006>
  60:	00000903          	lb	s2,0(zero) # 0 <_start>
  64:	0518                	addi	a4,sp,640
  66:	00000903          	lb	s2,0(zero) # 0 <_start>
  6a:	0518                	addi	a4,sp,640
  6c:	00000903          	lb	s2,0(zero) # 0 <_start>
  70:	0518                	addi	a4,sp,640
  72:	00000903          	lb	s2,0(zero) # 0 <_start>
  76:	0518                	addi	a4,sp,640
  78:	00000903          	lb	s2,0(zero) # 0 <_start>
  7c:	0518                	addi	a4,sp,640
  7e:	00000903          	lb	s2,0(zero) # 0 <_start>
  82:	0519                	addi	a0,a0,6
  84:	00000903          	lb	s2,0(zero) # 0 <_start>
  88:	0518                	addi	a4,sp,640
  8a:	00000903          	lb	s2,0(zero) # 0 <_start>
  8e:	0518                	addi	a4,sp,640
  90:	00000903          	lb	s2,0(zero) # 0 <_start>
  94:	0518                	addi	a4,sp,640
  96:	00000903          	lb	s2,0(zero) # 0 <_start>
  9a:	053c                	addi	a5,sp,648
  9c:	00000903          	lb	s2,0(zero) # 0 <_start>
  a0:	0306                	slli	t1,t1,0x1
  a2:	01ff 0501 0901 0018 	.insn	10, 0x050100180901050101ff
  aa:	0501 
  ac:	0901                	addi	s2,s2,0
  ae:	0002                	c.slli64	zero
  b0:	017e8103          	lb	sp,23(t4)
  b4:	0605                	addi	a2,a2,1
  b6:	0a09                	addi	s4,s4,2
  b8:	0600                	addi	s0,sp,768
  ba:	0519                	addi	a0,a0,6
  bc:	00040907          	.insn	4, 0x00040907
  c0:	0106                	slli	sp,sp,0x1
  c2:	0a05                	addi	s4,s4,1
  c4:	0409                	addi	s0,s0,2
  c6:	0000                	unimp
  c8:	0402                	c.slli64	s0
  ca:	1b01                	addi	s6,s6,-32
  cc:	0405                	addi	s0,s0,1
  ce:	0609                	addi	a2,a2,2
  d0:	0000                	unimp
  d2:	0402                	c.slli64	s0
  d4:	0600                	addi	s0,sp,768
  d6:	0501                	addi	a0,a0,0
  d8:	0904                	addi	s1,sp,144
  da:	0000                	unimp
  dc:	0501                	addi	a0,a0,0
  de:	0904                	addi	s1,sp,144
  e0:	0000                	unimp
  e2:	0501                	addi	a0,a0,0
  e4:	0904                	addi	s1,sp,144
  e6:	0000                	unimp
  e8:	0501                	addi	a0,a0,0
  ea:	0904                	addi	s1,sp,144
  ec:	0000                	unimp
  ee:	0200                	addi	s0,sp,256
  f0:	0104                	addi	s1,sp,128
  f2:	0501                	addi	a0,a0,0
  f4:	0904                	addi	s1,sp,144
  f6:	0004                	.insn	2, 0x0004
  f8:	0200                	addi	s0,sp,256
  fa:	0304                	addi	s1,sp,384
  fc:	0106                	slli	sp,sp,0x1
  fe:	0405                	addi	s0,s0,1
 100:	0a09                	addi	s4,s4,2
 102:	0000                	unimp
 104:	0402                	c.slli64	s0
 106:	060e                	slli	a2,a2,0x3
 108:	0501                	addi	a0,a0,0
 10a:	0904                	addi	s1,sp,144
 10c:	000c                	.insn	2, 0x000c
 10e:	0106                	slli	sp,sp,0x1
 110:	0405                	addi	s0,s0,1
 112:	0009                	c.nop	2
 114:	0000                	unimp
 116:	0402                	c.slli64	s0
 118:	0600                	addi	s0,sp,768
 11a:	0501                	addi	a0,a0,0
 11c:	0904                	addi	s1,sp,144
 11e:	0000                	unimp
 120:	0519                	addi	a0,a0,6
 122:	0904                	addi	s1,sp,144
 124:	0000                	unimp
 126:	0106                	slli	sp,sp,0x1
 128:	0705                	addi	a4,a4,1
 12a:	0409                	addi	s0,s0,2
 12c:	0100                	addi	s0,sp,128
 12e:	0705                	addi	a4,a4,1
 130:	0409                	addi	s0,s0,2
 132:	0000                	unimp
 134:	0402                	c.slli64	s0
 136:	150e                	slli	a0,a0,0x23
 138:	0405                	addi	s0,s0,1
 13a:	0209                	addi	tp,tp,2 # 2 <_start+0x2>
 13c:	0100                	addi	s0,sp,128
 13e:	0405                	addi	s0,s0,1
 140:	0009                	c.nop	2
 142:	0000                	unimp
 144:	0402                	c.slli64	s0
 146:	0600                	addi	s0,sp,768
 148:	051e                	slli	a0,a0,0x7
 14a:	0908                	addi	a0,sp,144
 14c:	0000                	unimp
 14e:	1806                	slli	a6,a6,0x21
 150:	1105                	addi	sp,sp,-31
 152:	0409                	addi	s0,s0,2
 154:	0100                	addi	s0,sp,128
 156:	1e05                	addi	t3,t3,-31 # fffe8fe1 <__stack_top+0xfe7e8fe1>
 158:	0409                	addi	s0,s0,2
 15a:	1600                	addi	s0,sp,800
 15c:	0b05                	addi	s6,s6,1
 15e:	0409                	addi	s0,s0,2
 160:	0600                	addi	s0,sp,768
 162:	0518                	addi	a4,sp,640
 164:	0908                	addi	a0,sp,144
 166:	0000                	unimp
 168:	0106                	slli	sp,sp,0x1
 16a:	0b05                	addi	s6,s6,1
 16c:	0409                	addi	s0,s0,2
 16e:	0600                	addi	s0,sp,768
 170:	0518                	addi	a4,sp,640
 172:	0908                	addi	a0,sp,144
 174:	0000                	unimp
 176:	0106                	slli	sp,sp,0x1
 178:	0b05                	addi	s6,s6,1
 17a:	0409                	addi	s0,s0,2
 17c:	0600                	addi	s0,sp,768
 17e:	051a                	slli	a0,a0,0x6
 180:	0904                	addi	s1,sp,144
 182:	0000                	unimp
 184:	0501                	addi	a0,a0,0
 186:	0904                	addi	s1,sp,144
 188:	0000                	unimp
 18a:	0501                	addi	a0,a0,0
 18c:	0904                	addi	s1,sp,144
 18e:	0000                	unimp
 190:	0501                	addi	a0,a0,0
 192:	0904                	addi	s1,sp,144
 194:	0004                	.insn	2, 0x0004
 196:	0501                	addi	a0,a0,0
 198:	0904                	addi	s1,sp,144
 19a:	0002                	c.slli64	zero
 19c:	0106                	slli	sp,sp,0x1
 19e:	0405                	addi	s0,s0,1
 1a0:	0609                	addi	a2,a2,2
 1a2:	0100                	addi	s0,sp,128
 1a4:	0405                	addi	s0,s0,1
 1a6:	0209                	addi	tp,tp,2 # 2 <_start+0x2>
 1a8:	0100                	addi	s0,sp,128
 1aa:	0405                	addi	s0,s0,1
 1ac:	0409                	addi	s0,s0,2
 1ae:	0600                	addi	s0,sp,768
 1b0:	0501                	addi	a0,a0,0
 1b2:	0904                	addi	s1,sp,144
 1b4:	0000                	unimp
 1b6:	0501                	addi	a0,a0,0
 1b8:	0904                	addi	s1,sp,144
 1ba:	0004                	.insn	2, 0x0004
 1bc:	0501                	addi	a0,a0,0
 1be:	0904                	addi	s1,sp,144
 1c0:	0002                	c.slli64	zero
 1c2:	0106                	slli	sp,sp,0x1
 1c4:	0405                	addi	s0,s0,1
 1c6:	0209                	addi	tp,tp,2 # 2 <_start+0x2>
 1c8:	0100                	addi	s0,sp,128
 1ca:	0405                	addi	s0,s0,1
 1cc:	0209                	addi	tp,tp,2 # 2 <_start+0x2>
 1ce:	0600                	addi	s0,sp,768
 1d0:	0501                	addi	a0,a0,0
 1d2:	0904                	addi	s1,sp,144
 1d4:	000e                	c.slli	zero,0x3
 1d6:	0501                	addi	a0,a0,0
 1d8:	0904                	addi	s1,sp,144
 1da:	0004                	.insn	2, 0x0004
 1dc:	0200                	addi	s0,sp,256
 1de:	0104                	addi	s1,sp,128
 1e0:	0501                	addi	a0,a0,0
 1e2:	0904                	addi	s1,sp,144
 1e4:	0000                	unimp
 1e6:	0106                	slli	sp,sp,0x1
 1e8:	0405                	addi	s0,s0,1
 1ea:	0209                	addi	tp,tp,2 # 2 <_start+0x2>
 1ec:	0000                	unimp
 1ee:	0402                	c.slli64	s0
 1f0:	0600                	addi	s0,sp,768
 1f2:	0501                	addi	a0,a0,0
 1f4:	0904                	addi	s1,sp,144
 1f6:	0000                	unimp
 1f8:	0200                	addi	s0,sp,256
 1fa:	0304                	addi	s1,sp,384
 1fc:	0501                	addi	a0,a0,0
 1fe:	0904                	addi	s1,sp,144
 200:	0008                	.insn	2, 0x0008
 202:	0200                	addi	s0,sp,256
 204:	0104                	addi	s1,sp,128
 206:	0106                	slli	sp,sp,0x1
 208:	0405                	addi	s0,s0,1
 20a:	0209                	addi	tp,tp,2 # 2 <_start+0x2>
 20c:	0000                	unimp
 20e:	0402                	c.slli64	s0
 210:	05010607          	.insn	4, 0x05010607
 214:	0904                	addi	s1,sp,144
 216:	0004                	.insn	2, 0x0004
 218:	0200                	addi	s0,sp,256
 21a:	0004                	.insn	2, 0x0004
 21c:	0501                	addi	a0,a0,0
 21e:	0904                	addi	s1,sp,144
 220:	0000                	unimp
 222:	0501                	addi	a0,a0,0
 224:	0904                	addi	s1,sp,144
 226:	0000                	unimp
 228:	0200                	addi	s0,sp,256
 22a:	0704                	addi	s1,sp,896
 22c:	0106                	slli	sp,sp,0x1
 22e:	0405                	addi	s0,s0,1
 230:	0a09                	addi	s4,s4,2
 232:	0000                	unimp
 234:	0402                	c.slli64	s0
 236:	0600                	addi	s0,sp,768
 238:	0501                	addi	a0,a0,0
 23a:	0904                	addi	s1,sp,144
 23c:	0000                	unimp
 23e:	0200                	addi	s0,sp,256
 240:	0704                	addi	s1,sp,896
 242:	0106                	slli	sp,sp,0x1
 244:	0405                	addi	s0,s0,1
 246:	0209                	addi	tp,tp,2 # 2 <_start+0x2>
 248:	0100                	addi	s0,sp,128
 24a:	0405                	addi	s0,s0,1
 24c:	0209                	addi	tp,tp,2 # 2 <_start+0x2>
 24e:	0100                	addi	s0,sp,128
 250:	0405                	addi	s0,s0,1
 252:	0209                	addi	tp,tp,2 # 2 <_start+0x2>
 254:	0000                	unimp
 256:	0402                	c.slli64	s0
 258:	0600                	addi	s0,sp,768
 25a:	0501                	addi	a0,a0,0
 25c:	0904                	addi	s1,sp,144
 25e:	0000                	unimp
 260:	0200                	addi	s0,sp,256
 262:	0704                	addi	s1,sp,896
 264:	0106                	slli	sp,sp,0x1
 266:	0405                	addi	s0,s0,1
 268:	0409                	addi	s0,s0,2
 26a:	0100                	addi	s0,sp,128
 26c:	0405                	addi	s0,s0,1
 26e:	0409                	addi	s0,s0,2
 270:	0100                	addi	s0,sp,128
 272:	0405                	addi	s0,s0,1
 274:	0609                	addi	a2,a2,2
 276:	0000                	unimp
 278:	0402                	c.slli64	s0
 27a:	0600                	addi	s0,sp,768
 27c:	0501                	addi	a0,a0,0
 27e:	0904                	addi	s1,sp,144
 280:	0000                	unimp
 282:	0200                	addi	s0,sp,256
 284:	0704                	addi	s1,sp,896
 286:	0106                	slli	sp,sp,0x1
 288:	0405                	addi	s0,s0,1
 28a:	0409                	addi	s0,s0,2
 28c:	0000                	unimp
 28e:	0402                	c.slli64	s0
 290:	0608                	addi	a0,sp,768
 292:	0501                	addi	a0,a0,0
 294:	0904                	addi	s1,sp,144
 296:	0000                	unimp
 298:	0106                	slli	sp,sp,0x1
 29a:	0405                	addi	s0,s0,1
 29c:	0209                	addi	tp,tp,2 # 2 <_start+0x2>
 29e:	0000                	unimp
 2a0:	0402                	c.slli64	s0
 2a2:	0600                	addi	s0,sp,768
 2a4:	0501                	addi	a0,a0,0
 2a6:	0904                	addi	s1,sp,144
 2a8:	0000                	unimp
 2aa:	0200                	addi	s0,sp,256
 2ac:	0a04                	addi	s1,sp,272
 2ae:	0501                	addi	a0,a0,0
 2b0:	0904                	addi	s1,sp,144
 2b2:	0008                	.insn	2, 0x0008
 2b4:	0200                	addi	s0,sp,256
 2b6:	0804                	addi	s1,sp,16
 2b8:	0106                	slli	sp,sp,0x1
 2ba:	0405                	addi	s0,s0,1
 2bc:	0209                	addi	tp,tp,2 # 2 <_start+0x2>
 2be:	0000                	unimp
 2c0:	0402                	c.slli64	s0
 2c2:	060e                	slli	a2,a2,0x3
 2c4:	0501                	addi	a0,a0,0
 2c6:	0904                	addi	s1,sp,144
 2c8:	0000                	unimp
 2ca:	0200                	addi	s0,sp,256
 2cc:	0004                	.insn	2, 0x0004
 2ce:	0501                	addi	a0,a0,0
 2d0:	0904                	addi	s1,sp,144
 2d2:	0000                	unimp
 2d4:	0200                	addi	s0,sp,256
 2d6:	0e04                	addi	s1,sp,784
 2d8:	0106                	slli	sp,sp,0x1
 2da:	0405                	addi	s0,s0,1
 2dc:	0809                	addi	a6,a6,2
 2de:	0000                	unimp
 2e0:	0402                	c.slli64	s0
 2e2:	0600                	addi	s0,sp,768
 2e4:	0501                	addi	a0,a0,0
 2e6:	0904                	addi	s1,sp,144
 2e8:	0000                	unimp
 2ea:	0106                	slli	sp,sp,0x1
 2ec:	0405                	addi	s0,s0,1
 2ee:	0009                	c.nop	2
 2f0:	0600                	addi	s0,sp,768
 2f2:	0501                	addi	a0,a0,0
 2f4:	0904                	addi	s1,sp,144
 2f6:	0000                	unimp
 2f8:	0518                	addi	a4,sp,640
 2fa:	0904                	addi	s1,sp,144
 2fc:	0000                	unimp
 2fe:	090305a3          	sb	a6,139(t1)
 302:	0000                	unimp
 304:	0518                	addi	a4,sp,640
 306:	00000903          	lb	s2,0(zero) # 0 <_start>
 30a:	0106                	slli	sp,sp,0x1
 30c:	0305                	addi	t1,t1,1
 30e:	0009                	c.nop	2
 310:	7800                	.insn	2, 0x7800
 312:	0105                	addi	sp,sp,1
 314:	1e09                	addi	t3,t3,-30
 316:	0000                	unimp
 318:	0402                	c.slli64	s0
 31a:	0304                	addi	s1,sp,384
 31c:	7e85                	lui	t4,0xfffe1
 31e:	0501                	addi	a0,a0,0
 320:	0904                	addi	s1,sp,144
 322:	0004                	.insn	2, 0x0004
 324:	0200                	addi	s0,sp,256
 326:	0804                	addi	s1,sp,16
 328:	0501                	addi	a0,a0,0
 32a:	0904                	addi	s1,sp,144
 32c:	0002                	c.slli64	zero
 32e:	0200                	addi	s0,sp,256
 330:	0404                	addi	s1,sp,512
 332:	0501                	addi	a0,a0,0
 334:	0904                	addi	s1,sp,144
 336:	0004                	.insn	2, 0x0004
 338:	0200                	addi	s0,sp,256
 33a:	0704                	addi	s1,sp,896
 33c:	0501                	addi	a0,a0,0
 33e:	0904                	addi	s1,sp,144
 340:	0004                	.insn	2, 0x0004
 342:	0501                	addi	a0,a0,0
 344:	0904                	addi	s1,sp,144
 346:	0000                	unimp
 348:	0200                	addi	s0,sp,256
 34a:	0504                	addi	s1,sp,640
 34c:	2306                	.insn	2, 0x2306
 34e:	0405                	addi	s0,s0,1
 350:	0209                	addi	tp,tp,2 # 2 <_start+0x2>
 352:	0600                	addi	s0,sp,768
 354:	0501                	addi	a0,a0,0
 356:	0904                	addi	s1,sp,144
 358:	0002                	c.slli64	zero
 35a:	0501                	addi	a0,a0,0
 35c:	0904                	addi	s1,sp,144
 35e:	0002                	c.slli64	zero
 360:	0200                	addi	s0,sp,256
 362:	0c04                	addi	s1,sp,528
 364:	0106                	slli	sp,sp,0x1
 366:	0405                	addi	s0,s0,1
 368:	0209                	addi	tp,tp,2 # 2 <_start+0x2>
 36a:	0600                	addi	s0,sp,768
 36c:	0501                	addi	a0,a0,0
 36e:	0904                	addi	s1,sp,144
 370:	0002                	c.slli64	zero
 372:	0501                	addi	a0,a0,0
 374:	0904                	addi	s1,sp,144
 376:	0000                	unimp
 378:	0200                	addi	s0,sp,256
 37a:	0004                	.insn	2, 0x0004
 37c:	2006                	.insn	2, 0x2006
 37e:	0405                	addi	s0,s0,1
 380:	0009                	c.nop	2
 382:	0000                	unimp
 384:	0402                	c.slli64	s0
 386:	0605                	addi	a2,a2,1
 388:	051a                	slli	a0,a0,0x6
 38a:	0904                	addi	s1,sp,144
 38c:	0002                	c.slli64	zero
 38e:	0200                	addi	s0,sp,256
 390:	0004                	.insn	2, 0x0004
 392:	0514                	addi	a3,sp,640
 394:	00020907          	.insn	4, 0x00020907
 398:	1a06                	slli	s4,s4,0x21
 39a:	0405                	addi	s0,s0,1
 39c:	0009                	c.nop	2
 39e:	0100                	addi	s0,sp,128
 3a0:	0405                	addi	s0,s0,1
 3a2:	0009                	c.nop	2
 3a4:	0100                	addi	s0,sp,128
 3a6:	0405                	addi	s0,s0,1
 3a8:	0009                	c.nop	2
 3aa:	0100                	addi	s0,sp,128
 3ac:	0405                	addi	s0,s0,1
 3ae:	0009                	c.nop	2
 3b0:	0000                	unimp
 3b2:	0402                	c.slli64	s0
 3b4:	0101                	addi	sp,sp,0
 3b6:	0405                	addi	s0,s0,1
 3b8:	0609                	addi	a2,a2,2
 3ba:	0000                	unimp
 3bc:	0402                	c.slli64	s0
 3be:	05010603          	lb	a2,80(sp)
 3c2:	0904                	addi	s1,sp,144
 3c4:	000a                	c.slli	zero,0x2
 3c6:	0200                	addi	s0,sp,256
 3c8:	0e04                	addi	s1,sp,784
 3ca:	0106                	slli	sp,sp,0x1
 3cc:	0405                	addi	s0,s0,1
 3ce:	0c09                	addi	s8,s8,2
 3d0:	0600                	addi	s0,sp,768
 3d2:	0501                	addi	a0,a0,0
 3d4:	0904                	addi	s1,sp,144
 3d6:	0000                	unimp
 3d8:	0200                	addi	s0,sp,256
 3da:	0004                	.insn	2, 0x0004
 3dc:	0106                	slli	sp,sp,0x1
 3de:	0405                	addi	s0,s0,1
 3e0:	0009                	c.nop	2
 3e2:	1900                	addi	s0,sp,176
 3e4:	0405                	addi	s0,s0,1
 3e6:	0009                	c.nop	2
 3e8:	0600                	addi	s0,sp,768
 3ea:	0501                	addi	a0,a0,0
 3ec:	00040907          	.insn	4, 0x00040907
 3f0:	0501                	addi	a0,a0,0
 3f2:	00040907          	.insn	4, 0x00040907
 3f6:	2006                	.insn	2, 0x2006
 3f8:	0805                	addi	a6,a6,1
 3fa:	0009                	c.nop	2
 3fc:	0600                	addi	s0,sp,768
 3fe:	0501                	addi	a0,a0,0
 400:	0004090b          	.insn	4, 0x0004090b
 404:	1806                	slli	a6,a6,0x21
 406:	0805                	addi	a6,a6,1
 408:	0009                	c.nop	2
 40a:	0600                	addi	s0,sp,768
 40c:	0501                	addi	a0,a0,0
 40e:	0002090b          	.insn	4, 0x0002090b
 412:	2406                	.insn	2, 0x2406
 414:	0805                	addi	a6,a6,1
 416:	0009                	c.nop	2
 418:	1c00                	addi	s0,sp,560
 41a:	0405                	addi	s0,s0,1
 41c:	0009                	c.nop	2
 41e:	0100                	addi	s0,sp,128
 420:	0405                	addi	s0,s0,1
 422:	0009                	c.nop	2
 424:	0100                	addi	s0,sp,128
 426:	0405                	addi	s0,s0,1
 428:	0009                	c.nop	2
 42a:	0100                	addi	s0,sp,128
 42c:	0405                	addi	s0,s0,1
 42e:	0409                	addi	s0,s0,2
 430:	0100                	addi	s0,sp,128
 432:	0405                	addi	s0,s0,1
 434:	0e09                	addi	t3,t3,2
 436:	0100                	addi	s0,sp,128
 438:	0405                	addi	s0,s0,1
 43a:	0009                	c.nop	2
 43c:	0100                	addi	s0,sp,128
 43e:	0405                	addi	s0,s0,1
 440:	0409                	addi	s0,s0,2
 442:	0100                	addi	s0,sp,128
 444:	0405                	addi	s0,s0,1
 446:	0209                	addi	tp,tp,2 # 2 <_start+0x2>
 448:	0600                	addi	s0,sp,768
 44a:	0501                	addi	a0,a0,0
 44c:	0904                	addi	s1,sp,144
 44e:	0002                	c.slli64	zero
 450:	0501                	addi	a0,a0,0
 452:	0904                	addi	s1,sp,144
 454:	0002                	c.slli64	zero
 456:	0106                	slli	sp,sp,0x1
 458:	0405                	addi	s0,s0,1
 45a:	0409                	addi	s0,s0,2
 45c:	0600                	addi	s0,sp,768
 45e:	0501                	addi	a0,a0,0
 460:	0904                	addi	s1,sp,144
 462:	000a                	c.slli	zero,0x2
 464:	0106                	slli	sp,sp,0x1
 466:	0405                	addi	s0,s0,1
 468:	0409                	addi	s0,s0,2
 46a:	0000                	unimp
 46c:	0402                	c.slli64	s0
 46e:	0101                	addi	sp,sp,0
 470:	0405                	addi	s0,s0,1
 472:	0009                	c.nop	2
 474:	0600                	addi	s0,sp,768
 476:	0501                	addi	a0,a0,0
 478:	0904                	addi	s1,sp,144
 47a:	0002                	c.slli64	zero
 47c:	0200                	addi	s0,sp,256
 47e:	0004                	.insn	2, 0x0004
 480:	0106                	slli	sp,sp,0x1
 482:	0405                	addi	s0,s0,1
 484:	0009                	c.nop	2
 486:	0000                	unimp
 488:	0402                	c.slli64	s0
 48a:	04050103          	lb	sp,64(a0)
 48e:	0809                	addi	a6,a6,2
 490:	0000                	unimp
 492:	0402                	c.slli64	s0
 494:	0601                	addi	a2,a2,0
 496:	0501                	addi	a0,a0,0
 498:	0904                	addi	s1,sp,144
 49a:	0002                	c.slli64	zero
 49c:	0200                	addi	s0,sp,256
 49e:	0704                	addi	s1,sp,896
 4a0:	0106                	slli	sp,sp,0x1
 4a2:	0405                	addi	s0,s0,1
 4a4:	0409                	addi	s0,s0,2
 4a6:	0000                	unimp
 4a8:	0402                	c.slli64	s0
 4aa:	0100                	addi	s0,sp,128
 4ac:	0405                	addi	s0,s0,1
 4ae:	0009                	c.nop	2
 4b0:	0100                	addi	s0,sp,128
 4b2:	0405                	addi	s0,s0,1
 4b4:	0009                	c.nop	2
 4b6:	0000                	unimp
 4b8:	0402                	c.slli64	s0
 4ba:	05010607          	.insn	4, 0x05010607
 4be:	0904                	addi	s1,sp,144
 4c0:	000a                	c.slli	zero,0x2
 4c2:	0200                	addi	s0,sp,256
 4c4:	0004                	.insn	2, 0x0004
 4c6:	0106                	slli	sp,sp,0x1
 4c8:	0405                	addi	s0,s0,1
 4ca:	0009                	c.nop	2
 4cc:	0000                	unimp
 4ce:	0402                	c.slli64	s0
 4d0:	05010607          	.insn	4, 0x05010607
 4d4:	0904                	addi	s1,sp,144
 4d6:	0002                	c.slli64	zero
 4d8:	0501                	addi	a0,a0,0
 4da:	0904                	addi	s1,sp,144
 4dc:	0002                	c.slli64	zero
 4de:	0501                	addi	a0,a0,0
 4e0:	0904                	addi	s1,sp,144
 4e2:	0002                	c.slli64	zero
 4e4:	0200                	addi	s0,sp,256
 4e6:	0004                	.insn	2, 0x0004
 4e8:	0106                	slli	sp,sp,0x1
 4ea:	0405                	addi	s0,s0,1
 4ec:	0009                	c.nop	2
 4ee:	0000                	unimp
 4f0:	0402                	c.slli64	s0
 4f2:	05010607          	.insn	4, 0x05010607
 4f6:	0904                	addi	s1,sp,144
 4f8:	0004                	.insn	2, 0x0004
 4fa:	0501                	addi	a0,a0,0
 4fc:	0904                	addi	s1,sp,144
 4fe:	0004                	.insn	2, 0x0004
 500:	0501                	addi	a0,a0,0
 502:	0904                	addi	s1,sp,144
 504:	0006                	c.slli	zero,0x1
 506:	0200                	addi	s0,sp,256
 508:	0004                	.insn	2, 0x0004
 50a:	0106                	slli	sp,sp,0x1
 50c:	0405                	addi	s0,s0,1
 50e:	0009                	c.nop	2
 510:	0000                	unimp
 512:	0402                	c.slli64	s0
 514:	05010607          	.insn	4, 0x05010607
 518:	0904                	addi	s1,sp,144
 51a:	0004                	.insn	2, 0x0004
 51c:	0200                	addi	s0,sp,256
 51e:	0804                	addi	s1,sp,16
 520:	0106                	slli	sp,sp,0x1
 522:	0405                	addi	s0,s0,1
 524:	0009                	c.nop	2
 526:	0600                	addi	s0,sp,768
 528:	0501                	addi	a0,a0,0
 52a:	0904                	addi	s1,sp,144
 52c:	0002                	c.slli64	zero
 52e:	0200                	addi	s0,sp,256
 530:	0004                	.insn	2, 0x0004
 532:	0106                	slli	sp,sp,0x1
 534:	0405                	addi	s0,s0,1
 536:	0009                	c.nop	2
 538:	0000                	unimp
 53a:	0402                	c.slli64	s0
 53c:	010a                	slli	sp,sp,0x2
 53e:	0405                	addi	s0,s0,1
 540:	0809                	addi	a6,a6,2
 542:	0000                	unimp
 544:	0402                	c.slli64	s0
 546:	0608                	addi	a0,sp,768
 548:	0501                	addi	a0,a0,0
 54a:	0904                	addi	s1,sp,144
 54c:	0002                	c.slli64	zero
 54e:	0200                	addi	s0,sp,256
 550:	0e04                	addi	s1,sp,784
 552:	0106                	slli	sp,sp,0x1
 554:	0405                	addi	s0,s0,1
 556:	0009                	c.nop	2
 558:	0000                	unimp
 55a:	0402                	c.slli64	s0
 55c:	0100                	addi	s0,sp,128
 55e:	0405                	addi	s0,s0,1
 560:	0009                	c.nop	2
 562:	0000                	unimp
 564:	0402                	c.slli64	s0
 566:	060e                	slli	a2,a2,0x3
 568:	0501                	addi	a0,a0,0
 56a:	0904                	addi	s1,sp,144
 56c:	0008                	.insn	2, 0x0008
 56e:	0200                	addi	s0,sp,256
 570:	0004                	.insn	2, 0x0004
 572:	0106                	slli	sp,sp,0x1
 574:	0405                	addi	s0,s0,1
 576:	0009                	c.nop	2
 578:	0600                	addi	s0,sp,768
 57a:	0501                	addi	a0,a0,0
 57c:	0904                	addi	s1,sp,144
 57e:	0002                	c.slli64	zero
 580:	0501                	addi	a0,a0,0
 582:	0904                	addi	s1,sp,144
 584:	0000                	unimp
 586:	0200                	addi	s0,sp,256
 588:	0404                	addi	s1,sp,512
 58a:	05016203          	.insn	4, 0x05016203
 58e:	0904                	addi	s1,sp,144
 590:	0004                	.insn	2, 0x0004
 592:	0200                	addi	s0,sp,256
 594:	0804                	addi	s1,sp,16
 596:	0501                	addi	a0,a0,0
 598:	0904                	addi	s1,sp,144
 59a:	0002                	c.slli64	zero
 59c:	0200                	addi	s0,sp,256
 59e:	0404                	addi	s1,sp,512
 5a0:	0501                	addi	a0,a0,0
 5a2:	0904                	addi	s1,sp,144
 5a4:	0004                	.insn	2, 0x0004
 5a6:	0200                	addi	s0,sp,256
 5a8:	0704                	addi	s1,sp,896
 5aa:	0501                	addi	a0,a0,0
 5ac:	0904                	addi	s1,sp,144
 5ae:	0004                	.insn	2, 0x0004
 5b0:	0200                	addi	s0,sp,256
 5b2:	0e04                	addi	s1,sp,784
 5b4:	0501                	addi	a0,a0,0
 5b6:	0904                	addi	s1,sp,144
 5b8:	0002                	c.slli64	zero
 5ba:	0200                	addi	s0,sp,256
 5bc:	0004                	.insn	2, 0x0004
 5be:	2906                	.insn	2, 0x2906
 5c0:	0805                	addi	a6,a6,1
 5c2:	0009                	c.nop	2
 5c4:	1900                	addi	s0,sp,176
 5c6:	0805                	addi	a6,a6,1
 5c8:	0009                	c.nop	2
 5ca:	0600                	addi	s0,sp,768
 5cc:	0501                	addi	a0,a0,0
 5ce:	0004090b          	.insn	4, 0x0004090b
 5d2:	1806                	slli	a6,a6,0x21
 5d4:	0805                	addi	a6,a6,1
 5d6:	0009                	c.nop	2
 5d8:	0600                	addi	s0,sp,768
 5da:	0501                	addi	a0,a0,0
 5dc:	0004090b          	.insn	4, 0x0004090b
 5e0:	1806                	slli	a6,a6,0x21
 5e2:	0805                	addi	a6,a6,1
 5e4:	0009                	c.nop	2
 5e6:	0600                	addi	s0,sp,768
 5e8:	051a                	slli	a0,a0,0x6
 5ea:	0908                	addi	a0,sp,144
 5ec:	0004                	.insn	2, 0x0004
 5ee:	0514                	addi	a3,sp,640
 5f0:	0911                	addi	s2,s2,4
 5f2:	0004                	.insn	2, 0x0004
 5f4:	0501                	addi	a0,a0,0
 5f6:	091e                	slli	s2,s2,0x7
 5f8:	0004                	.insn	2, 0x0004
 5fa:	0501                	addi	a0,a0,0
 5fc:	0004090b          	.insn	4, 0x0004090b
 600:	1806                	slli	a6,a6,0x21
 602:	0805                	addi	a6,a6,1
 604:	0009                	c.nop	2
 606:	0600                	addi	s0,sp,768
 608:	0519                	addi	a0,a0,6
 60a:	0908                	addi	a0,sp,144
 60c:	0008                	.insn	2, 0x0008
 60e:	0501                	addi	a0,a0,0
 610:	0908                	addi	a0,sp,144
 612:	0000                	unimp
 614:	0515                	addi	a0,a0,5
 616:	0004090b          	.insn	4, 0x0004090b
 61a:	1906                	slli	s2,s2,0x21
 61c:	0805                	addi	a6,a6,1
 61e:	0009                	c.nop	2
 620:	0100                	addi	s0,sp,128
 622:	0805                	addi	a6,a6,1
 624:	0009                	c.nop	2
 626:	0100                	addi	s0,sp,128
 628:	0805                	addi	a6,a6,1
 62a:	0009                	c.nop	2
 62c:	0100                	addi	s0,sp,128
 62e:	0805                	addi	a6,a6,1
 630:	0009                	c.nop	2
 632:	0100                	addi	s0,sp,128
 634:	0805                	addi	a6,a6,1
 636:	0409                	addi	s0,s0,2
 638:	0100                	addi	s0,sp,128
 63a:	0805                	addi	a6,a6,1
 63c:	0009                	c.nop	2
 63e:	0100                	addi	s0,sp,128
 640:	0805                	addi	a6,a6,1
 642:	0209                	addi	tp,tp,2 # 2 <_start+0x2>
 644:	0600                	addi	s0,sp,768
 646:	0501                	addi	a0,a0,0
 648:	0908                	addi	a0,sp,144
 64a:	0004                	.insn	2, 0x0004
 64c:	0106                	slli	sp,sp,0x1
 64e:	0805                	addi	a6,a6,1
 650:	0209                	addi	tp,tp,2 # 2 <_start+0x2>
 652:	0600                	addi	s0,sp,768
 654:	0501                	addi	a0,a0,0
 656:	0908                	addi	a0,sp,144
 658:	0002                	c.slli64	zero
 65a:	0501                	addi	a0,a0,0
 65c:	0908                	addi	a0,sp,144
 65e:	0002                	c.slli64	zero
 660:	0106                	slli	sp,sp,0x1
 662:	0805                	addi	a6,a6,1
 664:	0409                	addi	s0,s0,2
 666:	0600                	addi	s0,sp,768
 668:	0501                	addi	a0,a0,0
 66a:	0908                	addi	a0,sp,144
 66c:	000a                	c.slli	zero,0x2
 66e:	0106                	slli	sp,sp,0x1
 670:	0805                	addi	a6,a6,1
 672:	0409                	addi	s0,s0,2
 674:	0000                	unimp
 676:	0402                	c.slli64	s0
 678:	0101                	addi	sp,sp,0
 67a:	0805                	addi	a6,a6,1
 67c:	0009                	c.nop	2
 67e:	0600                	addi	s0,sp,768
 680:	0501                	addi	a0,a0,0
 682:	0908                	addi	a0,sp,144
 684:	0002                	c.slli64	zero
 686:	0200                	addi	s0,sp,256
 688:	0004                	.insn	2, 0x0004
 68a:	0106                	slli	sp,sp,0x1
 68c:	0805                	addi	a6,a6,1
 68e:	0009                	c.nop	2
 690:	0000                	unimp
 692:	0402                	c.slli64	s0
 694:	08050103          	lb	sp,128(a0)
 698:	0809                	addi	a6,a6,2
 69a:	0000                	unimp
 69c:	0402                	c.slli64	s0
 69e:	0601                	addi	a2,a2,0
 6a0:	0501                	addi	a0,a0,0
 6a2:	0908                	addi	a0,sp,144
 6a4:	0002                	c.slli64	zero
 6a6:	0200                	addi	s0,sp,256
 6a8:	0704                	addi	s1,sp,896
 6aa:	0106                	slli	sp,sp,0x1
 6ac:	0805                	addi	a6,a6,1
 6ae:	0409                	addi	s0,s0,2
 6b0:	0000                	unimp
 6b2:	0402                	c.slli64	s0
 6b4:	0100                	addi	s0,sp,128
 6b6:	0805                	addi	a6,a6,1
 6b8:	0009                	c.nop	2
 6ba:	0100                	addi	s0,sp,128
 6bc:	0805                	addi	a6,a6,1
 6be:	0009                	c.nop	2
 6c0:	0000                	unimp
 6c2:	0402                	c.slli64	s0
 6c4:	05010607          	.insn	4, 0x05010607
 6c8:	0908                	addi	a0,sp,144
 6ca:	000a                	c.slli	zero,0x2
 6cc:	0200                	addi	s0,sp,256
 6ce:	0004                	.insn	2, 0x0004
 6d0:	0106                	slli	sp,sp,0x1
 6d2:	0805                	addi	a6,a6,1
 6d4:	0009                	c.nop	2
 6d6:	0000                	unimp
 6d8:	0402                	c.slli64	s0
 6da:	05010607          	.insn	4, 0x05010607
 6de:	0908                	addi	a0,sp,144
 6e0:	0002                	c.slli64	zero
 6e2:	0501                	addi	a0,a0,0
 6e4:	0908                	addi	a0,sp,144
 6e6:	0002                	c.slli64	zero
 6e8:	0501                	addi	a0,a0,0
 6ea:	0908                	addi	a0,sp,144
 6ec:	0002                	c.slli64	zero
 6ee:	0200                	addi	s0,sp,256
 6f0:	0004                	.insn	2, 0x0004
 6f2:	0106                	slli	sp,sp,0x1
 6f4:	0805                	addi	a6,a6,1
 6f6:	0009                	c.nop	2
 6f8:	0000                	unimp
 6fa:	0402                	c.slli64	s0
 6fc:	05010607          	.insn	4, 0x05010607
 700:	0908                	addi	a0,sp,144
 702:	0004                	.insn	2, 0x0004
 704:	0501                	addi	a0,a0,0
 706:	0908                	addi	a0,sp,144
 708:	000c                	.insn	2, 0x000c
 70a:	0200                	addi	s0,sp,256
 70c:	0004                	.insn	2, 0x0004
 70e:	0106                	slli	sp,sp,0x1
 710:	0805                	addi	a6,a6,1
 712:	0009                	c.nop	2
 714:	0000                	unimp
 716:	0402                	c.slli64	s0
 718:	05010607          	.insn	4, 0x05010607
 71c:	0908                	addi	a0,sp,144
 71e:	0004                	.insn	2, 0x0004
 720:	0200                	addi	s0,sp,256
 722:	0804                	addi	s1,sp,16
 724:	0106                	slli	sp,sp,0x1
 726:	0805                	addi	a6,a6,1
 728:	0009                	c.nop	2
 72a:	0600                	addi	s0,sp,768
 72c:	0501                	addi	a0,a0,0
 72e:	0908                	addi	a0,sp,144
 730:	0002                	c.slli64	zero
 732:	0200                	addi	s0,sp,256
 734:	0004                	.insn	2, 0x0004
 736:	0106                	slli	sp,sp,0x1
 738:	0805                	addi	a6,a6,1
 73a:	0009                	c.nop	2
 73c:	0000                	unimp
 73e:	0402                	c.slli64	s0
 740:	010a                	slli	sp,sp,0x2
 742:	0805                	addi	a6,a6,1
 744:	0809                	addi	a6,a6,2
 746:	0000                	unimp
 748:	0402                	c.slli64	s0
 74a:	0608                	addi	a0,sp,768
 74c:	0501                	addi	a0,a0,0
 74e:	0908                	addi	a0,sp,144
 750:	0002                	c.slli64	zero
 752:	0200                	addi	s0,sp,256
 754:	0e04                	addi	s1,sp,784
 756:	0106                	slli	sp,sp,0x1
 758:	0805                	addi	a6,a6,1
 75a:	0209                	addi	tp,tp,2 # 2 <_start+0x2>
 75c:	0600                	addi	s0,sp,768
 75e:	0501                	addi	a0,a0,0
 760:	0908                	addi	a0,sp,144
 762:	0004                	.insn	2, 0x0004
 764:	0200                	addi	s0,sp,256
 766:	0004                	.insn	2, 0x0004
 768:	0106                	slli	sp,sp,0x1
 76a:	0805                	addi	a6,a6,1
 76c:	0009                	c.nop	2
 76e:	0000                	unimp
 770:	0402                	c.slli64	s0
 772:	060e                	slli	a2,a2,0x3
 774:	0501                	addi	a0,a0,0
 776:	0908                	addi	a0,sp,144
 778:	0004                	.insn	2, 0x0004
 77a:	0200                	addi	s0,sp,256
 77c:	0004                	.insn	2, 0x0004
 77e:	0106                	slli	sp,sp,0x1
 780:	0805                	addi	a6,a6,1
 782:	0209                	addi	tp,tp,2 # 2 <_start+0x2>
 784:	0000                	unimp
 786:	0402                	c.slli64	s0
 788:	0105                	addi	sp,sp,1
 78a:	0805                	addi	a6,a6,1
 78c:	0209                	addi	tp,tp,2 # 2 <_start+0x2>
 78e:	0600                	addi	s0,sp,768
 790:	0501                	addi	a0,a0,0
 792:	0908                	addi	a0,sp,144
 794:	0002                	c.slli64	zero
 796:	0501                	addi	a0,a0,0
 798:	0908                	addi	a0,sp,144
 79a:	0002                	c.slli64	zero
 79c:	0200                	addi	s0,sp,256
 79e:	0c04                	addi	s1,sp,528
 7a0:	0106                	slli	sp,sp,0x1
 7a2:	0805                	addi	a6,a6,1
 7a4:	0209                	addi	tp,tp,2 # 2 <_start+0x2>
 7a6:	0600                	addi	s0,sp,768
 7a8:	0501                	addi	a0,a0,0
 7aa:	0908                	addi	a0,sp,144
 7ac:	0002                	c.slli64	zero
 7ae:	0501                	addi	a0,a0,0
 7b0:	0908                	addi	a0,sp,144
 7b2:	0002                	c.slli64	zero
 7b4:	0501                	addi	a0,a0,0
 7b6:	0908                	addi	a0,sp,144
 7b8:	0000                	unimp
 7ba:	0200                	addi	s0,sp,256
 7bc:	0504                	addi	s1,sp,640
 7be:	1c06                	slli	s8,s8,0x21
 7c0:	0405                	addi	s0,s0,1
 7c2:	0209                	addi	tp,tp,2 # 2 <_start+0x2>
 7c4:	0600                	addi	s0,sp,768
 7c6:	0501                	addi	a0,a0,0
 7c8:	0904                	addi	s1,sp,144
 7ca:	0002                	c.slli64	zero
 7cc:	0501                	addi	a0,a0,0
 7ce:	0904                	addi	s1,sp,144
 7d0:	0002                	c.slli64	zero
 7d2:	0200                	addi	s0,sp,256
 7d4:	0c04                	addi	s1,sp,528
 7d6:	0106                	slli	sp,sp,0x1
 7d8:	0405                	addi	s0,s0,1
 7da:	0209                	addi	tp,tp,2 # 2 <_start+0x2>
 7dc:	0600                	addi	s0,sp,768
 7de:	0501                	addi	a0,a0,0
 7e0:	0904                	addi	s1,sp,144
 7e2:	0002                	c.slli64	zero
 7e4:	0501                	addi	a0,a0,0
 7e6:	0904                	addi	s1,sp,144
 7e8:	0000                	unimp
 7ea:	0200                	addi	s0,sp,256
 7ec:	0004                	.insn	2, 0x0004
 7ee:	2706                	.insn	2, 0x2706
 7f0:	0705                	addi	a4,a4,1
 7f2:	0009                	c.nop	2
 7f4:	0600                	addi	s0,sp,768
 7f6:	0501                	addi	a0,a0,0
 7f8:	090a                	slli	s2,s2,0x2
 7fa:	0004                	.insn	2, 0x0004
 7fc:	2a06                	.insn	2, 0x2a06
 7fe:	0405                	addi	s0,s0,1
 800:	0009                	c.nop	2
 802:	0100                	addi	s0,sp,128
 804:	0405                	addi	s0,s0,1
 806:	0009                	c.nop	2
 808:	0100                	addi	s0,sp,128
 80a:	0405                	addi	s0,s0,1
 80c:	0009                	c.nop	2
 80e:	0100                	addi	s0,sp,128
 810:	0405                	addi	s0,s0,1
 812:	0009                	c.nop	2
 814:	0000                	unimp
 816:	0402                	c.slli64	s0
 818:	0101                	addi	sp,sp,0
 81a:	0405                	addi	s0,s0,1
 81c:	0609                	addi	a2,a2,2
 81e:	0000                	unimp
 820:	0402                	c.slli64	s0
 822:	05010603          	lb	a2,80(sp)
 826:	0904                	addi	s1,sp,144
 828:	000a                	c.slli	zero,0x2
 82a:	0200                	addi	s0,sp,256
 82c:	0e04                	addi	s1,sp,784
 82e:	0106                	slli	sp,sp,0x1
 830:	0405                	addi	s0,s0,1
 832:	0609                	addi	a2,a2,2
 834:	0600                	addi	s0,sp,768
 836:	0501                	addi	a0,a0,0
 838:	0904                	addi	s1,sp,144
 83a:	000a                	c.slli	zero,0x2
 83c:	0200                	addi	s0,sp,256
 83e:	0004                	.insn	2, 0x0004
 840:	0518                	addi	a4,sp,640
 842:	00040907          	.insn	4, 0x00040907
 846:	0200                	addi	s0,sp,256
 848:	0e04                	addi	s1,sp,784
 84a:	0516                	slli	a0,a0,0x5
 84c:	0904                	addi	s1,sp,144
 84e:	0002                	c.slli64	zero
 850:	0501                	addi	a0,a0,0
 852:	0904                	addi	s1,sp,144
 854:	0000                	unimp
 856:	0200                	addi	s0,sp,256
 858:	0004                	.insn	2, 0x0004
 85a:	0106                	slli	sp,sp,0x1
 85c:	0405                	addi	s0,s0,1
 85e:	0009                	c.nop	2
 860:	1800                	addi	s0,sp,48
 862:	0405                	addi	s0,s0,1
 864:	0009                	c.nop	2
 866:	0600                	addi	s0,sp,768
 868:	0501                	addi	a0,a0,0
 86a:	00040907          	.insn	4, 0x00040907
 86e:	2106                	.insn	2, 0x2106
 870:	0805                	addi	a6,a6,1
 872:	0009                	c.nop	2
 874:	0000                	unimp
 876:	0402                	c.slli64	s0
 878:	0601                	addi	a2,a2,0
 87a:	0501                	addi	a0,a0,0
 87c:	0914                	addi	a3,sp,144
 87e:	0004                	.insn	2, 0x0004
 880:	0501                	addi	a0,a0,0
 882:	0914                	addi	a3,sp,144
 884:	0004                	.insn	2, 0x0004
 886:	0200                	addi	s0,sp,256
 888:	0004                	.insn	2, 0x0004
 88a:	0501                	addi	a0,a0,0
 88c:	0004090b          	.insn	4, 0x0004090b
 890:	0200                	addi	s0,sp,256
 892:	0104                	addi	s1,sp,128
 894:	0501                	addi	a0,a0,0
 896:	0914                	addi	a3,sp,144
 898:	0002                	c.slli64	zero
 89a:	0200                	addi	s0,sp,256
 89c:	0004                	.insn	2, 0x0004
 89e:	053e                	slli	a0,a0,0xf
 8a0:	0004090b          	.insn	4, 0x0004090b
 8a4:	0501                	addi	a0,a0,0
 8a6:	0000090b          	.insn	4, 0x090b
 8aa:	0200                	addi	s0,sp,256
 8ac:	0404                	addi	s1,sp,512
 8ae:	05014e03          	lbu	t3,80(sp)
 8b2:	0904                	addi	s1,sp,144
 8b4:	0004                	.insn	2, 0x0004
 8b6:	0200                	addi	s0,sp,256
 8b8:	0804                	addi	s1,sp,16
 8ba:	0501                	addi	a0,a0,0
 8bc:	0904                	addi	s1,sp,144
 8be:	0002                	c.slli64	zero
 8c0:	0200                	addi	s0,sp,256
 8c2:	0404                	addi	s1,sp,512
 8c4:	0501                	addi	a0,a0,0
 8c6:	0904                	addi	s1,sp,144
 8c8:	0004                	.insn	2, 0x0004
 8ca:	0200                	addi	s0,sp,256
 8cc:	0704                	addi	s1,sp,896
 8ce:	0501                	addi	a0,a0,0
 8d0:	0904                	addi	s1,sp,144
 8d2:	0004                	.insn	2, 0x0004
 8d4:	0200                	addi	s0,sp,256
 8d6:	0e04                	addi	s1,sp,784
 8d8:	0501                	addi	a0,a0,0
 8da:	0904                	addi	s1,sp,144
 8dc:	0004                	.insn	2, 0x0004
 8de:	0200                	addi	s0,sp,256
 8e0:	0004                	.insn	2, 0x0004
 8e2:	3506                	.insn	2, 0x3506
 8e4:	0805                	addi	a6,a6,1
 8e6:	0009                	c.nop	2
 8e8:	1a00                	addi	s0,sp,304
 8ea:	0805                	addi	a6,a6,1
 8ec:	0009                	c.nop	2
 8ee:	1900                	addi	s0,sp,176
 8f0:	0805                	addi	a6,a6,1
 8f2:	0009                	c.nop	2
 8f4:	0600                	addi	s0,sp,768
 8f6:	0501                	addi	a0,a0,0
 8f8:	091e                	slli	s2,s2,0x7
 8fa:	0004                	.insn	2, 0x0004
 8fc:	0501                	addi	a0,a0,0
 8fe:	0911                	addi	s2,s2,4
 900:	0004                	.insn	2, 0x0004
 902:	0501                	addi	a0,a0,0
 904:	0004090b          	.insn	4, 0x0004090b
 908:	1806                	slli	a6,a6,0x21
 90a:	0805                	addi	a6,a6,1
 90c:	0009                	c.nop	2
 90e:	0600                	addi	s0,sp,768
 910:	0518                	addi	a4,sp,640
 912:	0004090b          	.insn	4, 0x0004090b
 916:	0908051b          	.insn	4, 0x0908051b
 91a:	0004                	.insn	2, 0x0004
 91c:	0514                	addi	a3,sp,640
 91e:	091e                	slli	s2,s2,0x7
 920:	0004                	.insn	2, 0x0004
 922:	0501                	addi	a0,a0,0
 924:	0911                	addi	s2,s2,4
 926:	0004                	.insn	2, 0x0004
 928:	0501                	addi	a0,a0,0
 92a:	0004090b          	.insn	4, 0x0004090b
 92e:	051a                	slli	a0,a0,0x6
 930:	0908                	addi	a0,sp,144
 932:	0008                	.insn	2, 0x0008
 934:	0501                	addi	a0,a0,0
 936:	0908                	addi	a0,sp,144
 938:	0000                	unimp
 93a:	0512                	slli	a0,a0,0x4
 93c:	0004090b          	.insn	4, 0x0004090b
 940:	1806                	slli	a6,a6,0x21
 942:	0805                	addi	a6,a6,1
 944:	0009                	c.nop	2
 946:	1800                	addi	s0,sp,48
 948:	0805                	addi	a6,a6,1
 94a:	0009                	c.nop	2
 94c:	1800                	addi	s0,sp,48
 94e:	0805                	addi	a6,a6,1
 950:	0009                	c.nop	2
 952:	1900                	addi	s0,sp,176
 954:	0805                	addi	a6,a6,1
 956:	0009                	c.nop	2
 958:	0100                	addi	s0,sp,128
 95a:	0805                	addi	a6,a6,1
 95c:	0009                	c.nop	2
 95e:	0100                	addi	s0,sp,128
 960:	0805                	addi	a6,a6,1
 962:	0009                	c.nop	2
 964:	0100                	addi	s0,sp,128
 966:	0805                	addi	a6,a6,1
 968:	0009                	c.nop	2
 96a:	0100                	addi	s0,sp,128
 96c:	0805                	addi	a6,a6,1
 96e:	0409                	addi	s0,s0,2
 970:	0100                	addi	s0,sp,128
 972:	0805                	addi	a6,a6,1
 974:	0009                	c.nop	2
 976:	0100                	addi	s0,sp,128
 978:	0805                	addi	a6,a6,1
 97a:	0209                	addi	tp,tp,2 # 2 <_start+0x2>
 97c:	0600                	addi	s0,sp,768
 97e:	0501                	addi	a0,a0,0
 980:	0908                	addi	a0,sp,144
 982:	0004                	.insn	2, 0x0004
 984:	0106                	slli	sp,sp,0x1
 986:	0805                	addi	a6,a6,1
 988:	0609                	addi	a2,a2,2
 98a:	0100                	addi	s0,sp,128
 98c:	0805                	addi	a6,a6,1
 98e:	0409                	addi	s0,s0,2
 990:	0600                	addi	s0,sp,768
 992:	0501                	addi	a0,a0,0
 994:	0908                	addi	a0,sp,144
 996:	000a                	c.slli	zero,0x2
 998:	0106                	slli	sp,sp,0x1
 99a:	0805                	addi	a6,a6,1
 99c:	0409                	addi	s0,s0,2
 99e:	0000                	unimp
 9a0:	0402                	c.slli64	s0
 9a2:	0101                	addi	sp,sp,0
 9a4:	0805                	addi	a6,a6,1
 9a6:	0009                	c.nop	2
 9a8:	0600                	addi	s0,sp,768
 9aa:	0501                	addi	a0,a0,0
 9ac:	0908                	addi	a0,sp,144
 9ae:	0002                	c.slli64	zero
 9b0:	0200                	addi	s0,sp,256
 9b2:	0004                	.insn	2, 0x0004
 9b4:	0106                	slli	sp,sp,0x1
 9b6:	0805                	addi	a6,a6,1
 9b8:	0009                	c.nop	2
 9ba:	0000                	unimp
 9bc:	0402                	c.slli64	s0
 9be:	08050103          	lb	sp,128(a0)
 9c2:	0809                	addi	a6,a6,2
 9c4:	0000                	unimp
 9c6:	0402                	c.slli64	s0
 9c8:	0601                	addi	a2,a2,0
 9ca:	0501                	addi	a0,a0,0
 9cc:	0908                	addi	a0,sp,144
 9ce:	0002                	c.slli64	zero
 9d0:	0200                	addi	s0,sp,256
 9d2:	0704                	addi	s1,sp,896
 9d4:	0106                	slli	sp,sp,0x1
 9d6:	0805                	addi	a6,a6,1
 9d8:	0409                	addi	s0,s0,2
 9da:	0000                	unimp
 9dc:	0402                	c.slli64	s0
 9de:	0100                	addi	s0,sp,128
 9e0:	0805                	addi	a6,a6,1
 9e2:	0009                	c.nop	2
 9e4:	0100                	addi	s0,sp,128
 9e6:	0805                	addi	a6,a6,1
 9e8:	0009                	c.nop	2
 9ea:	0000                	unimp
 9ec:	0402                	c.slli64	s0
 9ee:	05010607          	.insn	4, 0x05010607
 9f2:	0908                	addi	a0,sp,144
 9f4:	000a                	c.slli	zero,0x2
 9f6:	0200                	addi	s0,sp,256
 9f8:	0004                	.insn	2, 0x0004
 9fa:	0106                	slli	sp,sp,0x1
 9fc:	0805                	addi	a6,a6,1
 9fe:	0009                	c.nop	2
 a00:	0000                	unimp
 a02:	0402                	c.slli64	s0
 a04:	05010607          	.insn	4, 0x05010607
 a08:	0908                	addi	a0,sp,144
 a0a:	0002                	c.slli64	zero
 a0c:	0501                	addi	a0,a0,0
 a0e:	0908                	addi	a0,sp,144
 a10:	0002                	c.slli64	zero
 a12:	0501                	addi	a0,a0,0
 a14:	0908                	addi	a0,sp,144
 a16:	0002                	c.slli64	zero
 a18:	0200                	addi	s0,sp,256
 a1a:	0004                	.insn	2, 0x0004
 a1c:	0106                	slli	sp,sp,0x1
 a1e:	0805                	addi	a6,a6,1
 a20:	0009                	c.nop	2
 a22:	0000                	unimp
 a24:	0402                	c.slli64	s0
 a26:	05010607          	.insn	4, 0x05010607
 a2a:	0908                	addi	a0,sp,144
 a2c:	0004                	.insn	2, 0x0004
 a2e:	0501                	addi	a0,a0,0
 a30:	0908                	addi	a0,sp,144
 a32:	000c                	.insn	2, 0x000c
 a34:	0200                	addi	s0,sp,256
 a36:	0004                	.insn	2, 0x0004
 a38:	0106                	slli	sp,sp,0x1
 a3a:	0805                	addi	a6,a6,1
 a3c:	0009                	c.nop	2
 a3e:	0000                	unimp
 a40:	0402                	c.slli64	s0
 a42:	05010607          	.insn	4, 0x05010607
 a46:	0908                	addi	a0,sp,144
 a48:	0004                	.insn	2, 0x0004
 a4a:	0200                	addi	s0,sp,256
 a4c:	0804                	addi	s1,sp,16
 a4e:	0106                	slli	sp,sp,0x1
 a50:	0805                	addi	a6,a6,1
 a52:	0009                	c.nop	2
 a54:	0600                	addi	s0,sp,768
 a56:	0501                	addi	a0,a0,0
 a58:	0908                	addi	a0,sp,144
 a5a:	0002                	c.slli64	zero
 a5c:	0200                	addi	s0,sp,256
 a5e:	0004                	.insn	2, 0x0004
 a60:	0106                	slli	sp,sp,0x1
 a62:	0805                	addi	a6,a6,1
 a64:	0009                	c.nop	2
 a66:	0000                	unimp
 a68:	0402                	c.slli64	s0
 a6a:	010a                	slli	sp,sp,0x2
 a6c:	0805                	addi	a6,a6,1
 a6e:	0809                	addi	a6,a6,2
 a70:	0000                	unimp
 a72:	0402                	c.slli64	s0
 a74:	0608                	addi	a0,sp,768
 a76:	0501                	addi	a0,a0,0
 a78:	0908                	addi	a0,sp,144
 a7a:	0002                	c.slli64	zero
 a7c:	0200                	addi	s0,sp,256
 a7e:	0e04                	addi	s1,sp,784
 a80:	0106                	slli	sp,sp,0x1
 a82:	0805                	addi	a6,a6,1
 a84:	0009                	c.nop	2
 a86:	0000                	unimp
 a88:	0402                	c.slli64	s0
 a8a:	0600                	addi	s0,sp,768
 a8c:	0518                	addi	a4,sp,640
 a8e:	0908                	addi	a0,sp,144
 a90:	0004                	.insn	2, 0x0004
 a92:	0200                	addi	s0,sp,256
 a94:	0e04                	addi	s1,sp,784
 a96:	0516                	slli	a0,a0,0x5
 a98:	0908                	addi	a0,sp,144
 a9a:	0002                	c.slli64	zero
 a9c:	0501                	addi	a0,a0,0
 a9e:	0908                	addi	a0,sp,144
 aa0:	0000                	unimp
 aa2:	0200                	addi	s0,sp,256
 aa4:	0004                	.insn	2, 0x0004
 aa6:	0518                	addi	a4,sp,640
 aa8:	0908                	addi	a0,sp,144
 aaa:	0008                	.insn	2, 0x0008
 aac:	0200                	addi	s0,sp,256
 aae:	0e04                	addi	s1,sp,784
 ab0:	0516                	slli	a0,a0,0x5
 ab2:	0908                	addi	a0,sp,144
 ab4:	0004                	.insn	2, 0x0004
 ab6:	0200                	addi	s0,sp,256
 ab8:	0004                	.insn	2, 0x0004
 aba:	0106                	slli	sp,sp,0x1
 abc:	0805                	addi	a6,a6,1
 abe:	0009                	c.nop	2
 ac0:	0600                	addi	s0,sp,768
 ac2:	0518                	addi	a4,sp,640
 ac4:	0908                	addi	a0,sp,144
 ac6:	0002                	c.slli64	zero
 ac8:	0200                	addi	s0,sp,256
 aca:	0e04                	addi	s1,sp,784
 acc:	0516                	slli	a0,a0,0x5
 ace:	0908                	addi	a0,sp,144
 ad0:	0004                	.insn	2, 0x0004
 ad2:	0200                	addi	s0,sp,256
 ad4:	0004                	.insn	2, 0x0004
 ad6:	0106                	slli	sp,sp,0x1
 ad8:	0805                	addi	a6,a6,1
 ada:	0009                	c.nop	2
 adc:	0600                	addi	s0,sp,768
 ade:	0501                	addi	a0,a0,0
 ae0:	0908                	addi	a0,sp,144
 ae2:	0000                	unimp
 ae4:	0106                	slli	sp,sp,0x1
 ae6:	0805                	addi	a6,a6,1
 ae8:	0009                	c.nop	2
 aea:	1800                	addi	s0,sp,48
 aec:	0805                	addi	a6,a6,1
 aee:	0009                	c.nop	2
 af0:	0100                	addi	s0,sp,128
 af2:	0805                	addi	a6,a6,1
 af4:	0009                	c.nop	2
 af6:	0100                	addi	s0,sp,128
 af8:	0805                	addi	a6,a6,1
 afa:	0009                	c.nop	2
 afc:	0100                	addi	s0,sp,128
 afe:	0805                	addi	a6,a6,1
 b00:	0009                	c.nop	2
 b02:	0100                	addi	s0,sp,128
 b04:	0805                	addi	a6,a6,1
 b06:	0009                	c.nop	2
 b08:	0100                	addi	s0,sp,128
 b0a:	0805                	addi	a6,a6,1
 b0c:	0009                	c.nop	2
 b0e:	0100                	addi	s0,sp,128
 b10:	0805                	addi	a6,a6,1
 b12:	0009                	c.nop	2
 b14:	0100                	addi	s0,sp,128
 b16:	0805                	addi	a6,a6,1
 b18:	0009                	c.nop	2
 b1a:	0100                	addi	s0,sp,128
 b1c:	0805                	addi	a6,a6,1
 b1e:	0009                	c.nop	2
 b20:	0100                	addi	s0,sp,128
 b22:	0805                	addi	a6,a6,1
 b24:	0209                	addi	tp,tp,2 # 2 <_start+0x2>
 b26:	0100                	addi	s0,sp,128
 b28:	0805                	addi	a6,a6,1
 b2a:	0209                	addi	tp,tp,2 # 2 <_start+0x2>
 b2c:	0100                	addi	s0,sp,128
 b2e:	0805                	addi	a6,a6,1
 b30:	0209                	addi	tp,tp,2 # 2 <_start+0x2>
 b32:	0600                	addi	s0,sp,768
 b34:	0501                	addi	a0,a0,0
 b36:	0908                	addi	a0,sp,144
 b38:	0000                	unimp
 b3a:	0106                	slli	sp,sp,0x1
 b3c:	0805                	addi	a6,a6,1
 b3e:	0009                	c.nop	2
 b40:	0100                	addi	s0,sp,128
 b42:	0805                	addi	a6,a6,1
 b44:	0409                	addi	s0,s0,2
 b46:	0600                	addi	s0,sp,768
 b48:	0501                	addi	a0,a0,0
 b4a:	0908                	addi	a0,sp,144
 b4c:	0002                	c.slli64	zero
 b4e:	0106                	slli	sp,sp,0x1
 b50:	0805                	addi	a6,a6,1
 b52:	0409                	addi	s0,s0,2
 b54:	0100                	addi	s0,sp,128
 b56:	0805                	addi	a6,a6,1
 b58:	0209                	addi	tp,tp,2 # 2 <_start+0x2>
 b5a:	0100                	addi	s0,sp,128
 b5c:	0805                	addi	a6,a6,1
 b5e:	0209                	addi	tp,tp,2 # 2 <_start+0x2>
 b60:	0600                	addi	s0,sp,768
 b62:	0501                	addi	a0,a0,0
 b64:	0908                	addi	a0,sp,144
 b66:	0000                	unimp
 b68:	0106                	slli	sp,sp,0x1
 b6a:	0805                	addi	a6,a6,1
 b6c:	0009                	c.nop	2
 b6e:	0100                	addi	s0,sp,128
 b70:	0805                	addi	a6,a6,1
 b72:	0609                	addi	a2,a2,2
 b74:	0100                	addi	s0,sp,128
 b76:	0805                	addi	a6,a6,1
 b78:	0009                	c.nop	2
 b7a:	0100                	addi	s0,sp,128
 b7c:	0805                	addi	a6,a6,1
 b7e:	0209                	addi	tp,tp,2 # 2 <_start+0x2>
 b80:	0100                	addi	s0,sp,128
 b82:	0805                	addi	a6,a6,1
 b84:	0209                	addi	tp,tp,2 # 2 <_start+0x2>
 b86:	0600                	addi	s0,sp,768
 b88:	0501                	addi	a0,a0,0
 b8a:	0908                	addi	a0,sp,144
 b8c:	0000                	unimp
 b8e:	0106                	slli	sp,sp,0x1
 b90:	0805                	addi	a6,a6,1
 b92:	0009                	c.nop	2
 b94:	0100                	addi	s0,sp,128
 b96:	0805                	addi	a6,a6,1
 b98:	0809                	addi	a6,a6,2
 b9a:	0100                	addi	s0,sp,128
 b9c:	0805                	addi	a6,a6,1
 b9e:	0009                	c.nop	2
 ba0:	0100                	addi	s0,sp,128
 ba2:	0805                	addi	a6,a6,1
 ba4:	0209                	addi	tp,tp,2 # 2 <_start+0x2>
 ba6:	0100                	addi	s0,sp,128
 ba8:	0805                	addi	a6,a6,1
 baa:	0009                	c.nop	2
 bac:	0600                	addi	s0,sp,768
 bae:	0501                	addi	a0,a0,0
 bb0:	0908                	addi	a0,sp,144
 bb2:	0000                	unimp
 bb4:	0106                	slli	sp,sp,0x1
 bb6:	0805                	addi	a6,a6,1
 bb8:	0009                	c.nop	2
 bba:	0100                	addi	s0,sp,128
 bbc:	0805                	addi	a6,a6,1
 bbe:	0609                	addi	a2,a2,2
 bc0:	0600                	addi	s0,sp,768
 bc2:	0501                	addi	a0,a0,0
 bc4:	0908                	addi	a0,sp,144
 bc6:	0002                	c.slli64	zero
 bc8:	0106                	slli	sp,sp,0x1
 bca:	0805                	addi	a6,a6,1
 bcc:	0409                	addi	s0,s0,2
 bce:	0000                	unimp
 bd0:	0402                	c.slli64	s0
 bd2:	0101                	addi	sp,sp,0
 bd4:	0805                	addi	a6,a6,1
 bd6:	0409                	addi	s0,s0,2
 bd8:	0000                	unimp
 bda:	0402                	c.slli64	s0
 bdc:	08050103          	lb	sp,128(a0)
 be0:	0609                	addi	a2,a2,2
 be2:	0000                	unimp
 be4:	0402                	c.slli64	s0
 be6:	0100                	addi	s0,sp,128
 be8:	0805                	addi	a6,a6,1
 bea:	0009                	c.nop	2
 bec:	0600                	addi	s0,sp,768
 bee:	0501                	addi	a0,a0,0
 bf0:	0908                	addi	a0,sp,144
 bf2:	0000                	unimp
 bf4:	0106                	slli	sp,sp,0x1
 bf6:	0805                	addi	a6,a6,1
 bf8:	0009                	c.nop	2
 bfa:	1900                	addi	s0,sp,176
 bfc:	0805                	addi	a6,a6,1
 bfe:	0009                	c.nop	2
 c00:	0600                	addi	s0,sp,768
 c02:	0501                	addi	a0,a0,0
 c04:	0004090b          	.insn	4, 0x0004090b
 c08:	0200                	addi	s0,sp,256
 c0a:	0304                	addi	s1,sp,384
 c0c:	0515                	addi	a0,a0,5
 c0e:	0908                	addi	a0,sp,144
 c10:	0002                	c.slli64	zero
 c12:	0501                	addi	a0,a0,0
 c14:	0908                	addi	a0,sp,144
 c16:	0002                	c.slli64	zero
 c18:	0501                	addi	a0,a0,0
 c1a:	0908                	addi	a0,sp,144
 c1c:	0004                	.insn	2, 0x0004
 c1e:	0200                	addi	s0,sp,256
 c20:	0004                	.insn	2, 0x0004
 c22:	0514                	addi	a3,sp,640
 c24:	0004090b          	.insn	4, 0x0004090b
 c28:	0200                	addi	s0,sp,256
 c2a:	0304                	addi	s1,sp,384
 c2c:	051a                	slli	a0,a0,0x6
 c2e:	0908                	addi	a0,sp,144
 c30:	0002                	c.slli64	zero
 c32:	0200                	addi	s0,sp,256
 c34:	0204                	addi	s1,sp,256
 c36:	0519                	addi	a0,a0,6
 c38:	0921                	addi	s2,s2,8
 c3a:	0008                	.insn	2, 0x0008
 c3c:	0200                	addi	s0,sp,256
 c3e:	0004                	.insn	2, 0x0004
 c40:	1906                	slli	s2,s2,0x21
 c42:	0505                	addi	a0,a0,1
 c44:	0009                	c.nop	2
 c46:	0600                	addi	s0,sp,768
 c48:	0501                	addi	a0,a0,0
 c4a:	00020907          	.insn	4, 0x00020907
 c4e:	1806                	slli	a6,a6,0x21
 c50:	0505                	addi	a0,a0,1
 c52:	0009                	c.nop	2
 c54:	0100                	addi	s0,sp,128
 c56:	0505                	addi	a0,a0,1
 c58:	0009                	c.nop	2
 c5a:	0100                	addi	s0,sp,128
 c5c:	0505                	addi	a0,a0,1
 c5e:	0009                	c.nop	2
 c60:	0100                	addi	s0,sp,128
 c62:	0505                	addi	a0,a0,1
 c64:	0009                	c.nop	2
 c66:	0100                	addi	s0,sp,128
 c68:	0505                	addi	a0,a0,1
 c6a:	0009                	c.nop	2
 c6c:	0600                	addi	s0,sp,768
 c6e:	0501                	addi	a0,a0,0
 c70:	0905                	addi	s2,s2,1
 c72:	0002                	c.slli64	zero
 c74:	0200                	addi	s0,sp,256
 c76:	0504                	addi	s1,sp,640
 c78:	1106                	slli	sp,sp,0x21
 c7a:	0805                	addi	a6,a6,1
 c7c:	0209                	addi	tp,tp,2 # 2 <_start+0x2>
 c7e:	0600                	addi	s0,sp,768
 c80:	0501                	addi	a0,a0,0
 c82:	0908                	addi	a0,sp,144
 c84:	0002                	c.slli64	zero
 c86:	0501                	addi	a0,a0,0
 c88:	0908                	addi	a0,sp,144
 c8a:	0002                	c.slli64	zero
 c8c:	0200                	addi	s0,sp,256
 c8e:	0c04                	addi	s1,sp,528
 c90:	0106                	slli	sp,sp,0x1
 c92:	0805                	addi	a6,a6,1
 c94:	0209                	addi	tp,tp,2 # 2 <_start+0x2>
 c96:	0600                	addi	s0,sp,768
 c98:	0501                	addi	a0,a0,0
 c9a:	0908                	addi	a0,sp,144
 c9c:	0002                	c.slli64	zero
 c9e:	0501                	addi	a0,a0,0
 ca0:	0908                	addi	a0,sp,144
 ca2:	0002                	c.slli64	zero
 ca4:	0501                	addi	a0,a0,0
 ca6:	0908                	addi	a0,sp,144
 ca8:	0000                	unimp
 caa:	0200                	addi	s0,sp,256
 cac:	0004                	.insn	2, 0x0004
 cae:	05014903          	lbu	s2,80(sp)
 cb2:	00020907          	.insn	4, 0x00020907
 cb6:	0516                	slli	a0,a0,0x5
 cb8:	02050007          	.insn	4, 0x02050007
 cbc:	04be                	slli	s1,s1,0xf
 cbe:	0000                	unimp
 cc0:	0100                	addi	s0,sp,128
 cc2:	7601                	lui	a2,0xfffe0
 cc4:	0000                	unimp
 cc6:	0500                	addi	s0,sp,640
 cc8:	0400                	addi	s0,sp,512
 cca:	2e00                	.insn	2, 0x2e00
 ccc:	0000                	unimp
 cce:	0100                	addi	s0,sp,128
 cd0:	0101                	addi	sp,sp,0
 cd2:	000d0efb          	.insn	4, 0x000d0efb
 cd6:	0101                	addi	sp,sp,0
 cd8:	0101                	addi	sp,sp,0
 cda:	0000                	unimp
 cdc:	0100                	addi	s0,sp,128
 cde:	0000                	unimp
 ce0:	0101                	addi	sp,sp,0
 ce2:	1f01                	addi	t5,t5,-32 # fffe0fe0 <__stack_top+0xfe7e0fe0>
 ce4:	2b02                	.insn	2, 0x2b02
 ce6:	0000                	unimp
 ce8:	a400                	.insn	2, 0xa400
 cea:	0000                	unimp
 cec:	0200                	addi	s0,sp,256
 cee:	1f01                	addi	t5,t5,-32
 cf0:	0f02                	c.slli64	t5
 cf2:	c802                	sw	zero,16(sp)
 cf4:	0000                	unimp
 cf6:	0100                	addi	s0,sp,128
 cf8:	00c8                	addi	a0,sp,68
 cfa:	0000                	unimp
 cfc:	0001                	nop
 cfe:	0205                	addi	tp,tp,1 # 1 <_start+0x1>
 d00:	04c0                	addi	s0,sp,580
 d02:	0000                	unimp
 d04:	03012403          	lw	s0,48(sp)
 d08:	0901                	addi	s2,s2,0
 d0a:	0002                	c.slli64	zero
 d0c:	0301                	addi	t1,t1,0
 d0e:	0902                	c.slli64	s2
 d10:	0002                	c.slli64	zero
 d12:	0301                	addi	t1,t1,0
 d14:	0901                	addi	s2,s2,0
 d16:	0004                	.insn	2, 0x0004
 d18:	0301                	addi	t1,t1,0
 d1a:	0901                	addi	s2,s2,0
 d1c:	0002                	c.slli64	zero
 d1e:	0301                	addi	t1,t1,0
 d20:	0902                	c.slli64	s2
 d22:	0002                	c.slli64	zero
 d24:	0301                	addi	t1,t1,0
 d26:	0901                	addi	s2,s2,0
 d28:	0002                	c.slli64	zero
 d2a:	0301                	addi	t1,t1,0
 d2c:	0901                	addi	s2,s2,0
 d2e:	0002                	c.slli64	zero
 d30:	0301                	addi	t1,t1,0
 d32:	0901                	addi	s2,s2,0
 d34:	0002                	c.slli64	zero
 d36:	0901                	addi	s2,s2,0
 d38:	0002                	c.slli64	zero
 d3a:	0100                	addi	s0,sp,128
 d3c:	4f01                	li	t5,0
 d3e:	0001                	nop
 d40:	0500                	addi	s0,sp,640
 d42:	0400                	addi	s0,sp,512
 d44:	2e00                	.insn	2, 0x2e00
 d46:	0000                	unimp
 d48:	0100                	addi	s0,sp,128
 d4a:	0101                	addi	sp,sp,0
 d4c:	000d0efb          	.insn	4, 0x000d0efb
 d50:	0101                	addi	sp,sp,0
 d52:	0101                	addi	sp,sp,0
 d54:	0000                	unimp
 d56:	0100                	addi	s0,sp,128
 d58:	0000                	unimp
 d5a:	0101                	addi	sp,sp,0
 d5c:	1f01                	addi	t5,t5,-32
 d5e:	2b02                	.insn	2, 0x2b02
 d60:	0000                	unimp
 d62:	a400                	.insn	2, 0xa400
 d64:	0000                	unimp
 d66:	0200                	addi	s0,sp,256
 d68:	1f01                	addi	t5,t5,-32
 d6a:	0f02                	c.slli64	t5
 d6c:	d102                	sw	zero,160(sp)
 d6e:	0000                	unimp
 d70:	0100                	addi	s0,sp,128
 d72:	00d1                	addi	ra,ra,20
 d74:	0000                	unimp
 d76:	0001                	nop
 d78:	0205                	addi	tp,tp,1 # 1 <_start+0x1>
 d7a:	04d4                	addi	a3,sp,580
 d7c:	0000                	unimp
 d7e:	0100c403          	lbu	s0,16(ra)
 d82:	04090103          	lb	sp,64(s2)
 d86:	0100                	addi	s0,sp,128
 d88:	04090403          	lb	s0,64(s2)
 d8c:	0100                	addi	s0,sp,128
 d8e:	02090103          	lb	sp,32(s2)
 d92:	0100                	addi	s0,sp,128
 d94:	02090103          	lb	sp,32(s2)
 d98:	0100                	addi	s0,sp,128
 d9a:	02090103          	lb	sp,32(s2)
 d9e:	0100                	addi	s0,sp,128
 da0:	02090103          	lb	sp,32(s2)
 da4:	0100                	addi	s0,sp,128
 da6:	02090103          	lb	sp,32(s2)
 daa:	0100                	addi	s0,sp,128
 dac:	04090203          	lb	tp,64(s2)
 db0:	0100                	addi	s0,sp,128
 db2:	04090103          	lb	sp,64(s2)
 db6:	0100                	addi	s0,sp,128
 db8:	02090103          	lb	sp,32(s2)
 dbc:	0100                	addi	s0,sp,128
 dbe:	02090103          	lb	sp,32(s2)
 dc2:	0100                	addi	s0,sp,128
 dc4:	04090203          	lb	tp,64(s2)
 dc8:	0100                	addi	s0,sp,128
 dca:	02090203          	lb	tp,32(s2)
 dce:	0100                	addi	s0,sp,128
 dd0:	04090103          	lb	sp,64(s2)
 dd4:	0100                	addi	s0,sp,128
 dd6:	02090103          	lb	sp,32(s2)
 dda:	0100                	addi	s0,sp,128
 ddc:	02090203          	lb	tp,32(s2)
 de0:	0100                	addi	s0,sp,128
 de2:	02090103          	lb	sp,32(s2)
 de6:	0100                	addi	s0,sp,128
 de8:	02090103          	lb	sp,32(s2)
 dec:	0100                	addi	s0,sp,128
 dee:	02090203          	lb	tp,32(s2)
 df2:	0100                	addi	s0,sp,128
 df4:	02090603          	lb	a2,32(s2)
 df8:	0100                	addi	s0,sp,128
 dfa:	02090103          	lb	sp,32(s2)
 dfe:	0100                	addi	s0,sp,128
 e00:	02090103          	lb	sp,32(s2)
 e04:	0100                	addi	s0,sp,128
 e06:	02090103          	lb	sp,32(s2)
 e0a:	0100                	addi	s0,sp,128
 e0c:	02090503          	lb	a0,32(s2)
 e10:	0100                	addi	s0,sp,128
 e12:	04090203          	lb	tp,64(s2)
 e16:	0100                	addi	s0,sp,128
 e18:	04090203          	lb	tp,64(s2)
 e1c:	0100                	addi	s0,sp,128
 e1e:	04090103          	lb	sp,64(s2)
 e22:	0100                	addi	s0,sp,128
 e24:	02090203          	lb	tp,32(s2)
 e28:	0100                	addi	s0,sp,128
 e2a:	04090203          	lb	tp,64(s2)
 e2e:	0100                	addi	s0,sp,128
 e30:	02090103          	lb	sp,32(s2)
 e34:	0100                	addi	s0,sp,128
 e36:	02090103          	lb	sp,32(s2)
 e3a:	0100                	addi	s0,sp,128
 e3c:	04090103          	lb	sp,64(s2)
 e40:	0100                	addi	s0,sp,128
 e42:	02090403          	lb	s0,32(s2)
 e46:	0100                	addi	s0,sp,128
 e48:	02090103          	lb	sp,32(s2)
 e4c:	0100                	addi	s0,sp,128
 e4e:	04090103          	lb	sp,64(s2)
 e52:	0100                	addi	s0,sp,128
 e54:	04090203          	lb	tp,64(s2)
 e58:	0100                	addi	s0,sp,128
 e5a:	02090103          	lb	sp,32(s2)
 e5e:	0100                	addi	s0,sp,128
 e60:	02090103          	lb	sp,32(s2)
 e64:	0100                	addi	s0,sp,128
 e66:	02090203          	lb	tp,32(s2)
 e6a:	0100                	addi	s0,sp,128
 e6c:	04090103          	lb	sp,64(s2)
 e70:	0100                	addi	s0,sp,128
 e72:	04090203          	lb	tp,64(s2)
 e76:	0100                	addi	s0,sp,128
 e78:	04090103          	lb	sp,64(s2)
 e7c:	0100                	addi	s0,sp,128
 e7e:	02090103          	lb	sp,32(s2)
 e82:	0100                	addi	s0,sp,128
 e84:	04090103          	lb	sp,64(s2)
 e88:	0100                	addi	s0,sp,128
 e8a:	0209                	addi	tp,tp,2 # 2 <_start+0x2>
 e8c:	0000                	unimp
 e8e:	0101                	addi	sp,sp,0
 e90:	0045                	c.nop	17
 e92:	0000                	unimp
 e94:	0005                	c.nop	1
 e96:	0004                	.insn	2, 0x0004
 e98:	00000033          	add	zero,zero,zero
 e9c:	0101                	addi	sp,sp,0
 e9e:	f601                	bnez	a2,da6 <__data_load_start+0x53e>
 ea0:	0df2                	slli	s11,s11,0x1c
 ea2:	0100                	addi	s0,sp,128
 ea4:	0101                	addi	sp,sp,0
 ea6:	0001                	nop
 ea8:	0000                	unimp
 eaa:	0001                	nop
 eac:	0100                	addi	s0,sp,128
 eae:	0101                	addi	sp,sp,0
 eb0:	021f 002b 0000      	.insn	6, 0x002b021f
 eb6:	008d                	addi	ra,ra,3
 eb8:	0000                	unimp
 eba:	0102                	c.slli64	sp
 ebc:	021f 030b 0000      	.insn	6, 0x030b021f
 ec2:	0000                	unimp
 ec4:	1700                	addi	s0,sp,928
 ec6:	0000                	unimp
 ec8:	0100                	addi	s0,sp,128
 eca:	0021                	c.nop	8
 ecc:	0000                	unimp
 ece:	0001                	nop
 ed0:	0205                	addi	tp,tp,1 # 1 <_start+0x1>
 ed2:	0000                	unimp
 ed4:	0000                	unimp
 ed6:	0100                	addi	s0,sp,128
 ed8:	01                	.byte	0x01

Disassembly of section .debug_str:

00000000 <.debug_str>:
   0:	5f5f 6475 7669      	.insn	6, 0x766964755f5f
   6:	6964                	.insn	2, 0x6964
   8:	57440033          	.insn	4, 0x57440033
   c:	75727473          	csrrci	s0,0x757,4
  10:	63007463          	bgeu	zero,a6,638 <gpio_int_enable+0x6>
  14:	6c706d6f          	jal	s10,6eda <__data_load_start+0x6672>
  18:	7865                	lui	a6,0xffff9
  1a:	6620                	.insn	2, 0x6620
  1c:	6f6c                	.insn	2, 0x6f6c
  1e:	7461                	lui	s0,0xffff8
  20:	5f00                	lw	s0,56(a4)
  22:	6d5f 6c75 6973      	.insn	6, 0x69736c756d5f
  28:	68730033          	.insn	4, 0x68730033
  2c:	2074726f          	jal	tp,47a32 <__data_load_start+0x471ca>
  30:	6e69                	lui	t3,0x1a
  32:	0074                	addi	a3,sp,12
  34:	5744                	lw	s1,44(a4)
  36:	6e75                	lui	t3,0x1d
  38:	6f69                	lui	t5,0x1a
  3a:	006e                	c.slli	zero,0x1b
  3c:	5f5f 3064 5f00      	.insn	6, 0x5f0030645f5f
  42:	645f 0031 5f5f      	.insn	6, 0x5f5f0031645f
  48:	6876                	.insn	2, 0x6876
  4a:	5f00                	lw	s0,56(a4)
  4c:	6f5f 3070 5f00      	.insn	6, 0x5f0030706f5f
  52:	6f5f 3170 6c00      	.insn	6, 0x6c0031706f5f
  58:	20676e6f          	jal	t3,7625e <__data_load_start+0x759f6>
  5c:	6f6c                	.insn	2, 0x6f6c
  5e:	676e                	.insn	2, 0x676e
  60:	6920                	.insn	2, 0x6920
  62:	746e                	.insn	2, 0x746e
  64:	6c00                	.insn	2, 0x6c00
  66:	20676e6f          	jal	t3,7626c <__data_load_start+0x75a04>
  6a:	6f6c                	.insn	2, 0x6f6c
  6c:	676e                	.insn	2, 0x676e
  6e:	7520                	.insn	2, 0x7520
  70:	736e                	.insn	2, 0x736e
  72:	6769                	lui	a4,0x1a
  74:	656e                	.insn	2, 0x656e
  76:	2064                	.insn	2, 0x2064
  78:	6e69                	lui	t3,0x1a
  7a:	0074                	addi	a3,sp,12
  7c:	6968                	.insn	2, 0x6968
  7e:	5f006867          	.insn	4, 0x5f006867
  82:	635f 7a6c 745f      	.insn	6, 0x745f7a6c635f
  88:	6261                	lui	tp,0x18
  8a:	6300                	.insn	2, 0x6300
  8c:	6c706d6f          	jal	s10,6f52 <__data_load_start+0x66ea>
  90:	7865                	lui	a6,0xffff9
  92:	5f20                	lw	s0,120(a4)
  94:	6c46                	.insn	2, 0x6c46
  96:	3174616f          	jal	sp,46bac <__data_load_start+0x46344>
  9a:	0036                	c.slli	zero,0xd
  9c:	6e75                	lui	t3,0x1d
  9e:	6e676973          	csrrsi	s2,0x6e6,14
  a2:	6465                	lui	s0,0x19
  a4:	6320                	.insn	2, 0x6320
  a6:	6168                	.insn	2, 0x6168
  a8:	0072                	c.slli	zero,0x1c
  aa:	5f5f 3078 5f00      	.insn	6, 0x5f0030785f5f
  b0:	785f 0031 5f5f      	.insn	6, 0x5f5f0031785f
  b6:	3278                	.insn	2, 0x3278
  b8:	5f00                	lw	s0,56(a4)
  ba:	785f 0033 5155      	.insn	6, 0x51550033785f
  c0:	7449                	lui	s0,0xffff2
  c2:	7079                	c.lui	zero,0xffffe
  c4:	0065                	c.nop	25
  c6:	726f6873          	csrrsi	a6,mhpmevent6h,30
  ca:	2074                	.insn	2, 0x2074
  cc:	6e75                	lui	t3,0x1d
  ce:	6e676973          	csrrsi	s2,0x6e6,14
  d2:	6465                	lui	s0,0x19
  d4:	6920                	.insn	2, 0x6920
  d6:	746e                	.insn	2, 0x746e
  d8:	5500                	lw	s0,40(a0)
  da:	4944                	lw	s1,20(a0)
  dc:	7974                	.insn	2, 0x7974
  de:	6570                	.insn	2, 0x6570
  e0:	5500                	lw	s0,40(a0)
  e2:	79744953          	.insn	4, 0x79744953
  e6:	6570                	.insn	2, 0x6570
  e8:	5f00                	lw	s0,56(a4)
  ea:	715f 0030 5f5f      	.insn	6, 0x5f5f0030715f
  f0:	3171                	jal	fffffd7c <__stack_top+0xfe7ffd7c>
  f2:	5f00                	lw	s0,56(a4)
  f4:	755f 6f6d 7364      	.insn	6, 0x73646f6d755f
  fa:	3369                	jal	fffffe84 <__stack_top+0xfe7ffe84>
  fc:	5f00                	lw	s0,56(a4)
  fe:	6f42                	.insn	2, 0x6f42
 100:	63006c6f          	jal	s8,6730 <__data_load_start+0x5ec8>
 104:	6c706d6f          	jal	s10,6fca <__data_load_start+0x6762>
 108:	7865                	lui	a6,0xffff9
 10a:	6420                	.insn	2, 0x6420
 10c:	6c62756f          	jal	a0,277d2 <__data_load_start+0x26f6a>
 110:	0065                	c.nop	25
 112:	5f5f 6c76 5f00      	.insn	6, 0x5f006c765f5f
 118:	755f 6964 6d76      	.insn	6, 0x6d766964755f
 11e:	6964646f          	jal	s0,467b4 <__data_load_start+0x45f4c>
 122:	0034                	addi	a3,sp,8
 124:	706d6f63          	bltu	s10,t1,842 <__clz_tab+0xda>
 128:	656c                	.insn	2, 0x656c
 12a:	2078                	.insn	2, 0x2078
 12c:	6f6c                	.insn	2, 0x6f6c
 12e:	676e                	.insn	2, 0x676e
 130:	6420                	.insn	2, 0x6420
 132:	6c62756f          	jal	a0,277f8 <__data_load_start+0x26f90>
 136:	0065                	c.nop	25
 138:	5f5f 7278 5f00      	.insn	6, 0x5f0072785f5f
 13e:	725f 0030 5f5f      	.insn	6, 0x5f5f0030725f
 144:	3172                	.insn	2, 0x3172
 146:	4700                	lw	s0,8(a4)
 148:	554e                	lw	a0,240(sp)
 14a:	4320                	lw	s0,64(a4)
 14c:	3332                	.insn	2, 0x3332
 14e:	3120                	.insn	2, 0x3120
 150:	2e35                	jal	48c <__udivdi3+0x3a4>
 152:	2e32                	.insn	2, 0x2e32
 154:	2030                	.insn	2, 0x2030
 156:	6d2d                	lui	s10,0xb
 158:	646f6d63          	bltu	t5,t1,7b2 <__clz_tab+0x4a>
 15c:	6c65                	lui	s8,0x19
 15e:	6d3d                	lui	s10,0xf
 160:	6465                	lui	s0,0x19
 162:	6f6c                	.insn	2, 0x6f6c
 164:	6d2d2077          	.insn	4, 0x6d2d2077
 168:	646f6d63          	bltu	t5,t1,7c2 <__clz_tab+0x5a>
 16c:	6c65                	lui	s8,0x19
 16e:	6d3d                	lui	s10,0xf
 170:	6465                	lui	s0,0x19
 172:	6f6c                	.insn	2, 0x6f6c
 174:	6d2d2077          	.insn	4, 0x6d2d2077
 178:	6261                	lui	tp,0x18
 17a:	3d69                	jal	14 <_start+0x14>
 17c:	6c69                	lui	s8,0x1a
 17e:	3370                	.insn	2, 0x3370
 180:	2032                	.insn	2, 0x2032
 182:	6d2d                	lui	s10,0xb
 184:	7369                	lui	t1,0xffffa
 186:	2d61                	jal	81e <__clz_tab+0xb6>
 188:	63657073          	csrci	0x636,10
 18c:	323d                	jal	fffffaba <__stack_top+0xfe7ffaba>
 18e:	3130                	.insn	2, 0x3130
 190:	3139                	jal	fffffd9e <__stack_top+0xfe7ffd9e>
 192:	3132                	.insn	2, 0x3132
 194:	6d2d2033          	.insn	4, 0x6d2d2033
 198:	7261                	lui	tp,0xffff8
 19a:	723d6863          	bltu	s10,gp,8ca <__data_load_start+0x62>
 19e:	3376                	.insn	2, 0x3376
 1a0:	6932                	.insn	2, 0x6932
 1a2:	637a5f63          	bge	s4,s7,7e0 <__clz_tab+0x78>
 1a6:	2061                	jal	22e <__udivdi3+0x146>
 1a8:	672d                	lui	a4,0xb
 1aa:	2d20                	.insn	2, 0x2d20
 1ac:	2d20734f          	.insn	4, 0x2d20734f
 1b0:	2d20324f          	.insn	4, 0x2d20324f
 1b4:	2d20734f          	.insn	4, 0x2d20734f
 1b8:	6266                	.insn	2, 0x6266
 1ba:	6975                	lui	s2,0x1d
 1bc:	646c                	.insn	2, 0x646c
 1be:	6e69                	lui	t3,0x1a
 1c0:	696c2d67          	.insn	4, 0x696c2d67
 1c4:	6762                	.insn	2, 0x6762
 1c6:	2d206363          	bltu	zero,s2,48c <__udivdi3+0x3a4>
 1ca:	6e66                	.insn	2, 0x6e66
 1cc:	74732d6f          	jal	s10,33112 <__data_load_start+0x328aa>
 1d0:	6361                	lui	t1,0x18
 1d2:	72702d6b          	.insn	4, 0x72702d6b
 1d6:	6365746f          	jal	s0,5780c <__data_load_start+0x56fa4>
 1da:	6f74                	.insn	2, 0x6f74
 1dc:	2072                	.insn	2, 0x2072
 1de:	662d                	lui	a2,0xb
 1e0:	7361                	lui	t1,0xffff8
 1e2:	6e79                	lui	t3,0x1e
 1e4:	6f726863          	bltu	tp,s7,8d4 <__data_load_start+0x6c>
 1e8:	6f6e                	.insn	2, 0x6f6e
 1ea:	7375                	lui	t1,0xffffd
 1ec:	752d                	lui	a0,0xfffeb
 1ee:	776e                	.insn	2, 0x776e
 1f0:	6e69                	lui	t3,0x1a
 1f2:	2d64                	.insn	2, 0x2d64
 1f4:	6174                	.insn	2, 0x6174
 1f6:	6c62                	.insn	2, 0x6c62
 1f8:	7365                	lui	t1,0xffff9
 1fa:	2d20                	.insn	2, 0x2d20
 1fc:	7666                	.insn	2, 0x7666
 1fe:	7369                	lui	t1,0xffffa
 200:	6269                	lui	tp,0x1a
 202:	6c69                	lui	s8,0x1a
 204:	7469                	lui	s0,0xffffa
 206:	3d79                	jal	a4 <trap_entry+0x44>
 208:	6968                	.insn	2, 0x6968
 20a:	6464                	.insn	2, 0x6464
 20c:	6e65                	lui	t3,0x19
 20e:	5f00                	lw	s0,56(a4)
 210:	755f 0068 5f5f      	.insn	6, 0x5f5f0068755f
 216:	6c75                	lui	s8,0x1d
 218:	2e00                	.insn	2, 0x2e00
 21a:	2f2e                	.insn	2, 0x2f2e
 21c:	2e2e                	.insn	2, 0x2e2e
 21e:	2f2e2e2f          	.insn	4, 0x2f2e2e2f
 222:	2e2e                	.insn	2, 0x2e2e
 224:	6363672f          	.insn	4, 0x6363672f
 228:	62696c2f          	.insn	4, 0x62696c2f
 22c:	2f636367          	.insn	4, 0x2f636367
 230:	666e6f63          	bltu	t3,t1,8ae <__data_load_start+0x46>
 234:	6769                	lui	a4,0x1a
 236:	7369722f          	.insn	4, 0x7369722f
 23a:	6d2f7663          	bgeu	t5,s2,906 <__data_load_start+0x9e>
 23e:	6c75                	lui	s8,0x1d
 240:	6964                	.insn	2, 0x6964
 242:	00532e33          	slt	t3,t1,t0
 246:	6d6f682f          	.insn	4, 0x6d6f682f
 24a:	2f65                	jal	a02 <__data_load_start+0x19a>
 24c:	6874                	.insn	2, 0x6874
 24e:	6e61                	lui	t3,0x18
 250:	7468                	.insn	2, 0x7468
 252:	6172                	.insn	2, 0x6172
 254:	2f6e                	.insn	2, 0x2f6e
 256:	7066                	.insn	2, 0x7066
 258:	722f6167          	.insn	4, 0x722f6167
 25c:	7369                	lui	t1,0xffffa
 25e:	672d7663          	bgeu	s10,s2,8ca <__data_load_start+0x62>
 262:	756e                	.insn	2, 0x756e
 264:	742d                	lui	s0,0xfffeb
 266:	636c6f6f          	jal	t5,c689c <__data_load_start+0xc6034>
 26a:	6168                	.insn	2, 0x6168
 26c:	6e69                	lui	t3,0x1a
 26e:	6975622f          	.insn	4, 0x6975622f
 272:	646c                	.insn	2, 0x646c
 274:	6975622f          	.insn	4, 0x6975622f
 278:	646c                	.insn	2, 0x646c
 27a:	672d                	lui	a4,0xb
 27c:	6e2d6363          	bltu	s10,sp,962 <__data_load_start+0xfa>
 280:	7765                	lui	a4,0xffff9
 282:	696c                	.insn	2, 0x696c
 284:	2d62                	.insn	2, 0x2d62
 286:	67617473          	csrrci	s0,0x676,2
 28a:	3265                	jal	fffffc32 <__stack_top+0xfe7ffc32>
 28c:	7369722f          	.insn	4, 0x7369722f
 290:	32337663          	bgeu	t1,gp,5bc <main+0x38>
 294:	752d                	lui	a0,0xfffeb
 296:	6b6e                	.insn	2, 0x6b6e
 298:	6f6e                	.insn	2, 0x6f6e
 29a:	652d6e77          	.insn	4, 0x652d6e77
 29e:	666c                	.insn	2, 0x666c
 2a0:	62696c2f          	.insn	4, 0x62696c2f
 2a4:	00636367          	.insn	4, 0x00636367
 2a8:	20554e47          	.insn	4, 0x20554e47
 2ac:	5341                	li	t1,-16
 2ae:	3220                	.insn	2, 0x3220
 2b0:	342e                	.insn	2, 0x342e
 2b2:	0035                	c.nop	13
 2b4:	2e2e                	.insn	2, 0x2e2e
 2b6:	2f2e2e2f          	.insn	4, 0x2f2e2e2f
 2ba:	2e2e                	.insn	2, 0x2e2e
 2bc:	2f2e2e2f          	.insn	4, 0x2f2e2e2f
 2c0:	2f636367          	.insn	4, 0x2f636367
 2c4:	696c                	.insn	2, 0x696c
 2c6:	6762                	.insn	2, 0x6762
 2c8:	632f6363          	bltu	t5,s2,8ee <__data_load_start+0x86>
 2cc:	69666e6f          	jal	t3,66962 <__data_load_start+0x660fa>
 2d0:	69722f67          	.insn	4, 0x69722f67
 2d4:	2f766373          	csrrsi	t1,0x2f7,12
 2d8:	6964                	.insn	2, 0x6964
 2da:	2e76                	.insn	2, 0x2e76
 2dc:	5f5f0053          	.insn	4, 0x5f5f0053
 2e0:	6964                	.insn	2, 0x6964
 2e2:	7376                	.insn	2, 0x7376
 2e4:	3369                	jal	6e <trap_entry+0xe>
 2e6:	5f00                	lw	s0,56(a4)
 2e8:	685f 6469 6564      	.insn	6, 0x65646469685f
 2ee:	5f6e                	lw	t5,248(sp)
 2f0:	5f5f 6475 7669      	.insn	6, 0x766964755f5f
 2f6:	00336973          	csrrsi	s2,fcsr,6
 2fa:	5f5f 6f6d 7364      	.insn	6, 0x73646f6d5f5f
 300:	3369                	jal	8a <trap_entry+0x2a>
 302:	4700                	lw	s0,8(a4)
 304:	554e                	lw	a0,240(sp)
 306:	4320                	lw	s0,64(a4)
 308:	3332                	.insn	2, 0x3332
 30a:	3120                	.insn	2, 0x3120
 30c:	2e35                	jal	648 <gpio_int_enable+0x16>
 30e:	2e32                	.insn	2, 0x2e32
 310:	2030                	.insn	2, 0x2030
 312:	6d2d                	lui	s10,0xb
 314:	646f6d63          	bltu	t5,t1,96e <__data_load_start+0x106>
 318:	6c65                	lui	s8,0x19
 31a:	6d3d                	lui	s10,0xf
 31c:	6465                	lui	s0,0x19
 31e:	6f6c                	.insn	2, 0x6f6c
 320:	6d2d2077          	.insn	4, 0x6d2d2077
 324:	646f6d63          	bltu	t5,t1,97e <__data_load_start+0x116>
 328:	6c65                	lui	s8,0x19
 32a:	6d3d                	lui	s10,0xf
 32c:	6465                	lui	s0,0x19
 32e:	6f6c                	.insn	2, 0x6f6c
 330:	6d2d2077          	.insn	4, 0x6d2d2077
 334:	6261                	lui	tp,0x18
 336:	3d69                	jal	1d0 <__udivdi3+0xe8>
 338:	6c69                	lui	s8,0x1a
 33a:	3370                	.insn	2, 0x3370
 33c:	2032                	.insn	2, 0x2032
 33e:	6d2d                	lui	s10,0xb
 340:	7369                	lui	t1,0xffffa
 342:	2d61                	jal	9da <__data_load_start+0x172>
 344:	63657073          	csrci	0x636,10
 348:	323d                	jal	fffffc76 <__stack_top+0xfe7ffc76>
 34a:	3130                	.insn	2, 0x3130
 34c:	3139                	jal	ffffff5a <__stack_top+0xfe7fff5a>
 34e:	3132                	.insn	2, 0x3132
 350:	6d2d2033          	.insn	4, 0x6d2d2033
 354:	7261                	lui	tp,0xffff8
 356:	723d6863          	bltu	s10,gp,a86 <__data_load_start+0x21e>
 35a:	3376                	.insn	2, 0x3376
 35c:	6932                	.insn	2, 0x6932
 35e:	637a5f63          	bge	s4,s7,99c <__data_load_start+0x134>
 362:	2061                	jal	3ea <__udivdi3+0x302>
 364:	672d                	lui	a4,0xb
 366:	2d20                	.insn	2, 0x2d20
 368:	2d20734f          	.insn	4, 0x2d20734f
 36c:	2d20324f          	.insn	4, 0x2d20324f
 370:	2d20734f          	.insn	4, 0x2d20734f
 374:	6266                	.insn	2, 0x6266
 376:	6975                	lui	s2,0x1d
 378:	646c                	.insn	2, 0x646c
 37a:	6e69                	lui	t3,0x1a
 37c:	696c2d67          	.insn	4, 0x696c2d67
 380:	6762                	.insn	2, 0x6762
 382:	2d206363          	bltu	zero,s2,648 <gpio_int_enable+0x16>
 386:	6e66                	.insn	2, 0x6e66
 388:	74732d6f          	jal	s10,332ce <__data_load_start+0x32a66>
 38c:	6361                	lui	t1,0x18
 38e:	72702d6b          	.insn	4, 0x72702d6b
 392:	6365746f          	jal	s0,579c8 <__data_load_start+0x57160>
 396:	6f74                	.insn	2, 0x6f74
 398:	2072                	.insn	2, 0x2072
 39a:	662d                	lui	a2,0xb
 39c:	6976                	.insn	2, 0x6976
 39e:	69626973          	csrrsi	s2,0x696,4
 3a2:	696c                	.insn	2, 0x696c
 3a4:	7974                	.insn	2, 0x7974
 3a6:	683d                	lui	a6,0xf
 3a8:	6469                	lui	s0,0x1a
 3aa:	6564                	.insn	2, 0x6564
 3ac:	006e                	c.slli	zero,0x1b

Disassembly of section .debug_line_str:

00000000 <.debug_line_str>:
   0:	2e2e                	.insn	2, 0x2e2e
   2:	2f2e2e2f          	.insn	4, 0x2f2e2e2f
   6:	2e2e                	.insn	2, 0x2e2e
   8:	2f2e2e2f          	.insn	4, 0x2f2e2e2f
   c:	2f636367          	.insn	4, 0x2f636367
  10:	696c                	.insn	2, 0x696c
  12:	6762                	.insn	2, 0x6762
  14:	6c2f6363          	bltu	t5,sp,6da <irq_init+0x40>
  18:	6269                	lui	tp,0x1a
  1a:	32636367          	.insn	4, 0x32636367
  1e:	632e                	.insn	2, 0x632e
  20:	6c00                	.insn	2, 0x6c00
  22:	6269                	lui	tp,0x1a
  24:	32636367          	.insn	4, 0x32636367
  28:	682e                	.insn	2, 0x682e
  2a:	2f00                	.insn	2, 0x2f00
  2c:	6f68                	.insn	2, 0x6f68
  2e:	656d                	lui	a0,0x1b
  30:	6168742f          	.insn	4, 0x6168742f
  34:	686e                	.insn	2, 0x686e
  36:	7274                	.insn	2, 0x7274
  38:	6e61                	lui	t3,0x18
  3a:	6770662f          	.insn	4, 0x6770662f
  3e:	2f61                	jal	7d6 <__clz_tab+0x6e>
  40:	6972                	.insn	2, 0x6972
  42:	2d766373          	csrrsi	t1,0x2d7,12
  46:	2d756e67          	.insn	4, 0x2d756e67
  4a:	6f74                	.insn	2, 0x6f74
  4c:	68636c6f          	jal	s8,366d2 <__data_load_start+0x35e6a>
  50:	6961                	lui	s2,0x18
  52:	2f6e                	.insn	2, 0x2f6e
  54:	7562                	.insn	2, 0x7562
  56:	6c69                	lui	s8,0x1a
  58:	2f64                	.insn	2, 0x2f64
  5a:	7562                	.insn	2, 0x7562
  5c:	6c69                	lui	s8,0x1a
  5e:	2d64                	.insn	2, 0x2d64
  60:	2d636367          	.insn	4, 0x2d636367
  64:	656e                	.insn	2, 0x656e
  66:	62696c77          	.insn	4, 0x62696c77
  6a:	732d                	lui	t1,0xfffeb
  6c:	6174                	.insn	2, 0x6174
  6e:	2f326567          	.insn	4, 0x2f326567
  72:	6972                	.insn	2, 0x6972
  74:	33766373          	csrrsi	t1,mhpmevent23,12
  78:	2d32                	.insn	2, 0x2d32
  7a:	6e75                	lui	t3,0x1d
  7c:	776f6e6b          	.insn	4, 0x776f6e6b
  80:	2d6e                	.insn	2, 0x2d6e
  82:	6c65                	lui	s8,0x19
  84:	2f66                	.insn	2, 0x2f66
  86:	696c                	.insn	2, 0x696c
  88:	6762                	.insn	2, 0x6762
  8a:	2e006363          	bltu	zero,zero,370 <__udivdi3+0x288>
  8e:	2f2e                	.insn	2, 0x2f2e
  90:	2e2e                	.insn	2, 0x2e2e
  92:	2f2e2e2f          	.insn	4, 0x2f2e2e2f
  96:	2e2e                	.insn	2, 0x2e2e
  98:	6363672f          	.insn	4, 0x6363672f
  9c:	62696c2f          	.insn	4, 0x62696c2f
  a0:	00636367          	.insn	4, 0x00636367
  a4:	2e2e                	.insn	2, 0x2e2e
  a6:	2f2e2e2f          	.insn	4, 0x2f2e2e2f
  aa:	2e2e                	.insn	2, 0x2e2e
  ac:	2f2e2e2f          	.insn	4, 0x2f2e2e2f
  b0:	2f636367          	.insn	4, 0x2f636367
  b4:	696c                	.insn	2, 0x696c
  b6:	6762                	.insn	2, 0x6762
  b8:	632f6363          	bltu	t5,s2,6de <irq_init+0x44>
  bc:	69666e6f          	jal	t3,66752 <__data_load_start+0x65eea>
  c0:	69722f67          	.insn	4, 0x69722f67
  c4:	00766373          	csrrsi	t1,0x7,12
  c8:	756d                	lui	a0,0xffffb
  ca:	646c                	.insn	2, 0x646c
  cc:	3369                	jal	fffffe56 <__stack_top+0xfe7ffe56>
  ce:	532e                	lw	t1,232(sp)
  d0:	6400                	.insn	2, 0x6400
  d2:	7669                	lui	a2,0xffffa
  d4:	532e                	lw	t1,232(sp)
	...
