
build/gpio-int.elf:     file format elf32-littleriscv


Disassembly of section .text:

00000000 <_start>:
   0:	02000117          	auipc	sp,0x2000
   4:	00010113          	mv	sp,sp
   8:	01000197          	auipc	gp,0x1000
   c:	7f818193          	addi	gp,gp,2040 # 1000800 <__global_pointer$>
  10:	01000737          	lui	a4,0x1000
  14:	010006b7          	lui	a3,0x1000
  18:	00070713          	mv	a4,a4
  1c:	00068693          	mv	a3,a3
  20:	00d77f63          	bgeu	a4,a3,3e <_start+0x3e>
  24:	6785                	lui	a5,0x1
  26:	8e99                	sub	a3,a3,a4
  28:	87078793          	addi	a5,a5,-1936 # 870 <__data_load_start>
  2c:	00f68633          	add	a2,a3,a5
  30:	4394                	lw	a3,0(a5)
  32:	0791                	addi	a5,a5,4
  34:	0711                	addi	a4,a4,4 # 1000004 <s_handlers+0x4>
  36:	fed72e23          	sw	a3,-4(a4)
  3a:	fec79be3          	bne	a5,a2,30 <_start+0x30>
  3e:	010007b7          	lui	a5,0x1000
  42:	01000737          	lui	a4,0x1000
  46:	00078793          	mv	a5,a5
  4a:	04470713          	addi	a4,a4,68 # 1000044 <__bss_end>
  4e:	00e7f763          	bgeu	a5,a4,5c <_start+0x5c>
  52:	0007a023          	sw	zero,0(a5) # 1000000 <s_handlers>
  56:	0791                	addi	a5,a5,4
  58:	fef71de3          	bne	a4,a5,52 <_start+0x52>
  5c:	2b05                	jal	58c <main>
  5e:	a001                	j	5e <_start+0x5e>

00000060 <trap_entry>:
  60:	7139                	addi	sp,sp,-64
  62:	c006                	sw	ra,0(sp)
  64:	c20e                	sw	gp,4(sp)
  66:	c412                	sw	tp,8(sp)
  68:	c616                	sw	t0,12(sp)
  6a:	c81a                	sw	t1,16(sp)
  6c:	ca1e                	sw	t2,20(sp)
  6e:	cc22                	sw	s0,24(sp)
  70:	ce26                	sw	s1,28(sp)
  72:	d02a                	sw	a0,32(sp)
  74:	d22e                	sw	a1,36(sp)
  76:	d432                	sw	a2,40(sp)
  78:	d636                	sw	a3,44(sp)
  7a:	d83a                	sw	a4,48(sp)
  7c:	da3e                	sw	a5,52(sp)
  7e:	34202573          	csrr	a0,mcause
  82:	25d1                	jal	746 <irq_trap_dispatch>
  84:	4082                	lw	ra,0(sp)
  86:	4192                	lw	gp,4(sp)
  88:	4222                	lw	tp,8(sp)
  8a:	42b2                	lw	t0,12(sp)
  8c:	4342                	lw	t1,16(sp)
  8e:	43d2                	lw	t2,20(sp)
  90:	4462                	lw	s0,24(sp)
  92:	44f2                	lw	s1,28(sp)
  94:	5502                	lw	a0,32(sp)
  96:	5592                	lw	a1,36(sp)
  98:	5622                	lw	a2,40(sp)
  9a:	56b2                	lw	a3,44(sp)
  9c:	5742                	lw	a4,48(sp)
  9e:	57d2                	lw	a5,52(sp)
  a0:	6121                	addi	sp,sp,64
  a2:	30200073          	mret
  a6:	0001                	nop

000000a8 <__udivdi3>:
  a8:	fd410113          	addi	sp,sp,-44 # 1ffffd4 <__heap_limit+0xfd4>
  ac:	d406                	sw	ra,40(sp)
  ae:	d222                	sw	s0,36(sp)
  b0:	d026                	sw	s1,32(sp)
  b2:	832a                	mv	t1,a0
  b4:	28069763          	bnez	a3,342 <__udivdi3+0x29a>
  b8:	82b6                	mv	t0,a3
  ba:	4681                	li	a3,0
  bc:	8732                	mv	a4,a2
  be:	842a                	mv	s0,a0
  c0:	77000693          	li	a3,1904
  c4:	0ec5fa63          	bgeu	a1,a2,1b8 <__udivdi3+0x110>
  c8:	67c1                	lui	a5,0x10
  ca:	84ae                	mv	s1,a1
  cc:	0cf67a63          	bgeu	a2,a5,1a0 <__udivdi3+0xf8>
  d0:	10063793          	sltiu	a5,a2,256
  d4:	0017b793          	seqz	a5,a5
  d8:	078e                	slli	a5,a5,0x3
  da:	00f65533          	srl	a0,a2,a5
  de:	96aa                	add	a3,a3,a0
  e0:	0006c683          	lbu	a3,0(a3) # 1000000 <s_handlers>
  e4:	97b6                	add	a5,a5,a3
  e6:	02000693          	li	a3,32
  ea:	00d78c63          	beq	a5,a3,102 <__udivdi3+0x5a>
  ee:	8e9d                	sub	a3,a3,a5
  f0:	00d594b3          	sll	s1,a1,a3
  f4:	00f357b3          	srl	a5,t1,a5
  f8:	00d61733          	sll	a4,a2,a3
  fc:	8cdd                	or	s1,s1,a5
  fe:	00d31433          	sll	s0,t1,a3
 102:	01075793          	srli	a5,a4,0x10
 106:	c03e                	sw	a5,0(sp)
 108:	4582                	lw	a1,0(sp)
 10a:	01071793          	slli	a5,a4,0x10
 10e:	83c1                	srli	a5,a5,0x10
 110:	8526                	mv	a0,s1
 112:	ca16                	sw	t0,20(sp)
 114:	c83a                	sw	a4,16(sp)
 116:	c23e                	sw	a5,4(sp)
 118:	26f1                	jal	4e4 <__hidden___udivsi3>
 11a:	85aa                	mv	a1,a0
 11c:	c62a                	sw	a0,12(sp)
 11e:	4512                	lw	a0,4(sp)
 120:	2665                	jal	4c8 <__mulsi3>
 122:	4582                	lw	a1,0(sp)
 124:	c42a                	sw	a0,8(sp)
 126:	8526                	mv	a0,s1
 128:	26e5                	jal	510 <__umodsi3>
 12a:	4622                	lw	a2,8(sp)
 12c:	0542                	slli	a0,a0,0x10
 12e:	01045693          	srli	a3,s0,0x10
 132:	8ec9                	or	a3,a3,a0
 134:	47b2                	lw	a5,12(sp)
 136:	4742                	lw	a4,16(sp)
 138:	42d2                	lw	t0,20(sp)
 13a:	00c6f863          	bgeu	a3,a2,14a <__udivdi3+0xa2>
 13e:	96ba                	add	a3,a3,a4
 140:	00c6f463          	bgeu	a3,a2,148 <__udivdi3+0xa0>
 144:	06e6f563          	bgeu	a3,a4,1ae <__udivdi3+0x106>
 148:	17fd                	addi	a5,a5,-1 # ffff <__data_load_start+0xf78f>
 14a:	4582                	lw	a1,0(sp)
 14c:	ca3e                	sw	a5,20(sp)
 14e:	40c687b3          	sub	a5,a3,a2
 152:	853e                	mv	a0,a5
 154:	c816                	sw	t0,16(sp)
 156:	c43e                	sw	a5,8(sp)
 158:	c63a                	sw	a4,12(sp)
 15a:	2669                	jal	4e4 <__hidden___udivsi3>
 15c:	85aa                	mv	a1,a0
 15e:	84aa                	mv	s1,a0
 160:	4512                	lw	a0,4(sp)
 162:	0442                	slli	s0,s0,0x10
 164:	8041                	srli	s0,s0,0x10
 166:	268d                	jal	4c8 <__mulsi3>
 168:	c22a                	sw	a0,4(sp)
 16a:	4582                	lw	a1,0(sp)
 16c:	4522                	lw	a0,8(sp)
 16e:	264d                	jal	510 <__umodsi3>
 170:	4692                	lw	a3,4(sp)
 172:	0542                	slli	a0,a0,0x10
 174:	8c49                	or	s0,s0,a0
 176:	42c2                	lw	t0,16(sp)
 178:	47d2                	lw	a5,20(sp)
 17a:	00d47963          	bgeu	s0,a3,18c <__udivdi3+0xe4>
 17e:	4732                	lw	a4,12(sp)
 180:	943a                	add	s0,s0,a4
 182:	00d47463          	bgeu	s0,a3,18a <__udivdi3+0xe2>
 186:	02e47763          	bgeu	s0,a4,1b4 <__udivdi3+0x10c>
 18a:	14fd                	addi	s1,s1,-1
 18c:	07c2                	slli	a5,a5,0x10
 18e:	8fc5                	or	a5,a5,s1
 190:	50a2                	lw	ra,40(sp)
 192:	5412                	lw	s0,36(sp)
 194:	5482                	lw	s1,32(sp)
 196:	853e                	mv	a0,a5
 198:	8596                	mv	a1,t0
 19a:	02c10113          	addi	sp,sp,44
 19e:	8082                	ret
 1a0:	01000537          	lui	a0,0x1000
 1a4:	47e1                	li	a5,24
 1a6:	f2a67ae3          	bgeu	a2,a0,da <__udivdi3+0x32>
 1aa:	47c1                	li	a5,16
 1ac:	b73d                	j	da <__udivdi3+0x32>
 1ae:	17f9                	addi	a5,a5,-2
 1b0:	96ba                	add	a3,a3,a4
 1b2:	bf61                	j	14a <__udivdi3+0xa2>
 1b4:	14f9                	addi	s1,s1,-2
 1b6:	bfd9                	j	18c <__udivdi3+0xe4>
 1b8:	4781                	li	a5,0
 1ba:	ca09                	beqz	a2,1cc <__udivdi3+0x124>
 1bc:	67c1                	lui	a5,0x10
 1be:	0af67c63          	bgeu	a2,a5,276 <__udivdi3+0x1ce>
 1c2:	10063793          	sltiu	a5,a2,256
 1c6:	0017b793          	seqz	a5,a5
 1ca:	078e                	slli	a5,a5,0x3
 1cc:	00f65533          	srl	a0,a2,a5
 1d0:	96aa                	add	a3,a3,a0
 1d2:	0006c683          	lbu	a3,0(a3)
 1d6:	97b6                	add	a5,a5,a3
 1d8:	02000693          	li	a3,32
 1dc:	0ad79463          	bne	a5,a3,284 <__udivdi3+0x1dc>
 1e0:	40c584b3          	sub	s1,a1,a2
 1e4:	4285                	li	t0,1
 1e6:	01075793          	srli	a5,a4,0x10
 1ea:	c03e                	sw	a5,0(sp)
 1ec:	4582                	lw	a1,0(sp)
 1ee:	01071793          	slli	a5,a4,0x10
 1f2:	83c1                	srli	a5,a5,0x10
 1f4:	8526                	mv	a0,s1
 1f6:	ca16                	sw	t0,20(sp)
 1f8:	c83a                	sw	a4,16(sp)
 1fa:	c23e                	sw	a5,4(sp)
 1fc:	24e5                	jal	4e4 <__hidden___udivsi3>
 1fe:	85aa                	mv	a1,a0
 200:	c62a                	sw	a0,12(sp)
 202:	4512                	lw	a0,4(sp)
 204:	24d1                	jal	4c8 <__mulsi3>
 206:	4582                	lw	a1,0(sp)
 208:	c42a                	sw	a0,8(sp)
 20a:	8526                	mv	a0,s1
 20c:	2611                	jal	510 <__umodsi3>
 20e:	4622                	lw	a2,8(sp)
 210:	0542                	slli	a0,a0,0x10
 212:	01045793          	srli	a5,s0,0x10
 216:	8fc9                	or	a5,a5,a0
 218:	46b2                	lw	a3,12(sp)
 21a:	4742                	lw	a4,16(sp)
 21c:	42d2                	lw	t0,20(sp)
 21e:	00c7f863          	bgeu	a5,a2,22e <__udivdi3+0x186>
 222:	97ba                	add	a5,a5,a4
 224:	00c7f463          	bgeu	a5,a2,22c <__udivdi3+0x184>
 228:	10e7f863          	bgeu	a5,a4,338 <__udivdi3+0x290>
 22c:	16fd                	addi	a3,a3,-1
 22e:	4582                	lw	a1,0(sp)
 230:	8f91                	sub	a5,a5,a2
 232:	853e                	mv	a0,a5
 234:	ca36                	sw	a3,20(sp)
 236:	c816                	sw	t0,16(sp)
 238:	c43e                	sw	a5,8(sp)
 23a:	c63a                	sw	a4,12(sp)
 23c:	2465                	jal	4e4 <__hidden___udivsi3>
 23e:	85aa                	mv	a1,a0
 240:	84aa                	mv	s1,a0
 242:	4512                	lw	a0,4(sp)
 244:	0442                	slli	s0,s0,0x10
 246:	8041                	srli	s0,s0,0x10
 248:	2441                	jal	4c8 <__mulsi3>
 24a:	c22a                	sw	a0,4(sp)
 24c:	4582                	lw	a1,0(sp)
 24e:	4522                	lw	a0,8(sp)
 250:	24c1                	jal	510 <__umodsi3>
 252:	4792                	lw	a5,4(sp)
 254:	0542                	slli	a0,a0,0x10
 256:	8c49                	or	s0,s0,a0
 258:	42c2                	lw	t0,16(sp)
 25a:	46d2                	lw	a3,20(sp)
 25c:	00f47963          	bgeu	s0,a5,26e <__udivdi3+0x1c6>
 260:	4732                	lw	a4,12(sp)
 262:	943a                	add	s0,s0,a4
 264:	00f47463          	bgeu	s0,a5,26c <__udivdi3+0x1c4>
 268:	0ce47b63          	bgeu	s0,a4,33e <__udivdi3+0x296>
 26c:	14fd                	addi	s1,s1,-1
 26e:	06c2                	slli	a3,a3,0x10
 270:	0096e7b3          	or	a5,a3,s1
 274:	bf31                	j	190 <__udivdi3+0xe8>
 276:	01000537          	lui	a0,0x1000
 27a:	47e1                	li	a5,24
 27c:	f4a678e3          	bgeu	a2,a0,1cc <__udivdi3+0x124>
 280:	47c1                	li	a5,16
 282:	b7a9                	j	1cc <__udivdi3+0x124>
 284:	8e9d                	sub	a3,a3,a5
 286:	00d61733          	sll	a4,a2,a3
 28a:	00f5d633          	srl	a2,a1,a5
 28e:	00d595b3          	sll	a1,a1,a3
 292:	00f357b3          	srl	a5,t1,a5
 296:	00b7e4b3          	or	s1,a5,a1
 29a:	01075793          	srli	a5,a4,0x10
 29e:	c03e                	sw	a5,0(sp)
 2a0:	4582                	lw	a1,0(sp)
 2a2:	01071793          	slli	a5,a4,0x10
 2a6:	83c1                	srli	a5,a5,0x10
 2a8:	8532                	mv	a0,a2
 2aa:	00d31433          	sll	s0,t1,a3
 2ae:	ca3a                	sw	a4,20(sp)
 2b0:	c43e                	sw	a5,8(sp)
 2b2:	c232                	sw	a2,4(sp)
 2b4:	2c05                	jal	4e4 <__hidden___udivsi3>
 2b6:	85aa                	mv	a1,a0
 2b8:	c82a                	sw	a0,16(sp)
 2ba:	4522                	lw	a0,8(sp)
 2bc:	2431                	jal	4c8 <__mulsi3>
 2be:	c62a                	sw	a0,12(sp)
 2c0:	4582                	lw	a1,0(sp)
 2c2:	4512                	lw	a0,4(sp)
 2c4:	24b1                	jal	510 <__umodsi3>
 2c6:	46b2                	lw	a3,12(sp)
 2c8:	0542                	slli	a0,a0,0x10
 2ca:	0104d793          	srli	a5,s1,0x10
 2ce:	8fc9                	or	a5,a5,a0
 2d0:	42c2                	lw	t0,16(sp)
 2d2:	4752                	lw	a4,20(sp)
 2d4:	00d7f863          	bgeu	a5,a3,2e4 <__udivdi3+0x23c>
 2d8:	97ba                	add	a5,a5,a4
 2da:	00d7f463          	bgeu	a5,a3,2e2 <__udivdi3+0x23a>
 2de:	04e7f763          	bgeu	a5,a4,32c <__udivdi3+0x284>
 2e2:	12fd                	addi	t0,t0,-1
 2e4:	4582                	lw	a1,0(sp)
 2e6:	8f95                	sub	a5,a5,a3
 2e8:	853e                	mv	a0,a5
 2ea:	ca16                	sw	t0,20(sp)
 2ec:	c83a                	sw	a4,16(sp)
 2ee:	c23e                	sw	a5,4(sp)
 2f0:	2ad5                	jal	4e4 <__hidden___udivsi3>
 2f2:	85aa                	mv	a1,a0
 2f4:	c62a                	sw	a0,12(sp)
 2f6:	4522                	lw	a0,8(sp)
 2f8:	04c2                	slli	s1,s1,0x10
 2fa:	80c1                	srli	s1,s1,0x10
 2fc:	22f1                	jal	4c8 <__mulsi3>
 2fe:	c42a                	sw	a0,8(sp)
 300:	4582                	lw	a1,0(sp)
 302:	4512                	lw	a0,4(sp)
 304:	2431                	jal	510 <__umodsi3>
 306:	46a2                	lw	a3,8(sp)
 308:	0542                	slli	a0,a0,0x10
 30a:	8cc9                	or	s1,s1,a0
 30c:	47b2                	lw	a5,12(sp)
 30e:	4742                	lw	a4,16(sp)
 310:	42d2                	lw	t0,20(sp)
 312:	00d4f863          	bgeu	s1,a3,322 <__udivdi3+0x27a>
 316:	94ba                	add	s1,s1,a4
 318:	00d4f463          	bgeu	s1,a3,320 <__udivdi3+0x278>
 31c:	00e4fb63          	bgeu	s1,a4,332 <__udivdi3+0x28a>
 320:	17fd                	addi	a5,a5,-1 # ffff <__data_load_start+0xf78f>
 322:	02c2                	slli	t0,t0,0x10
 324:	8c95                	sub	s1,s1,a3
 326:	00f2e2b3          	or	t0,t0,a5
 32a:	bd75                	j	1e6 <__udivdi3+0x13e>
 32c:	12f9                	addi	t0,t0,-2
 32e:	97ba                	add	a5,a5,a4
 330:	bf55                	j	2e4 <__udivdi3+0x23c>
 332:	17f9                	addi	a5,a5,-2
 334:	94ba                	add	s1,s1,a4
 336:	b7f5                	j	322 <__udivdi3+0x27a>
 338:	16f9                	addi	a3,a3,-2
 33a:	97ba                	add	a5,a5,a4
 33c:	bdcd                	j	22e <__udivdi3+0x186>
 33e:	14f9                	addi	s1,s1,-2
 340:	b73d                	j	26e <__udivdi3+0x1c6>
 342:	16d5ef63          	bltu	a1,a3,4c0 <__udivdi3+0x418>
 346:	67c1                	lui	a5,0x10
 348:	02f6fd63          	bgeu	a3,a5,382 <__udivdi3+0x2da>
 34c:	1006b793          	sltiu	a5,a3,256
 350:	0017b793          	seqz	a5,a5
 354:	078e                	slli	a5,a5,0x3
 356:	4701                	li	a4,0
 358:	00f6d533          	srl	a0,a3,a5
 35c:	77000713          	li	a4,1904
 360:	972a                	add	a4,a4,a0
 362:	00074703          	lbu	a4,0(a4)
 366:	02000293          	li	t0,32
 36a:	973e                	add	a4,a4,a5
 36c:	02571263          	bne	a4,t0,390 <__udivdi3+0x2e8>
 370:	00c337b3          	sltu	a5,t1,a2
 374:	0017b793          	seqz	a5,a5
 378:	00b6b6b3          	sltu	a3,a3,a1
 37c:	8fd5                	or	a5,a5,a3
 37e:	4281                	li	t0,0
 380:	bd01                	j	190 <__udivdi3+0xe8>
 382:	01000737          	lui	a4,0x1000
 386:	47e1                	li	a5,24
 388:	fce6f7e3          	bgeu	a3,a4,356 <__udivdi3+0x2ae>
 38c:	47c1                	li	a5,16
 38e:	b7e1                	j	356 <__udivdi3+0x2ae>
 390:	40e282b3          	sub	t0,t0,a4
 394:	005697b3          	sll	a5,a3,t0
 398:	00e656b3          	srl	a3,a2,a4
 39c:	8edd                	or	a3,a3,a5
 39e:	005617b3          	sll	a5,a2,t0
 3a2:	c23e                	sw	a5,4(sp)
 3a4:	00e5d7b3          	srl	a5,a1,a4
 3a8:	c43e                	sw	a5,8(sp)
 3aa:	0106d793          	srli	a5,a3,0x10
 3ae:	005595b3          	sll	a1,a1,t0
 3b2:	00e35733          	srl	a4,t1,a4
 3b6:	c03e                	sw	a5,0(sp)
 3b8:	00b764b3          	or	s1,a4,a1
 3bc:	4522                	lw	a0,8(sp)
 3be:	4582                	lw	a1,0(sp)
 3c0:	01069793          	slli	a5,a3,0x10
 3c4:	83c1                	srli	a5,a5,0x10
 3c6:	ce16                	sw	t0,28(sp)
 3c8:	cc1a                	sw	t1,24(sp)
 3ca:	ca36                	sw	a3,20(sp)
 3cc:	c63e                	sw	a5,12(sp)
 3ce:	2a19                	jal	4e4 <__hidden___udivsi3>
 3d0:	85aa                	mv	a1,a0
 3d2:	842a                	mv	s0,a0
 3d4:	4532                	lw	a0,12(sp)
 3d6:	28cd                	jal	4c8 <__mulsi3>
 3d8:	c82a                	sw	a0,16(sp)
 3da:	4582                	lw	a1,0(sp)
 3dc:	4522                	lw	a0,8(sp)
 3de:	2a0d                	jal	510 <__umodsi3>
 3e0:	4642                	lw	a2,16(sp)
 3e2:	0542                	slli	a0,a0,0x10
 3e4:	0104d713          	srli	a4,s1,0x10
 3e8:	8f49                	or	a4,a4,a0
 3ea:	46d2                	lw	a3,20(sp)
 3ec:	4362                	lw	t1,24(sp)
 3ee:	42f2                	lw	t0,28(sp)
 3f0:	00c77863          	bgeu	a4,a2,400 <__udivdi3+0x358>
 3f4:	9736                	add	a4,a4,a3
 3f6:	00c77463          	bgeu	a4,a2,3fe <__udivdi3+0x356>
 3fa:	0ad77d63          	bgeu	a4,a3,4b4 <__udivdi3+0x40c>
 3fe:	147d                	addi	s0,s0,-1
 400:	4582                	lw	a1,0(sp)
 402:	40c707b3          	sub	a5,a4,a2
 406:	853e                	mv	a0,a5
 408:	ce1a                	sw	t1,28(sp)
 40a:	ca16                	sw	t0,20(sp)
 40c:	cc36                	sw	a3,24(sp)
 40e:	c43e                	sw	a5,8(sp)
 410:	28d1                	jal	4e4 <__hidden___udivsi3>
 412:	85aa                	mv	a1,a0
 414:	c82a                	sw	a0,16(sp)
 416:	4532                	lw	a0,12(sp)
 418:	04c2                	slli	s1,s1,0x10
 41a:	80c1                	srli	s1,s1,0x10
 41c:	2075                	jal	4c8 <__mulsi3>
 41e:	c62a                	sw	a0,12(sp)
 420:	4582                	lw	a1,0(sp)
 422:	4522                	lw	a0,8(sp)
 424:	20f5                	jal	510 <__umodsi3>
 426:	43b2                	lw	t2,12(sp)
 428:	0542                	slli	a0,a0,0x10
 42a:	8cc9                	or	s1,s1,a0
 42c:	4742                	lw	a4,16(sp)
 42e:	42d2                	lw	t0,20(sp)
 430:	4372                	lw	t1,28(sp)
 432:	0074f963          	bgeu	s1,t2,444 <__udivdi3+0x39c>
 436:	46e2                	lw	a3,24(sp)
 438:	94b6                	add	s1,s1,a3
 43a:	0074f463          	bgeu	s1,t2,442 <__udivdi3+0x39a>
 43e:	06d4fe63          	bgeu	s1,a3,4ba <__udivdi3+0x412>
 442:	177d                	addi	a4,a4,-1 # ffffff <__data_load_start+0xfff78f>
 444:	4692                	lw	a3,4(sp)
 446:	01041793          	slli	a5,s0,0x10
 44a:	00415403          	lhu	s0,4(sp)
 44e:	82c1                	srli	a3,a3,0x10
 450:	01071513          	slli	a0,a4,0x10
 454:	407483b3          	sub	t2,s1,t2
 458:	8fd9                	or	a5,a5,a4
 45a:	c036                	sw	a3,0(sp)
 45c:	8141                	srli	a0,a0,0x10
 45e:	85a2                	mv	a1,s0
 460:	20a5                	jal	4c8 <__mulsi3>
 462:	84aa                	mv	s1,a0
 464:	01071513          	slli	a0,a4,0x10
 468:	4582                	lw	a1,0(sp)
 46a:	8141                	srli	a0,a0,0x10
 46c:	28b1                	jal	4c8 <__mulsi3>
 46e:	872a                	mv	a4,a0
 470:	85a2                	mv	a1,s0
 472:	0107d513          	srli	a0,a5,0x10
 476:	2889                	jal	4c8 <__mulsi3>
 478:	842a                	mv	s0,a0
 47a:	4582                	lw	a1,0(sp)
 47c:	0107d513          	srli	a0,a5,0x10
 480:	20a1                	jal	4c8 <__mulsi3>
 482:	0104d693          	srli	a3,s1,0x10
 486:	9722                	add	a4,a4,s0
 488:	9736                	add	a4,a4,a3
 48a:	00877463          	bgeu	a4,s0,492 <__udivdi3+0x3ea>
 48e:	66c1                	lui	a3,0x10
 490:	9536                	add	a0,a0,a3
 492:	01075693          	srli	a3,a4,0x10
 496:	96aa                	add	a3,a3,a0
 498:	00d3ec63          	bltu	t2,a3,4b0 <__udivdi3+0x408>
 49c:	04c2                	slli	s1,s1,0x10
 49e:	0742                	slli	a4,a4,0x10
 4a0:	80c1                	srli	s1,s1,0x10
 4a2:	00531333          	sll	t1,t1,t0
 4a6:	9726                	add	a4,a4,s1
 4a8:	ece37be3          	bgeu	t1,a4,37e <__udivdi3+0x2d6>
 4ac:	ecd399e3          	bne	t2,a3,37e <__udivdi3+0x2d6>
 4b0:	17fd                	addi	a5,a5,-1 # ffff <__data_load_start+0xf78f>
 4b2:	b5f1                	j	37e <__udivdi3+0x2d6>
 4b4:	1479                	addi	s0,s0,-2
 4b6:	9736                	add	a4,a4,a3
 4b8:	b7a1                	j	400 <__udivdi3+0x358>
 4ba:	1779                	addi	a4,a4,-2
 4bc:	94b6                	add	s1,s1,a3
 4be:	b759                	j	444 <__udivdi3+0x39c>
 4c0:	4281                	li	t0,0
 4c2:	4781                	li	a5,0
 4c4:	b1f1                	j	190 <__udivdi3+0xe8>
	...

000004c8 <__mulsi3>:
 4c8:	862a                	mv	a2,a0
 4ca:	4501                	li	a0,0
 4cc:	0015f693          	andi	a3,a1,1
 4d0:	c291                	beqz	a3,4d4 <__mulsi3+0xc>
 4d2:	9532                	add	a0,a0,a2
 4d4:	8185                	srli	a1,a1,0x1
 4d6:	0606                	slli	a2,a2,0x1
 4d8:	f9f5                	bnez	a1,4cc <__mulsi3+0x4>
 4da:	8082                	ret

000004dc <__divsi3>:
 4dc:	02054e63          	bltz	a0,518 <__umodsi3+0x8>
 4e0:	0405c363          	bltz	a1,526 <__umodsi3+0x16>

000004e4 <__hidden___udivsi3>:
 4e4:	862e                	mv	a2,a1
 4e6:	85aa                	mv	a1,a0
 4e8:	557d                	li	a0,-1
 4ea:	c215                	beqz	a2,50e <__hidden___udivsi3+0x2a>
 4ec:	4685                	li	a3,1
 4ee:	00b67863          	bgeu	a2,a1,4fe <__hidden___udivsi3+0x1a>
 4f2:	00c05663          	blez	a2,4fe <__hidden___udivsi3+0x1a>
 4f6:	0606                	slli	a2,a2,0x1
 4f8:	0686                	slli	a3,a3,0x1
 4fa:	feb66ce3          	bltu	a2,a1,4f2 <__hidden___udivsi3+0xe>
 4fe:	4501                	li	a0,0
 500:	00c5e463          	bltu	a1,a2,508 <__hidden___udivsi3+0x24>
 504:	8d91                	sub	a1,a1,a2
 506:	8d55                	or	a0,a0,a3
 508:	8285                	srli	a3,a3,0x1
 50a:	8205                	srli	a2,a2,0x1
 50c:	faf5                	bnez	a3,500 <__hidden___udivsi3+0x1c>
 50e:	8082                	ret

00000510 <__umodsi3>:
 510:	8286                	mv	t0,ra
 512:	3fc9                	jal	4e4 <__hidden___udivsi3>
 514:	852e                	mv	a0,a1
 516:	8282                	jr	t0
 518:	40a00533          	neg	a0,a0
 51c:	00b04763          	bgtz	a1,52a <__umodsi3+0x1a>
 520:	40b005b3          	neg	a1,a1
 524:	b7c1                	j	4e4 <__hidden___udivsi3>
 526:	40b005b3          	neg	a1,a1
 52a:	8286                	mv	t0,ra
 52c:	3f65                	jal	4e4 <__hidden___udivsi3>
 52e:	40a00533          	neg	a0,a0
 532:	8282                	jr	t0

00000534 <__modsi3>:
 534:	8286                	mv	t0,ra
 536:	0005c763          	bltz	a1,544 <__modsi3+0x10>
 53a:	00054963          	bltz	a0,54c <__modsi3+0x18>
 53e:	375d                	jal	4e4 <__hidden___udivsi3>
 540:	852e                	mv	a0,a1
 542:	8282                	jr	t0
 544:	40b005b3          	neg	a1,a1
 548:	fe055be3          	bgez	a0,53e <__modsi3+0xa>
 54c:	40a00533          	neg	a0,a0
 550:	3f51                	jal	4e4 <__hidden___udivsi3>
 552:	40b00533          	neg	a0,a1
 556:	8282                	jr	t0
 558:	0001                	nop

0000055a <gpio_irq_handler>:
 55a:	1171                	addi	sp,sp,-4
 55c:	c006                	sw	ra,0(sp)
 55e:	28ed                	jal	658 <gpio_int_get_pending>
 560:	8909                	andi	a0,a0,2
 562:	e501                	bnez	a0,56a <gpio_irq_handler+0x10>
 564:	4082                	lw	ra,0(sp)
 566:	0111                	addi	sp,sp,4
 568:	8082                	ret
 56a:	4505                	li	a0,1
 56c:	28d5                	jal	660 <gpio_int_clear>
 56e:	2231                	jal	67a <get_tick_ms>
 570:	8401a783          	lw	a5,-1984(gp) # 1000040 <last_btn_tick_ms>
 574:	03100613          	li	a2,49
 578:	40f507b3          	sub	a5,a0,a5
 57c:	fef674e3          	bgeu	a2,a5,564 <gpio_irq_handler+0xa>
 580:	4082                	lw	ra,0(sp)
 582:	84a1a023          	sw	a0,-1984(gp) # 1000040 <last_btn_tick_ms>
 586:	4501                	li	a0,0
 588:	0111                	addi	sp,sp,4
 58a:	a849                	j	61c <gpio_toggle_pin>

0000058c <main>:
 58c:	1171                	addi	sp,sp,-4
 58e:	4585                	li	a1,1
 590:	4501                	li	a0,0
 592:	c006                	sw	ra,0(sp)
 594:	280d                	jal	5c6 <gpio_set_direction>
 596:	4581                	li	a1,0
 598:	4505                	li	a0,1
 59a:	2035                	jal	5c6 <gpio_set_direction>
 59c:	4501                	li	a0,0
 59e:	28b1                	jal	5fa <gpio_clear_pin>
 5a0:	28e9                	jal	67a <get_tick_ms>
 5a2:	84a1a023          	sw	a0,-1984(gp) # 1000040 <last_btn_tick_ms>
 5a6:	4505                	li	a0,1
 5a8:	2849                	jal	63a <gpio_int_enable>
 5aa:	28e5                	jal	6a2 <irq_init>
 5ac:	55a00593          	li	a1,1370
 5b0:	452d                	li	a0,11
 5b2:	2289                	jal	6f4 <irq_register>
 5b4:	4505                	li	a0,1
 5b6:	2aa9                	jal	710 <irq_enable_meie>
 5b8:	4505                	li	a0,1
 5ba:	2aa5                	jal	732 <irq_global_enable>
 5bc:	10500073          	wfi
 5c0:	10500073          	wfi
 5c4:	bfe5                	j	5bc <main+0x30>

000005c6 <gpio_set_direction>:
 5c6:	4799                	li	a5,6
 5c8:	02a7e763          	bltu	a5,a0,5f6 <gpio_set_direction+0x30>
 5cc:	4785                	li	a5,1
 5ce:	00a79533          	sll	a0,a5,a0
 5d2:	00f58b63          	beq	a1,a5,5e8 <gpio_set_direction+0x22>
 5d6:	400017b7          	lui	a5,0x40001
 5da:	4398                	lw	a4,0(a5)
 5dc:	fff54513          	not	a0,a0
 5e0:	8d79                	and	a0,a0,a4
 5e2:	c388                	sw	a0,0(a5)
 5e4:	4501                	li	a0,0
 5e6:	8082                	ret
 5e8:	40001737          	lui	a4,0x40001
 5ec:	431c                	lw	a5,0(a4)
 5ee:	8fc9                	or	a5,a5,a0
 5f0:	c31c                	sw	a5,0(a4)
 5f2:	4501                	li	a0,0
 5f4:	8082                	ret
 5f6:	557d                	li	a0,-1
 5f8:	8082                	ret

000005fa <gpio_clear_pin>:
 5fa:	4799                	li	a5,6
 5fc:	00a7ee63          	bltu	a5,a0,618 <gpio_clear_pin+0x1e>
 600:	40001737          	lui	a4,0x40001
 604:	4354                	lw	a3,4(a4)
 606:	4785                	li	a5,1
 608:	00a797b3          	sll	a5,a5,a0
 60c:	fff7c793          	not	a5,a5
 610:	8ff5                	and	a5,a5,a3
 612:	c35c                	sw	a5,4(a4)
 614:	4501                	li	a0,0
 616:	8082                	ret
 618:	557d                	li	a0,-1
 61a:	8082                	ret

0000061c <gpio_toggle_pin>:
 61c:	4799                	li	a5,6
 61e:	00a7ec63          	bltu	a5,a0,636 <gpio_toggle_pin+0x1a>
 622:	40001737          	lui	a4,0x40001
 626:	4354                	lw	a3,4(a4)
 628:	4785                	li	a5,1
 62a:	00a797b3          	sll	a5,a5,a0
 62e:	8fb5                	xor	a5,a5,a3
 630:	c35c                	sw	a5,4(a4)
 632:	4501                	li	a0,0
 634:	8082                	ret
 636:	557d                	li	a0,-1
 638:	8082                	ret

0000063a <gpio_int_enable>:
 63a:	4799                	li	a5,6
 63c:	00a7ec63          	bltu	a5,a0,654 <gpio_int_enable+0x1a>
 640:	40001737          	lui	a4,0x40001
 644:	4754                	lw	a3,12(a4)
 646:	4785                	li	a5,1
 648:	00a797b3          	sll	a5,a5,a0
 64c:	8fd5                	or	a5,a5,a3
 64e:	c75c                	sw	a5,12(a4)
 650:	4501                	li	a0,0
 652:	8082                	ret
 654:	557d                	li	a0,-1
 656:	8082                	ret

00000658 <gpio_int_get_pending>:
 658:	400017b7          	lui	a5,0x40001
 65c:	4bc8                	lw	a0,20(a5)
 65e:	8082                	ret

00000660 <gpio_int_clear>:
 660:	4799                	li	a5,6
 662:	00a7ea63          	bltu	a5,a0,676 <gpio_int_clear+0x16>
 666:	4705                	li	a4,1
 668:	00a71733          	sll	a4,a4,a0
 66c:	400017b7          	lui	a5,0x40001
 670:	cf98                	sw	a4,24(a5)
 672:	4501                	li	a0,0
 674:	8082                	ret
 676:	557d                	li	a0,-1
 678:	8082                	ret

0000067a <get_tick_ms>:
 67a:	1171                	addi	sp,sp,-4
 67c:	400027b7          	lui	a5,0x40002
 680:	c006                	sw	ra,0(sp)
 682:	0791                	addi	a5,a5,4 # 40002004 <__stack_top+0x3e002004>
 684:	400026b7          	lui	a3,0x40002
 688:	438c                	lw	a1,0(a5)
 68a:	4288                	lw	a0,0(a3)
 68c:	4398                	lw	a4,0(a5)
 68e:	fee59de3          	bne	a1,a4,688 <get_tick_ms+0xe>
 692:	6641                	lui	a2,0x10
 694:	a0060613          	addi	a2,a2,-1536 # fa00 <__data_load_start+0xf190>
 698:	4681                	li	a3,0
 69a:	3439                	jal	a8 <__udivdi3>
 69c:	4082                	lw	ra,0(sp)
 69e:	0111                	addi	sp,sp,4
 6a0:	8082                	ret

000006a2 <irq_init>:
 6a2:	010007b7          	lui	a5,0x1000
 6a6:	00078793          	mv	a5,a5
 6aa:	0007a023          	sw	zero,0(a5) # 1000000 <s_handlers>
 6ae:	0007a223          	sw	zero,4(a5)
 6b2:	0007a423          	sw	zero,8(a5)
 6b6:	0007a623          	sw	zero,12(a5)
 6ba:	0007a823          	sw	zero,16(a5)
 6be:	0007aa23          	sw	zero,20(a5)
 6c2:	0007ac23          	sw	zero,24(a5)
 6c6:	0007ae23          	sw	zero,28(a5)
 6ca:	0207a023          	sw	zero,32(a5)
 6ce:	0207a223          	sw	zero,36(a5)
 6d2:	0207a423          	sw	zero,40(a5)
 6d6:	0207a623          	sw	zero,44(a5)
 6da:	0207a823          	sw	zero,48(a5)
 6de:	0207aa23          	sw	zero,52(a5)
 6e2:	0207ac23          	sw	zero,56(a5)
 6e6:	0207ae23          	sw	zero,60(a5)
 6ea:	06000793          	li	a5,96
 6ee:	30579073          	csrw	mtvec,a5
 6f2:	8082                	ret

000006f4 <irq_register>:
 6f4:	47bd                	li	a5,15
 6f6:	00a7eb63          	bltu	a5,a0,70c <irq_register+0x18>
 6fa:	010007b7          	lui	a5,0x1000
 6fe:	050a                	slli	a0,a0,0x2
 700:	00078793          	mv	a5,a5
 704:	97aa                	add	a5,a5,a0
 706:	c38c                	sw	a1,0(a5)
 708:	4501                	li	a0,0
 70a:	8082                	ret
 70c:	557d                	li	a0,-1
 70e:	8082                	ret

00000710 <irq_enable_meie>:
 710:	304027f3          	csrr	a5,mie
 714:	c901                	beqz	a0,724 <irq_enable_meie+0x14>
 716:	6705                	lui	a4,0x1
 718:	80070713          	addi	a4,a4,-2048 # 800 <__clz_tab+0x90>
 71c:	8fd9                	or	a5,a5,a4
 71e:	30479073          	csrw	mie,a5
 722:	8082                	ret
 724:	777d                	lui	a4,0xfffff
 726:	7ff70713          	addi	a4,a4,2047 # fffff7ff <__stack_top+0xfdfff7ff>
 72a:	8ff9                	and	a5,a5,a4
 72c:	30479073          	csrw	mie,a5
 730:	8082                	ret

00000732 <irq_global_enable>:
 732:	30002773          	csrr	a4,mstatus
 736:	ff777793          	andi	a5,a4,-9
 73a:	c119                	beqz	a0,740 <irq_global_enable+0xe>
 73c:	00876793          	ori	a5,a4,8
 740:	30079073          	csrw	mstatus,a5
 744:	8082                	ret

00000746 <irq_trap_dispatch>:
 746:	800007b7          	lui	a5,0x80000
 74a:	7f078793          	addi	a5,a5,2032 # 800007f0 <__stack_top+0x7e0007f0>
 74e:	8fe9                	and	a5,a5,a0
 750:	80000737          	lui	a4,0x80000
 754:	00e78363          	beq	a5,a4,75a <irq_trap_dispatch+0x14>
 758:	8082                	ret
 75a:	7ff57513          	andi	a0,a0,2047
 75e:	010007b7          	lui	a5,0x1000
 762:	050a                	slli	a0,a0,0x2
 764:	00078793          	mv	a5,a5
 768:	97aa                	add	a5,a5,a0
 76a:	439c                	lw	a5,0(a5)
 76c:	d7f5                	beqz	a5,758 <irq_trap_dispatch+0x12>
 76e:	8782                	jr	a5

Disassembly of section .rodata:

00000770 <__clz_tab>:
 770:	0100                	addi	s0,sp,128
 772:	0202                	c.slli64	tp
 774:	03030303          	lb	t1,48(t1)
 778:	0404                	addi	s1,sp,512
 77a:	0404                	addi	s1,sp,512
 77c:	0404                	addi	s1,sp,512
 77e:	0404                	addi	s1,sp,512
 780:	0505                	addi	a0,a0,1 # 1000001 <__data_end+0x1>
 782:	0505                	addi	a0,a0,1
 784:	0505                	addi	a0,a0,1
 786:	0505                	addi	a0,a0,1
 788:	0505                	addi	a0,a0,1
 78a:	0505                	addi	a0,a0,1
 78c:	0505                	addi	a0,a0,1
 78e:	0505                	addi	a0,a0,1
 790:	0606                	slli	a2,a2,0x1
 792:	0606                	slli	a2,a2,0x1
 794:	0606                	slli	a2,a2,0x1
 796:	0606                	slli	a2,a2,0x1
 798:	0606                	slli	a2,a2,0x1
 79a:	0606                	slli	a2,a2,0x1
 79c:	0606                	slli	a2,a2,0x1
 79e:	0606                	slli	a2,a2,0x1
 7a0:	0606                	slli	a2,a2,0x1
 7a2:	0606                	slli	a2,a2,0x1
 7a4:	0606                	slli	a2,a2,0x1
 7a6:	0606                	slli	a2,a2,0x1
 7a8:	0606                	slli	a2,a2,0x1
 7aa:	0606                	slli	a2,a2,0x1
 7ac:	0606                	slli	a2,a2,0x1
 7ae:	0606                	slli	a2,a2,0x1
 7b0:	07070707          	.insn	4, 0x07070707
 7b4:	07070707          	.insn	4, 0x07070707
 7b8:	07070707          	.insn	4, 0x07070707
 7bc:	07070707          	.insn	4, 0x07070707
 7c0:	07070707          	.insn	4, 0x07070707
 7c4:	07070707          	.insn	4, 0x07070707
 7c8:	07070707          	.insn	4, 0x07070707
 7cc:	07070707          	.insn	4, 0x07070707
 7d0:	07070707          	.insn	4, 0x07070707
 7d4:	07070707          	.insn	4, 0x07070707
 7d8:	07070707          	.insn	4, 0x07070707
 7dc:	07070707          	.insn	4, 0x07070707
 7e0:	07070707          	.insn	4, 0x07070707
 7e4:	07070707          	.insn	4, 0x07070707
 7e8:	07070707          	.insn	4, 0x07070707
 7ec:	07070707          	.insn	4, 0x07070707
 7f0:	0808                	addi	a0,sp,16
 7f2:	0808                	addi	a0,sp,16
 7f4:	0808                	addi	a0,sp,16
 7f6:	0808                	addi	a0,sp,16
 7f8:	0808                	addi	a0,sp,16
 7fa:	0808                	addi	a0,sp,16
 7fc:	0808                	addi	a0,sp,16
 7fe:	0808                	addi	a0,sp,16
 800:	0808                	addi	a0,sp,16
 802:	0808                	addi	a0,sp,16
 804:	0808                	addi	a0,sp,16
 806:	0808                	addi	a0,sp,16
 808:	0808                	addi	a0,sp,16
 80a:	0808                	addi	a0,sp,16
 80c:	0808                	addi	a0,sp,16
 80e:	0808                	addi	a0,sp,16
 810:	0808                	addi	a0,sp,16
 812:	0808                	addi	a0,sp,16
 814:	0808                	addi	a0,sp,16
 816:	0808                	addi	a0,sp,16
 818:	0808                	addi	a0,sp,16
 81a:	0808                	addi	a0,sp,16
 81c:	0808                	addi	a0,sp,16
 81e:	0808                	addi	a0,sp,16
 820:	0808                	addi	a0,sp,16
 822:	0808                	addi	a0,sp,16
 824:	0808                	addi	a0,sp,16
 826:	0808                	addi	a0,sp,16
 828:	0808                	addi	a0,sp,16
 82a:	0808                	addi	a0,sp,16
 82c:	0808                	addi	a0,sp,16
 82e:	0808                	addi	a0,sp,16
 830:	0808                	addi	a0,sp,16
 832:	0808                	addi	a0,sp,16
 834:	0808                	addi	a0,sp,16
 836:	0808                	addi	a0,sp,16
 838:	0808                	addi	a0,sp,16
 83a:	0808                	addi	a0,sp,16
 83c:	0808                	addi	a0,sp,16
 83e:	0808                	addi	a0,sp,16
 840:	0808                	addi	a0,sp,16
 842:	0808                	addi	a0,sp,16
 844:	0808                	addi	a0,sp,16
 846:	0808                	addi	a0,sp,16
 848:	0808                	addi	a0,sp,16
 84a:	0808                	addi	a0,sp,16
 84c:	0808                	addi	a0,sp,16
 84e:	0808                	addi	a0,sp,16
 850:	0808                	addi	a0,sp,16
 852:	0808                	addi	a0,sp,16
 854:	0808                	addi	a0,sp,16
 856:	0808                	addi	a0,sp,16
 858:	0808                	addi	a0,sp,16
 85a:	0808                	addi	a0,sp,16
 85c:	0808                	addi	a0,sp,16
 85e:	0808                	addi	a0,sp,16
 860:	0808                	addi	a0,sp,16
 862:	0808                	addi	a0,sp,16
 864:	0808                	addi	a0,sp,16
 866:	0808                	addi	a0,sp,16
 868:	0808                	addi	a0,sp,16
 86a:	0808                	addi	a0,sp,16
 86c:	0808                	addi	a0,sp,16
 86e:	0808                	addi	a0,sp,16

Disassembly of section .comment:

00000000 <.comment>:
   0:	3a434347          	.insn	4, 0x3a434347
   4:	2820                	.insn	2, 0x2820
   6:	31313567          	.insn	4, 0x31313567
   a:	6335                	lui	t1,0xd
   c:	34346537          	lui	a0,0x34346
  10:	20296637          	lui	a2,0x20296
  14:	3531                	jal	fffffe20 <__stack_top+0xfdfffe20>
  16:	322e                	.insn	2, 0x322e
  18:	302e                	.insn	2, 0x302e
	...

Disassembly of section .riscv.attributes:

00000000 <.riscv.attributes>:
   0:	3441                	jal	fffffa80 <__stack_top+0xfdfffa80>
   2:	0000                	unimp
   4:	7200                	.insn	2, 0x7200
   6:	7369                	lui	t1,0xffffa
   8:	01007663          	bgeu	zero,a6,14 <_start+0x14>
   c:	002a                	c.slli	zero,0xa
   e:	0000                	unimp
  10:	0404                	addi	s1,sp,512
  12:	7205                	lui	tp,0xfffe1
  14:	3376                	.insn	2, 0x3376
  16:	6532                	.insn	2, 0x6532
  18:	7032                	.insn	2, 0x7032
  1a:	5f30                	lw	a2,120(a4)
  1c:	30703263          	.insn	4, 0x30703263
  20:	7a5f 6369 7273      	.insn	6, 0x727363697a5f
  26:	7032                	.insn	2, 0x7032
  28:	5f30                	lw	a2,120(a4)
  2a:	637a                	.insn	2, 0x637a
  2c:	3161                	jal	fffffcb4 <__stack_top+0xfdfffcb4>
  2e:	3070                	.insn	2, 0x3070
  30:	0800                	addi	s0,sp,16
  32:	0a01                	addi	s4,s4,0
  34:	0b                	.byte	0x0b

Disassembly of section .debug_info:

00000000 <.debug_info>:
   0:	00000a2b          	.insn	4, 0x0a2b
   4:	0005                	c.nop	1
   6:	0401                	addi	s0,s0,0
   8:	0000                	unimp
   a:	0000                	unimp
   c:	8b14                	.insn	2, 0x8b14
   e:	0000                	unimp
  10:	1d00                	addi	s0,sp,688
  12:	03164703          	lbu	a4,49(a2) # 20296031 <__stack_top+0x1e296031>
  16:	0000                	unimp
  18:	0000                	unimp
  1a:	2b00                	.insn	2, 0x2b00
  1c:	0000                	unimp
  1e:	a800                	.insn	2, 0xa800
  20:	0000                	unimp
  22:	1e00                	addi	s0,sp,816
  24:	0004                	.insn	2, 0x0004
  26:	0000                	unimp
  28:	0000                	unimp
  2a:	0500                	addi	s0,sp,640
  2c:	0708                	addi	a0,sp,896
  2e:	0065                	c.nop	25
  30:	0000                	unimp
  32:	0415                	addi	s0,s0,5
  34:	6905                	lui	s2,0x1
  36:	746e                	.insn	2, 0x746e
  38:	0500                	addi	s0,sp,640
  3a:	0704                	addi	s1,sp,896
  3c:	0000006f          	j	3c <_start+0x3c>
  40:	0805                	addi	a6,a6,1
  42:	5705                	li	a4,-31
  44:	0000                	unimp
  46:	0500                	addi	s0,sp,640
  48:	0410                	addi	a2,sp,512
  4a:	01f5                	addi	gp,gp,29 # 100081d <__global_pointer$+0x1d>
  4c:	0000                	unimp
  4e:	0105                	addi	sp,sp,1
  50:	6706                	.insn	2, 0x6706
  52:	0001                	nop
  54:	0500                	addi	s0,sp,640
  56:	0801                	addi	a6,a6,0
  58:	0165                	addi	sp,sp,25
  5a:	0000                	unimp
  5c:	0205                	addi	tp,tp,1 # fffe1001 <__stack_top+0xfdfe1001>
  5e:	2a05                	jal	18e <__udivdi3+0xe6>
  60:	0000                	unimp
  62:	0500                	addi	s0,sp,640
  64:	0702                	c.slli64	a4
  66:	0000018f          	.insn	4, 0x018f
  6a:	0405                	addi	s0,s0,1
  6c:	5c05                	li	s8,-31
  6e:	0000                	unimp
  70:	0500                	addi	s0,sp,640
  72:	0704                	addi	s1,sp,896
  74:	006a                	c.slli	zero,0x1a
  76:	0000                	unimp
  78:	0105                	addi	sp,sp,1
  7a:	6e08                	.insn	2, 0x6e08
  7c:	0001                	nop
  7e:	0500                	addi	s0,sp,640
  80:	0201                	addi	tp,tp,0 # 0 <_start>
  82:	01c6                	slli	gp,gp,0x11
  84:	0000                	unimp
  86:	8709                	srai	a4,a4,0x2
  88:	0001                	nop
  8a:	7e00                	.insn	2, 0x7e00
  8c:	5516                	lw	a0,100(sp)
  8e:	0000                	unimp
  90:	0b00                	addi	s0,sp,400
  92:	0086                	slli	ra,ra,0x1
  94:	0000                	unimp
  96:	ab09                	j	5a8 <main+0x1c>
  98:	0001                	nop
  9a:	8300                	.insn	2, 0x8300
  9c:	0000320f          	.insn	4, 0x320f
  a0:	0900                	addi	s0,sp,144
  a2:	01aa                	slli	gp,gp,0xa
  a4:	0000                	unimp
  a6:	1684                	addi	s1,sp,864
  a8:	0039                	c.nop	14
  aa:	0000                	unimp
  ac:	a309                	j	5ae <main+0x22>
  ae:	0001                	nop
  b0:	8700                	.insn	2, 0x8700
  b2:	0000400f          	.insn	4, 0x400f
  b6:	0900                	addi	s0,sp,144
  b8:	01a2                	slli	gp,gp,0x8
  ba:	0000                	unimp
  bc:	1688                	addi	a0,sp,864
  be:	0000002b          	.insn	4, 0x002b
  c2:	0205                	addi	tp,tp,1 # 1 <_start+0x1>
  c4:	5c04                	lw	s1,56(s0)
  c6:	0001                	nop
  c8:	0500                	addi	s0,sp,640
  ca:	0304                	addi	s1,sp,384
  cc:	0154                	addi	a3,sp,132
  ce:	0000                	unimp
  d0:	0405                	addi	s0,s0,1
  d2:	1b04                	addi	s1,sp,432
  d4:	0000                	unimp
  d6:	0500                	addi	s0,sp,640
  d8:	0308                	addi	a0,sp,384
  da:	00000013          	nop
  de:	0805                	addi	a6,a6,1
  e0:	fa04                	.insn	2, 0xfa04
  e2:	0001                	nop
  e4:	0500                	addi	s0,sp,640
  e6:	0310                	addi	a2,sp,384
  e8:	01cc                	addi	a1,sp,196
  ea:	0000                	unimp
  ec:	2005                	jal	10c <__udivdi3+0x64>
  ee:	0001ed03          	.insn	4, 0x0001ed03
  f2:	1600                	addi	s0,sp,800
  f4:	000a                	c.slli	zero,0x2
  f6:	0000                	unimp
  f8:	0208                	addi	a0,sp,256
  fa:	0205                	addi	tp,tp,1 # 1 <_start+0x1>
  fc:	1e0a                	slli	t3,t3,0x22
  fe:	0001                	nop
 100:	1700                	addi	s0,sp,928
 102:	6f6c                	.insn	2, 0x6f6c
 104:	05020077          	.insn	4, 0x05020077
 108:	1a02                	slli	s4,s4,0x20
 10a:	0096                	slli	ra,ra,0x5
 10c:	0000                	unimp
 10e:	1800                	addi	s0,sp,48
 110:	007c                	addi	a5,sp,12
 112:	0000                	unimp
 114:	0502                	c.slli64	a0
 116:	1f02                	slli	t5,t5,0x20
 118:	0096                	slli	ra,ra,0x5
 11a:	0000                	unimp
 11c:	0004                	.insn	2, 0x0004
 11e:	0819                	addi	a6,a6,6
 120:	0c02                	c.slli64	s8
 122:	0902                	c.slli64	s2
 124:	013e                	slli	sp,sp,0xf
 126:	0000                	unimp
 128:	7310                	.insn	2, 0x7310
 12a:	0e00                	addi	s0,sp,784
 12c:	1302                	slli	t1,t1,0x20
 12e:	000000f3          	.insn	4, 0x00f3
 132:	6c10                	.insn	2, 0x6c10
 134:	006c                	addi	a1,sp,12
 136:	ac0a020f          	.insn	4, 0xac0a020f
 13a:	0000                	unimp
 13c:	0000                	unimp
 13e:	341a                	.insn	2, 0x341a
 140:	0000                	unimp
 142:	0200                	addi	s0,sp,256
 144:	0210                	addi	a2,sp,256
 146:	00011e03          	lh	t3,0(sp)
 14a:	0b00                	addi	s0,sp,400
 14c:	013e                	slli	sp,sp,0xf
 14e:	0000                	unimp
 150:	0000911b          	.insn	4, 0x911b
 154:	6000                	.insn	2, 0x6000
 156:	0001                	nop
 158:	1c00                	addi	s0,sp,560
 15a:	0039                	c.nop	14
 15c:	0000                	unimp
 15e:	00ff 500b 0001 1d00 	.insn	10, 0x00811d000001500b00ff
 166:	0081 
 168:	0000                	unimp
 16a:	1a02                	slli	s4,s4,0x20
 16c:	1602                	slli	a2,a2,0x20
 16e:	0160                	addi	s0,sp,140
 170:	0000                	unimp
 172:	001e                	c.slli	zero,0x7
 174:	0000                	unimp
 176:	0100                	addi	s0,sp,128
 178:	0512                	slli	a0,a0,0x4
 17a:	b701                	j	7a <trap_entry+0x1a>
 17c:	0000                	unimp
 17e:	a800                	.insn	2, 0xa800
 180:	0000                	unimp
 182:	1e00                	addi	s0,sp,816
 184:	0004                	.insn	2, 0x0004
 186:	0100                	addi	s0,sp,128
 188:	6d9c                	.insn	2, 0x6d9c
 18a:	0006                	c.slli	zero,0x1
 18c:	1100                	addi	s0,sp,160
 18e:	006e                	c.slli	zero,0x1b
 190:	b714                	.insn	2, 0xb714
 192:	0000                	unimp
 194:	3400                	.insn	2, 0x3400
 196:	0000                	unimp
 198:	0c00                	addi	s0,sp,528
 19a:	0000                	unimp
 19c:	1100                	addi	s0,sp,160
 19e:	0064                	addi	s1,sp,12
 1a0:	b71f 0000 f600      	.insn	6, 0xf6000000b71f
 1a6:	0000                	unimp
 1a8:	ce00                	sw	s0,24(a2)
 1aa:	0000                	unimp
 1ac:	1f00                	addi	s0,sp,944
 1ae:	066d                	addi	a2,a2,27
 1b0:	0000                	unimp
 1b2:	00a8                	addi	a0,sp,72
 1b4:	0000                	unimp
 1b6:	0c02                	c.slli64	s8
 1b8:	0000                	unimp
 1ba:	0100                	addi	s0,sp,128
 1bc:	0514                	addi	a3,sp,640
 1be:	0c0a                	slli	s8,s8,0x2
 1c0:	067f 0000 01a7 0000 	.insn	10, 0x0190000001a70000067f
 1c8:	0190 
 1ca:	0000                	unimp
 1cc:	870c                	.insn	2, 0x870c
 1ce:	0006                	c.slli	zero,0x1
 1d0:	1b00                	addi	s0,sp,432
 1d2:	0002                	c.slli64	zero
 1d4:	0400                	addi	s0,sp,512
 1d6:	0002                	c.slli64	zero
 1d8:	0c00                	addi	s0,sp,528
 1da:	0000068f          	.insn	4, 0x068f
 1de:	027c                	addi	a5,sp,268
 1e0:	0000                	unimp
 1e2:	0278                	addi	a4,sp,268
 1e4:	0000                	unimp
 1e6:	980a                	add	a6,a6,sp
 1e8:	0006                	c.slli	zero,0x1
 1ea:	0a00                	addi	s0,sp,272
 1ec:	000006a3          	sb	zero,13(zero) # d <_start+0xd>
 1f0:	ae0a                	.insn	2, 0xae0a
 1f2:	0006                	c.slli	zero,0x1
 1f4:	0100                	addi	s0,sp,128
 1f6:	06b9                	addi	a3,a3,14 # 4000200e <__stack_top+0x3e00200e>
 1f8:	0000                	unimp
 1fa:	02e4                	addi	s1,sp,332
 1fc:	0000                	unimp
 1fe:	028c                	addi	a1,sp,320
 200:	0000                	unimp
 202:	c401                	beqz	s0,20a <__udivdi3+0x162>
 204:	0006                	c.slli	zero,0x1
 206:	e800                	.insn	2, 0xe800
 208:	b3000003          	lb	zero,-1232(zero) # fffffb30 <__stack_top+0xfdfffb30>
 20c:	01000003          	lb	zero,16(zero) # 10 <_start+0x10>
 210:	000006cf          	.insn	4, 0x06cf
 214:	0482                	c.slli64	s1
 216:	0000                	unimp
 218:	0460                	addi	s0,sp,524
 21a:	0000                	unimp
 21c:	da01                	beqz	a2,12c <__udivdi3+0x84>
 21e:	0006                	c.slli	zero,0x1
 220:	0a00                	addi	s0,sp,272
 222:	0005                	c.nop	1
 224:	d200                	sw	s0,32(a2)
 226:	0004                	.insn	2, 0x0004
 228:	0100                	addi	s0,sp,128
 22a:	06e5                	addi	a3,a3,25
 22c:	0000                	unimp
 22e:	059a                	slli	a1,a1,0x6
 230:	0000                	unimp
 232:	0582                	c.slli64	a1
 234:	0000                	unimp
 236:	f001                	bnez	s0,136 <__udivdi3+0x8e>
 238:	0006                	c.slli	zero,0x1
 23a:	d300                	sw	s0,32(a4)
 23c:	0005                	c.nop	1
 23e:	c900                	sw	s0,16(a0)
 240:	0005                	c.nop	1
 242:	0100                	addi	s0,sp,128
 244:	000006fb          	.insn	4, 0x06fb
 248:	0608                	addi	a0,sp,768
 24a:	0000                	unimp
 24c:	05e9                	addi	a1,a1,26
 24e:	0000                	unimp
 250:	0601                	addi	a2,a2,0
 252:	53000007          	.insn	4, 0x53000007
 256:	0006                	c.slli	zero,0x1
 258:	4b00                	lw	s0,16(a4)
 25a:	0006                	c.slli	zero,0x1
 25c:	0100                	addi	s0,sp,128
 25e:	0710                	addi	a2,sp,896
 260:	0000                	unimp
 262:	0674                	addi	a3,sp,780
 264:	0000                	unimp
 266:	0662                	slli	a2,a2,0x18
 268:	0000                	unimp
 26a:	1b0a                	slli	s6,s6,0x22
 26c:	08000007          	.insn	4, 0x08000007
 270:	0726                	slli	a4,a4,0x9
 272:	0000                	unimp
 274:	0019                	c.nop	6
 276:	0000                	unimp
 278:	00000297          	auipc	t0,0x0
 27c:	2b01                	jal	78c <__clz_tab+0x1c>
 27e:	c8000007          	.insn	4, 0xc8000007
 282:	0006                	c.slli	zero,0x1
 284:	b400                	.insn	2, 0xb400
 286:	0006                	c.slli	zero,0x1
 288:	0100                	addi	s0,sp,128
 28a:	00000737          	lui	a4,0x0
 28e:	0715                	addi	a4,a4,5 # 5 <_start+0x5>
 290:	0000                	unimp
 292:	00000713          	li	a4,0
 296:	0800                	addi	s0,sp,16
 298:	0744                	addi	s1,sp,900
 29a:	0000                	unimp
 29c:	0028                	addi	a0,sp,8
 29e:	0000                	unimp
 2a0:	0336                	slli	t1,t1,0xd
 2a2:	0000                	unimp
 2a4:	4901                	li	s2,0
 2a6:	21000007          	.insn	4, 0x21000007
 2aa:	1b000007          	.insn	4, 0x1b000007
 2ae:	01000007          	.insn	4, 0x01000007
 2b2:	0755                	addi	a4,a4,21
 2b4:	0000                	unimp
 2b6:	0744                	addi	s1,sp,900
 2b8:	0000                	unimp
 2ba:	0736                	slli	a4,a4,0xd
 2bc:	0000                	unimp
 2be:	6101                	addi	sp,sp,0
 2c0:	9d000007          	.insn	4, 0x9d000007
 2c4:	8f000007          	.insn	4, 0x8f000007
 2c8:	01000007          	.insn	4, 0x01000007
 2cc:	076d                	addi	a4,a4,27
 2ce:	0000                	unimp
 2d0:	07e1                	addi	a5,a5,24 # 1000018 <s_handlers+0x18>
 2d2:	0000                	unimp
 2d4:	000007d7          	.insn	4, 0x07d7
 2d8:	7901                	lui	s2,0xfffe0
 2da:	1d000007          	.insn	4, 0x1d000007
 2de:	0008                	.insn	2, 0x0008
 2e0:	0b00                	addi	s0,sp,400
 2e2:	0008                	.insn	2, 0x0008
 2e4:	0100                	addi	s0,sp,128
 2e6:	0785                	addi	a5,a5,1
 2e8:	0000                	unimp
 2ea:	0000087b          	.insn	4, 0x087b
 2ee:	0871                	addi	a6,a6,28
 2f0:	0000                	unimp
 2f2:	9101                	srli	a0,a0,0x20
 2f4:	be000007          	.insn	4, 0xbe000007
 2f8:	0008                	.insn	2, 0x0008
 2fa:	b000                	.insn	2, 0xb000
 2fc:	0008                	.insn	2, 0x0008
 2fe:	0400                	addi	s0,sp,512
 300:	011a                	slli	sp,sp,0x6
 302:	0000                	unimp
 304:	00000a13          	li	s4,0
 308:	2204                	.insn	2, 0x2204
 30a:	0001                	nop
 30c:	1c00                	addi	s0,sp,560
 30e:	000a                	c.slli	zero,0x2
 310:	0400                	addi	s0,sp,512
 312:	012a                	slli	sp,sp,0xa
 314:	0000                	unimp
 316:	0a25                	addi	s4,s4,9
 318:	0000                	unimp
 31a:	5c04                	lw	s1,56(s0)
 31c:	0001                	nop
 31e:	1300                	addi	s0,sp,416
 320:	000a                	c.slli	zero,0x2
 322:	0400                	addi	s0,sp,512
 324:	0168                	addi	a0,sp,140
 326:	0000                	unimp
 328:	0a1c                	addi	a5,sp,272
 32a:	0000                	unimp
 32c:	7004                	.insn	2, 0x7004
 32e:	0001                	nop
 330:	2500                	.insn	2, 0x2500
 332:	000a                	c.slli	zero,0x2
 334:	0000                	unimp
 336:	9e08                	.insn	2, 0x9e08
 338:	35000007          	.insn	4, 0x35000007
 33c:	0000                	unimp
 33e:	5e00                	lw	s0,56(a2)
 340:	01000003          	lb	zero,16(zero) # 10 <_start+0x10>
 344:	000007a3          	sb	zero,15(zero) # f <_start+0xf>
 348:	08f8                	addi	a4,sp,92
 34a:	0000                	unimp
 34c:	08f2                	slli	a7,a7,0x1c
 34e:	0000                	unimp
 350:	af01                	j	a60 <__data_load_start+0x1f0>
 352:	09000007          	.insn	4, 0x09000007
 356:	0009                	c.nop	2
 358:	0700                	addi	s0,sp,896
 35a:	0009                	c.nop	2
 35c:	0000                	unimp
 35e:	1608                	addi	a0,sp,800
 360:	0008                	.insn	2, 0x0008
 362:	4500                	lw	s0,8(a0)
 364:	0000                	unimp
 366:	fd00                	.insn	2, 0xfd00
 368:	01000003          	lb	zero,16(zero) # 10 <_start+0x10>
 36c:	0000081b          	.insn	4, 0x081b
 370:	091d                	addi	s2,s2,7 # fffe0007 <__stack_top+0xfdfe0007>
 372:	0000                	unimp
 374:	0911                	addi	s2,s2,4
 376:	0000                	unimp
 378:	2701                	jal	a78 <__data_load_start+0x208>
 37a:	0008                	.insn	2, 0x0008
 37c:	5100                	lw	s0,32(a0)
 37e:	0009                	c.nop	2
 380:	3500                	.insn	2, 0x3500
 382:	0009                	c.nop	2
 384:	0100                	addi	s0,sp,128
 386:	00000833          	add	a6,zero,zero
 38a:	000009bf 0000099f 	.insn	8, 0x099f000009bf
 392:	3f01                	jal	2a2 <__udivdi3+0x1fa>
 394:	0008                	.insn	2, 0x0008
 396:	1500                	addi	s0,sp,672
 398:	000a                	c.slli	zero,0x2
 39a:	0100                	addi	s0,sp,128
 39c:	000a                	c.slli	zero,0x2
 39e:	0100                	addi	s0,sp,128
 3a0:	0000084b          	.insn	4, 0x084b
 3a4:	0a5f 0000 0a3f      	.insn	6, 0x0a3f00000a5f
 3aa:	0000                	unimp
 3ac:	5701                	li	a4,-32
 3ae:	0008                	.insn	2, 0x0008
 3b0:	c300                	sw	s0,0(a4)
 3b2:	000a                	c.slli	zero,0x2
 3b4:	af00                	.insn	2, 0xaf00
 3b6:	000a                	c.slli	zero,0x2
 3b8:	0100                	addi	s0,sp,128
 3ba:	00000863          	beqz	zero,3ca <__udivdi3+0x322>
 3be:	0b14                	addi	a3,sp,400
 3c0:	0000                	unimp
 3c2:	0af8                	addi	a4,sp,348
 3c4:	0000                	unimp
 3c6:	fe04                	.insn	2, 0xfe04
 3c8:	0001                	nop
 3ca:	1300                	addi	s0,sp,416
 3cc:	000a                	c.slli	zero,0x2
 3ce:	0400                	addi	s0,sp,512
 3d0:	0206                	slli	tp,tp,0x1
 3d2:	0000                	unimp
 3d4:	0a1c                	addi	a5,sp,272
 3d6:	0000                	unimp
 3d8:	0e04                	addi	s1,sp,784
 3da:	0002                	c.slli64	zero
 3dc:	2500                	.insn	2, 0x2500
 3de:	000a                	c.slli	zero,0x2
 3e0:	0400                	addi	s0,sp,512
 3e2:	023e                	slli	tp,tp,0xf
 3e4:	0000                	unimp
 3e6:	00000a13          	li	s4,0
 3ea:	4a04                	lw	s1,16(a2)
 3ec:	0002                	c.slli64	zero
 3ee:	1c00                	addi	s0,sp,560
 3f0:	000a                	c.slli	zero,0x2
 3f2:	0400                	addi	s0,sp,512
 3f4:	0252                	slli	tp,tp,0x14
 3f6:	0000                	unimp
 3f8:	0a25                	addi	s4,s4,9
 3fa:	0000                	unimp
 3fc:	0800                	addi	s0,sp,16
 3fe:	07bc                	addi	a5,sp,968
 400:	0000                	unimp
 402:	0055                	c.nop	21
 404:	0000                	unimp
 406:	049c                	addi	a5,sp,576
 408:	0000                	unimp
 40a:	c101                	beqz	a0,40a <__udivdi3+0x362>
 40c:	50000007          	.insn	4, 0x50000007
 410:	4800000b          	.insn	4, 0x4800000b
 414:	0100000b          	.insn	4, 0x0100000b
 418:	07cd                	addi	a5,a5,19
 41a:	0000                	unimp
 41c:	0b78                	addi	a4,sp,412
 41e:	0000                	unimp
 420:	0b60                	addi	s0,sp,412
 422:	0000                	unimp
 424:	d901                	beqz	a0,334 <__udivdi3+0x28c>
 426:	d8000007          	.insn	4, 0xd8000007
 42a:	b800000b          	.insn	4, 0xb800000b
 42e:	0100000b          	.insn	4, 0x0100000b
 432:	07e5                	addi	a5,a5,25
 434:	0000                	unimp
 436:	0c36                	slli	s8,s8,0xd
 438:	0000                	unimp
 43a:	0c1a                	slli	s8,s8,0x6
 43c:	0000                	unimp
 43e:	f101                	bnez	a0,33e <__udivdi3+0x296>
 440:	90000007          	.insn	4, 0x90000007
 444:	000c                	.insn	2, 0x000c
 446:	7000                	.insn	2, 0x7000
 448:	000c                	.insn	2, 0x000c
 44a:	0100                	addi	s0,sp,128
 44c:	07fd                	addi	a5,a5,31
 44e:	0000                	unimp
 450:	0cf1                	addi	s9,s9,28
 452:	0000                	unimp
 454:	0ce1                	addi	s9,s9,24
 456:	0000                	unimp
 458:	0901                	addi	s2,s2,0
 45a:	0008                	.insn	2, 0x0008
 45c:	2e00                	.insn	2, 0x2e00
 45e:	000d                	c.nop	3
 460:	1a00                	addi	s0,sp,304
 462:	000d                	c.nop	3
 464:	0400                	addi	s0,sp,512
 466:	02b6                	slli	t0,t0,0xd
 468:	0000                	unimp
 46a:	00000a13          	li	s4,0
 46e:	be04                	.insn	2, 0xbe04
 470:	0002                	c.slli64	zero
 472:	1c00                	addi	s0,sp,560
 474:	000a                	c.slli	zero,0x2
 476:	0400                	addi	s0,sp,512
 478:	02c6                	slli	t0,t0,0x11
 47a:	0000                	unimp
 47c:	0a25                	addi	s4,s4,9
 47e:	0000                	unimp
 480:	f204                	.insn	2, 0xf204
 482:	0002                	c.slli64	zero
 484:	1300                	addi	s0,sp,416
 486:	000a                	c.slli	zero,0x2
 488:	0400                	addi	s0,sp,512
 48a:	02fe                	slli	t0,t0,0x1f
 48c:	0000                	unimp
 48e:	0a1c                	addi	a5,sp,272
 490:	0000                	unimp
 492:	0604                	addi	s1,sp,768
 494:	25000003          	lb	zero,592(zero) # 250 <__udivdi3+0x1a8>
 498:	000a                	c.slli	zero,0x2
 49a:	0000                	unimp
 49c:	7008                	.insn	2, 0x7008
 49e:	0008                	.insn	2, 0x0008
 4a0:	6500                	.insn	2, 0x6500
 4a2:	0000                	unimp
 4a4:	c400                	sw	s0,8(s0)
 4a6:	0004                	.insn	2, 0x0004
 4a8:	0100                	addi	s0,sp,128
 4aa:	0875                	addi	a6,a6,29
 4ac:	0000                	unimp
 4ae:	0d5c                	addi	a5,sp,660
 4b0:	0000                	unimp
 4b2:	0d54                	addi	a3,sp,660
 4b4:	0000                	unimp
 4b6:	8101                	c.srli64	a0
 4b8:	0008                	.insn	2, 0x0008
 4ba:	7300                	.insn	2, 0x7300
 4bc:	000d                	c.nop	3
 4be:	6b00                	.insn	2, 0x6b00
 4c0:	000d                	c.nop	3
 4c2:	0000                	unimp
 4c4:	a012                	.insn	2, 0xa012
 4c6:	0008                	.insn	2, 0x0008
 4c8:	7500                	.insn	2, 0x7500
 4ca:	0000                	unimp
 4cc:	0100                	addi	s0,sp,128
 4ce:	08a1                	addi	a7,a7,8
 4d0:	0000                	unimp
 4d2:	0d86                	slli	s11,s11,0x1
 4d4:	0000                	unimp
 4d6:	0d82                	c.slli64	s11
 4d8:	0000                	unimp
 4da:	ac01                	j	6ea <irq_init+0x48>
 4dc:	0008                	.insn	2, 0x0008
 4de:	9200                	.insn	2, 0x9200
 4e0:	000d                	c.nop	3
 4e2:	8e00                	.insn	2, 0x8e00
 4e4:	000d                	c.nop	3
 4e6:	0800                	addi	s0,sp,16
 4e8:	000008b7          	lui	a7,0x0
 4ec:	0085                	addi	ra,ra,1
 4ee:	0000                	unimp
 4f0:	0586                	slli	a1,a1,0x1
 4f2:	0000                	unimp
 4f4:	bc01                	j	ffffff04 <__stack_top+0xfdffff04>
 4f6:	0008                	.insn	2, 0x0008
 4f8:	bd00                	.insn	2, 0xbd00
 4fa:	000d                	c.nop	3
 4fc:	a900                	.insn	2, 0xa900
 4fe:	000d                	c.nop	3
 500:	0100                	addi	s0,sp,128
 502:	08c8                	addi	a0,sp,84
 504:	0000                	unimp
 506:	0e04                	addi	s1,sp,784
 508:	0000                	unimp
 50a:	0de8                	addi	a0,sp,732
 50c:	0000                	unimp
 50e:	d401                	beqz	s0,416 <__udivdi3+0x36e>
 510:	0008                	.insn	2, 0x0008
 512:	6600                	.insn	2, 0x6600
 514:	000e                	c.slli	zero,0x3
 516:	5200                	lw	s0,32(a2)
 518:	000e                	c.slli	zero,0x3
 51a:	0100                	addi	s0,sp,128
 51c:	08e0                	addi	s0,sp,92
 51e:	0000                	unimp
 520:	0eaa                	slli	t4,t4,0xa
 522:	0000                	unimp
 524:	0e8e                	slli	t4,t4,0x3
 526:	0000                	unimp
 528:	ec01                	bnez	s0,540 <__modsi3+0xc>
 52a:	0008                	.insn	2, 0x0008
 52c:	0800                	addi	s0,sp,16
 52e:	e400000f          	.insn	4, 0xe400000f
 532:	000e                	c.slli	zero,0x3
 534:	0100                	addi	s0,sp,128
 536:	08f8                	addi	a4,sp,92
 538:	0000                	unimp
 53a:	0f75                	addi	t5,t5,29
 53c:	0000                	unimp
 53e:	0f61                	addi	t5,t5,24
 540:	0000                	unimp
 542:	0401                	addi	s0,s0,0
 544:	0009                	c.nop	2
 546:	bd00                	.insn	2, 0xbd00
 548:	a500000f          	.insn	4, 0xa500000f
 54c:	0400000f          	fence	o,unknown
 550:	03d0                	addi	a2,sp,452
 552:	0000                	unimp
 554:	00000a13          	li	s4,0
 558:	d804                	sw	s1,48(s0)
 55a:	1c000003          	lb	zero,448(zero) # 1c0 <__udivdi3+0x118>
 55e:	000a                	c.slli	zero,0x2
 560:	0400                	addi	s0,sp,512
 562:	03e0                	addi	s0,sp,460
 564:	0000                	unimp
 566:	0a25                	addi	s4,s4,9
 568:	0000                	unimp
 56a:	1204                	addi	s1,sp,288
 56c:	0004                	.insn	2, 0x0004
 56e:	1300                	addi	s0,sp,416
 570:	000a                	c.slli	zero,0x2
 572:	0400                	addi	s0,sp,512
 574:	041e                	slli	s0,s0,0x7
 576:	0000                	unimp
 578:	0a1c                	addi	a5,sp,272
 57a:	0000                	unimp
 57c:	2604                	.insn	2, 0x2604
 57e:	0004                	.insn	2, 0x0004
 580:	2500                	.insn	2, 0x2500
 582:	000a                	c.slli	zero,0x2
 584:	0000                	unimp
 586:	1112                	slli	sp,sp,0x24
 588:	0009                	c.nop	2
 58a:	a900                	.insn	2, 0xa900
 58c:	0000                	unimp
 58e:	0100                	addi	s0,sp,128
 590:	0916                	slli	s2,s2,0x5
 592:	0000                	unimp
 594:	0fee                	slli	t6,t6,0x1b
 596:	0000                	unimp
 598:	0fea                	slli	t6,t6,0x1a
 59a:	0000                	unimp
 59c:	2201                	jal	69c <get_tick_ms+0x22>
 59e:	0009                	c.nop	2
 5a0:	0600                	addi	s0,sp,768
 5a2:	0010                	.insn	2, 0x0010
 5a4:	f600                	.insn	2, 0xf600
 5a6:	0100000f          	fence	w,unknown
 5aa:	092e                	slli	s2,s2,0xb
 5ac:	0000                	unimp
 5ae:	102e                	c.slli	zero,0x2b
 5b0:	0000                	unimp
 5b2:	102a                	c.slli	zero,0x2a
 5b4:	0000                	unimp
 5b6:	3a01                	jal	fffffec6 <__stack_top+0xfdfffec6>
 5b8:	0009                	c.nop	2
 5ba:	3a00                	.insn	2, 0x3a00
 5bc:	0010                	.insn	2, 0x0010
 5be:	3600                	.insn	2, 0x3600
 5c0:	0010                	.insn	2, 0x0010
 5c2:	0700                	addi	s0,sp,896
 5c4:	0946                	slli	s2,s2,0x11
 5c6:	0000                	unimp
 5c8:	5e01                	li	t3,-32
 5ca:	5201                	li	tp,-32
 5cc:	0009                	c.nop	2
 5ce:	4a00                	lw	s0,16(a2)
 5d0:	0010                	.insn	2, 0x0010
 5d2:	4200                	lw	s0,0(a2)
 5d4:	0010                	.insn	2, 0x0010
 5d6:	0100                	addi	s0,sp,128
 5d8:	095e                	slli	s2,s2,0x17
 5da:	0000                	unimp
 5dc:	1079                	c.nop	-2
 5de:	0000                	unimp
 5e0:	1061                	c.nop	-8
 5e2:	0000                	unimp
 5e4:	6a01                	.insn	2, 0x6a01
 5e6:	0009                	c.nop	2
 5e8:	bc00                	.insn	2, 0xbc00
 5ea:	0010                	.insn	2, 0x0010
 5ec:	b400                	.insn	2, 0xb400
 5ee:	0010                	.insn	2, 0x0010
 5f0:	0800                	addi	s0,sp,16
 5f2:	0976                	slli	s2,s2,0x1d
 5f4:	0000                	unimp
 5f6:	000000c3          	.insn	4, 0x00c3
 5fa:	060d                	addi	a2,a2,3
 5fc:	0000                	unimp
 5fe:	00097b07          	.insn	4, 0x00097b07
 602:	0100                	addi	s0,sp,128
 604:	075a                	slli	a4,a4,0x16
 606:	00000987          	.insn	4, 0x0987
 60a:	5b01                	li	s6,-32
 60c:	1300                	addi	s0,sp,416
 60e:	0994                	addi	a3,sp,208
 610:	0000                	unimp
 612:	0464                	addi	s1,sp,524
 614:	0000                	unimp
 616:	000c                	.insn	2, 0x000c
 618:	0000                	unimp
 61a:	062d                	addi	a2,a2,11
 61c:	0000                	unimp
 61e:	00099907          	.insn	4, 0x00099907
 622:	0100                	addi	s0,sp,128
 624:	075a                	slli	a4,a4,0x16
 626:	09a5                	addi	s3,s3,9
 628:	0000                	unimp
 62a:	5b01                	li	s6,-32
 62c:	1300                	addi	s0,sp,416
 62e:	09b2                	slli	s3,s3,0xc
 630:	0000                	unimp
 632:	0470                	addi	a2,sp,524
 634:	0000                	unimp
 636:	000a                	c.slli	zero,0x2
 638:	0000                	unimp
 63a:	064d                	addi	a2,a2,19
 63c:	0000                	unimp
 63e:	0009b707          	.insn	4, 0x0009b707
 642:	0100                	addi	s0,sp,128
 644:	075a                	slli	a4,a4,0x16
 646:	000009c3          	.insn	4, 0x09c3
 64a:	5b01                	li	s6,-32
 64c:	2000                	.insn	2, 0x2000
 64e:	09d0                	addi	a2,sp,212
 650:	0000                	unimp
 652:	047a                	slli	s0,s0,0x1e
 654:	0000                	unimp
 656:	0008                	.insn	2, 0x0008
 658:	0000                	unimp
 65a:	0009d107          	.insn	4, 0x0009d107
 65e:	0100                	addi	s0,sp,128
 660:	075a                	slli	a4,a4,0x16
 662:	09dd                	addi	s3,s3,23
 664:	0000                	unimp
 666:	5b01                	li	s6,-32
 668:	0000                	unimp
 66a:	0000                	unimp
 66c:	2100                	.insn	2, 0x2100
 66e:	01e0                	addi	s0,sp,204
 670:	0000                	unimp
 672:	e301                	bnez	a4,672 <gpio_int_clear+0x12>
 674:	00b70103          	lb	sp,11(a4)
 678:	0000                	unimp
 67a:	000a0d03          	lb	s10,0(s4)
 67e:	0d00                	addi	s0,sp,656
 680:	006e                	c.slli	zero,0x1b
 682:	0000b717          	auipc	a4,0xb
 686:	0d00                	addi	s0,sp,656
 688:	0064                	addi	s1,sp,12
 68a:	b722                	.insn	2, 0xb722
 68c:	0000                	unimp
 68e:	0d00                	addi	s0,sp,656
 690:	7072                	.insn	2, 0x7072
 692:	2e00                	.insn	2, 0x2e00
 694:	0a0d                	addi	s4,s4,3
 696:	0000                	unimp
 698:	006e6e03          	.insn	4, 0x006e6e03
 69c:	03e5                	addi	t2,t2,25
 69e:	4b11                	li	s6,4
 6a0:	0001                	nop
 6a2:	0300                	addi	s0,sp,384
 6a4:	6464                	.insn	2, 0x6464
 6a6:	e600                	.insn	2, 0xe600
 6a8:	014b1103          	lh	sp,20(s6)
 6ac:	0000                	unimp
 6ae:	00727203          	.insn	4, 0x00727203
 6b2:	3e0b03e7          	jalr	t2,992(s6)
 6b6:	0001                	nop
 6b8:	0300                	addi	s0,sp,384
 6ba:	3064                	.insn	2, 0x3064
 6bc:	e800                	.insn	2, 0xe800
 6be:	00a10a03          	lb	s4,10(sp)
 6c2:	0000                	unimp
 6c4:	00316403          	.insn	4, 0x00316403
 6c8:	03e8                	addi	a0,sp,460
 6ca:	a10e                	.insn	2, 0xa10e
 6cc:	0000                	unimp
 6ce:	0300                	addi	s0,sp,384
 6d0:	306e                	.insn	2, 0x306e
 6d2:	e800                	.insn	2, 0xe800
 6d4:	00a11203          	lh	tp,10(sp)
 6d8:	0000                	unimp
 6da:	00316e03          	.insn	4, 0x00316e03
 6de:	03e8                	addi	a0,sp,460
 6e0:	a116                	.insn	2, 0xa116
 6e2:	0000                	unimp
 6e4:	0300                	addi	s0,sp,384
 6e6:	326e                	.insn	2, 0x326e
 6e8:	e800                	.insn	2, 0xe800
 6ea:	00a11a03          	lh	s4,10(sp)
 6ee:	0000                	unimp
 6f0:	00307103          	.insn	4, 0x00307103
 6f4:	03e9                	addi	t2,t2,26
 6f6:	a10a                	.insn	2, 0xa10a
 6f8:	0000                	unimp
 6fa:	0300                	addi	s0,sp,384
 6fc:	3171                	jal	388 <__udivdi3+0x2e0>
 6fe:	e900                	.insn	2, 0xe900
 700:	00a10e03          	lb	t3,10(sp)
 704:	0000                	unimp
 706:	ea006203          	.insn	4, 0xea006203
 70a:	00a10a03          	lb	s4,10(sp)
 70e:	0000                	unimp
 710:	006d6203          	.insn	4, 0x006d6203
 714:	03ea                	slli	t2,t2,0x1a
 716:	a10d                	j	b38 <__data_load_start+0x2c8>
 718:	0000                	unimp
 71a:	0300                	addi	s0,sp,384
 71c:	b3007777          	.insn	4, 0xb3007777
 720:	1104                	addi	s1,sp,160
 722:	0000014b          	.insn	4, 0x014b
 726:	4406                	lw	s0,64(sp)
 728:	02000007          	.insn	4, 0x02000007
 72c:	0201                	addi	tp,tp,0 # 0 <_start>
 72e:	0000                	unimp
 730:	041a                	slli	s0,s0,0x6
 732:	a104                	.insn	2, 0xa104
 734:	0000                	unimp
 736:	0300                	addi	s0,sp,384
 738:	5f5f 0061 041a      	.insn	6, 0x041a00615f5f
 73e:	a104                	.insn	2, 0xa104
 740:	0000                	unimp
 742:	0000                	unimp
 744:	9e06                	add	t3,t3,ra
 746:	02000007          	.insn	4, 0x02000007
 74a:	0041                	c.nop	16
 74c:	0000                	unimp
 74e:	0426                	slli	s0,s0,0x9
 750:	a104                	.insn	2, 0xa104
 752:	0000                	unimp
 754:	0200                	addi	s0,sp,256
 756:	003c                	addi	a5,sp,8
 758:	0000                	unimp
 75a:	0426                	slli	s0,s0,0x9
 75c:	a104                	.insn	2, 0xa104
 75e:	0000                	unimp
 760:	0200                	addi	s0,sp,256
 762:	000001b7          	lui	gp,0x0
 766:	0426                	slli	s0,s0,0x9
 768:	a104                	.insn	2, 0xa104
 76a:	0000                	unimp
 76c:	0200                	addi	s0,sp,256
 76e:	01b2                	slli	gp,gp,0xc
 770:	0000                	unimp
 772:	0426                	slli	s0,s0,0x9
 774:	a104                	.insn	2, 0xa104
 776:	0000                	unimp
 778:	0200                	addi	s0,sp,256
 77a:	0000020b          	.insn	4, 0x020b
 77e:	0426                	slli	s0,s0,0x9
 780:	a104                	.insn	2, 0xa104
 782:	0000                	unimp
 784:	0200                	addi	s0,sp,256
 786:	0206                	slli	tp,tp,0x1
 788:	0000                	unimp
 78a:	0426                	slli	s0,s0,0x9
 78c:	a104                	.insn	2, 0xa104
 78e:	0000                	unimp
 790:	0300                	addi	s0,sp,384
 792:	5f5f 006d 0426      	.insn	6, 0x0426006d5f5f
 798:	a104                	.insn	2, 0xa104
 79a:	0000                	unimp
 79c:	0000                	unimp
 79e:	bc06                	.insn	2, 0xbc06
 7a0:	02000007          	.insn	4, 0x02000007
 7a4:	0201                	addi	tp,tp,0 # 0 <_start>
 7a6:	0000                	unimp
 7a8:	0432                	slli	s0,s0,0xc
 7aa:	a104                	.insn	2, 0xa104
 7ac:	0000                	unimp
 7ae:	0300                	addi	s0,sp,384
 7b0:	5f5f 0061 0432      	.insn	6, 0x043200615f5f
 7b6:	a104                	.insn	2, 0xa104
 7b8:	0000                	unimp
 7ba:	0000                	unimp
 7bc:	1606                	slli	a2,a2,0x21
 7be:	0008                	.insn	2, 0x0008
 7c0:	0200                	addi	s0,sp,256
 7c2:	0041                	c.nop	16
 7c4:	0000                	unimp
 7c6:	a108044b          	.insn	4, 0xa108044b
 7ca:	0000                	unimp
 7cc:	0200                	addi	s0,sp,256
 7ce:	003c                	addi	a5,sp,8
 7d0:	0000                	unimp
 7d2:	a108044b          	.insn	4, 0xa108044b
 7d6:	0000                	unimp
 7d8:	0200                	addi	s0,sp,256
 7da:	000001b7          	lui	gp,0x0
 7de:	a108044b          	.insn	4, 0xa108044b
 7e2:	0000                	unimp
 7e4:	0200                	addi	s0,sp,256
 7e6:	01b2                	slli	gp,gp,0xc
 7e8:	0000                	unimp
 7ea:	a108044b          	.insn	4, 0xa108044b
 7ee:	0000                	unimp
 7f0:	0200                	addi	s0,sp,256
 7f2:	0000020b          	.insn	4, 0x020b
 7f6:	a108044b          	.insn	4, 0xa108044b
 7fa:	0000                	unimp
 7fc:	0200                	addi	s0,sp,256
 7fe:	0206                	slli	tp,tp,0x1
 800:	0000                	unimp
 802:	a108044b          	.insn	4, 0xa108044b
 806:	0000                	unimp
 808:	0300                	addi	s0,sp,384
 80a:	5f5f 006d 044b      	.insn	6, 0x044b006d5f5f
 810:	a108                	.insn	2, 0xa108
 812:	0000                	unimp
 814:	0000                	unimp
 816:	7006                	.insn	2, 0x7006
 818:	0008                	.insn	2, 0x0008
 81a:	0200                	addi	s0,sp,256
 81c:	0041                	c.nop	16
 81e:	0000                	unimp
 820:	0450                	addi	a2,sp,516
 822:	a104                	.insn	2, 0xa104
 824:	0000                	unimp
 826:	0200                	addi	s0,sp,256
 828:	003c                	addi	a5,sp,8
 82a:	0000                	unimp
 82c:	0450                	addi	a2,sp,516
 82e:	a104                	.insn	2, 0xa104
 830:	0000                	unimp
 832:	0200                	addi	s0,sp,256
 834:	000001b7          	lui	gp,0x0
 838:	0450                	addi	a2,sp,516
 83a:	a104                	.insn	2, 0xa104
 83c:	0000                	unimp
 83e:	0200                	addi	s0,sp,256
 840:	01b2                	slli	gp,gp,0xc
 842:	0000                	unimp
 844:	0450                	addi	a2,sp,516
 846:	a104                	.insn	2, 0xa104
 848:	0000                	unimp
 84a:	0200                	addi	s0,sp,256
 84c:	0000020b          	.insn	4, 0x020b
 850:	0450                	addi	a2,sp,516
 852:	a104                	.insn	2, 0xa104
 854:	0000                	unimp
 856:	0200                	addi	s0,sp,256
 858:	0206                	slli	tp,tp,0x1
 85a:	0000                	unimp
 85c:	0450                	addi	a2,sp,516
 85e:	a104                	.insn	2, 0xa104
 860:	0000                	unimp
 862:	0300                	addi	s0,sp,384
 864:	5f5f 006d 0450      	.insn	6, 0x0450006d5f5f
 86a:	a104                	.insn	2, 0xa104
 86c:	0000                	unimp
 86e:	0000                	unimp
 870:	8e06                	mv	t3,ra
 872:	0008                	.insn	2, 0x0008
 874:	0200                	addi	s0,sp,256
 876:	0201                	addi	tp,tp,0 # 0 <_start>
 878:	0000                	unimp
 87a:	a1040473          	.insn	4, 0xa1040473
 87e:	0000                	unimp
 880:	0300                	addi	s0,sp,384
 882:	5f5f 0061 0473      	.insn	6, 0x047300615f5f
 888:	a104                	.insn	2, 0xa104
 88a:	0000                	unimp
 88c:	0000                	unimp
 88e:	a006                	.insn	2, 0xa006
 890:	0008                	.insn	2, 0x0008
 892:	0300                	addi	s0,sp,384
 894:	5f5f 0078 0481      	.insn	6, 0x048100785f5f
 89a:	a105                	j	cba <__data_load_start+0x44a>
 89c:	0000                	unimp
 89e:	0000                	unimp
 8a0:	030e                	slli	t1,t1,0x3
 8a2:	316d                	jal	54c <__modsi3+0x18>
 8a4:	9100                	.insn	2, 0x9100
 8a6:	0f04                	addi	s1,sp,912
 8a8:	00a1                	addi	ra,ra,8
 8aa:	0000                	unimp
 8ac:	00306d03          	.insn	4, 0x00306d03
 8b0:	0491                	addi	s1,s1,4
 8b2:	0000a113          	slti	sp,ra,0
 8b6:	0600                	addi	s0,sp,768
 8b8:	0911                	addi	s2,s2,4
 8ba:	0000                	unimp
 8bc:	4102                	lw	sp,0(sp)
 8be:	0000                	unimp
 8c0:	9c00                	.insn	2, 0x9c00
 8c2:	0804                	addi	s1,sp,16
 8c4:	00a1                	addi	ra,ra,8
 8c6:	0000                	unimp
 8c8:	3c02                	.insn	2, 0x3c02
 8ca:	0000                	unimp
 8cc:	9c00                	.insn	2, 0x9c00
 8ce:	0804                	addi	s1,sp,16
 8d0:	00a1                	addi	ra,ra,8
 8d2:	0000                	unimp
 8d4:	b702                	.insn	2, 0xb702
 8d6:	0001                	nop
 8d8:	9c00                	.insn	2, 0x9c00
 8da:	0804                	addi	s1,sp,16
 8dc:	00a1                	addi	ra,ra,8
 8de:	0000                	unimp
 8e0:	b202                	.insn	2, 0xb202
 8e2:	0001                	nop
 8e4:	9c00                	.insn	2, 0x9c00
 8e6:	0804                	addi	s1,sp,16
 8e8:	00a1                	addi	ra,ra,8
 8ea:	0000                	unimp
 8ec:	0b02                	c.slli64	s6
 8ee:	0002                	c.slli64	zero
 8f0:	9c00                	.insn	2, 0x9c00
 8f2:	0804                	addi	s1,sp,16
 8f4:	00a1                	addi	ra,ra,8
 8f6:	0000                	unimp
 8f8:	0602                	c.slli64	a2
 8fa:	0002                	c.slli64	zero
 8fc:	9c00                	.insn	2, 0x9c00
 8fe:	0804                	addi	s1,sp,16
 900:	00a1                	addi	ra,ra,8
 902:	0000                	unimp
 904:	6d5f5f03          	lhu	t5,1749(t5)
 908:	9c00                	.insn	2, 0x9c00
 90a:	0804                	addi	s1,sp,16
 90c:	00a1                	addi	ra,ra,8
 90e:	0000                	unimp
 910:	0600                	addi	s0,sp,768
 912:	000009eb          	.insn	4, 0x09eb
 916:	7302                	.insn	2, 0x7302
 918:	0001                	nop
 91a:	9d00                	.insn	2, 0x9d00
 91c:	0804                	addi	s1,sp,16
 91e:	00a1                	addi	ra,ra,8
 920:	0000                	unimp
 922:	7802                	.insn	2, 0x7802
 924:	0001                	nop
 926:	9d00                	.insn	2, 0x9d00
 928:	0804                	addi	s1,sp,16
 92a:	00a1                	addi	ra,ra,8
 92c:	0000                	unimp
 92e:	7d02                	.insn	2, 0x7d02
 930:	0001                	nop
 932:	9d00                	.insn	2, 0x9d00
 934:	0804                	addi	s1,sp,16
 936:	00a1                	addi	ra,ra,8
 938:	0000                	unimp
 93a:	8202                	jr	tp
 93c:	0001                	nop
 93e:	9d00                	.insn	2, 0x9d00
 940:	0804                	addi	s1,sp,16
 942:	00a1                	addi	ra,ra,8
 944:	0000                	unimp
 946:	1502                	slli	a0,a0,0x20
 948:	0002                	c.slli64	zero
 94a:	9d00                	.insn	2, 0x9d00
 94c:	0804                	addi	s1,sp,16
 94e:	00a1                	addi	ra,ra,8
 950:	0000                	unimp
 952:	db02                	sw	zero,180(sp)
 954:	0001                	nop
 956:	9d00                	.insn	2, 0x9d00
 958:	0804                	addi	s1,sp,16
 95a:	00a1                	addi	ra,ra,8
 95c:	0000                	unimp
 95e:	1002                	c.slli	zero,0x20
 960:	0002                	c.slli64	zero
 962:	9d00                	.insn	2, 0x9d00
 964:	0804                	addi	s1,sp,16
 966:	00a1                	addi	ra,ra,8
 968:	0000                	unimp
 96a:	4602                	lw	a2,0(sp)
 96c:	0000                	unimp
 96e:	9d00                	.insn	2, 0x9d00
 970:	0804                	addi	s1,sp,16
 972:	00a1                	addi	ra,ra,8
 974:	0000                	unimp
 976:	9406                	add	s0,s0,ra
 978:	0009                	c.nop	2
 97a:	0200                	addi	s0,sp,256
 97c:	0000004b          	.insn	4, 0x004b
 980:	049d                	addi	s1,s1,7
 982:	a108                	.insn	2, 0xa108
 984:	0000                	unimp
 986:	0200                	addi	s0,sp,256
 988:	0051                	c.nop	20
 98a:	0000                	unimp
 98c:	049d                	addi	s1,s1,7
 98e:	a108                	.insn	2, 0xa108
 990:	0000                	unimp
 992:	0000                	unimp
 994:	b206                	.insn	2, 0xb206
 996:	0009                	c.nop	2
 998:	0200                	addi	s0,sp,256
 99a:	0000004b          	.insn	4, 0x004b
 99e:	049d                	addi	s1,s1,7
 9a0:	a108                	.insn	2, 0xa108
 9a2:	0000                	unimp
 9a4:	0200                	addi	s0,sp,256
 9a6:	0051                	c.nop	20
 9a8:	0000                	unimp
 9aa:	049d                	addi	s1,s1,7
 9ac:	a108                	.insn	2, 0xa108
 9ae:	0000                	unimp
 9b0:	0000                	unimp
 9b2:	d006                	sw	ra,32(sp)
 9b4:	0009                	c.nop	2
 9b6:	0200                	addi	s0,sp,256
 9b8:	0000004b          	.insn	4, 0x004b
 9bc:	049d                	addi	s1,s1,7
 9be:	a108                	.insn	2, 0xa108
 9c0:	0000                	unimp
 9c2:	0200                	addi	s0,sp,256
 9c4:	0051                	c.nop	20
 9c6:	0000                	unimp
 9c8:	049d                	addi	s1,s1,7
 9ca:	a108                	.insn	2, 0xa108
 9cc:	0000                	unimp
 9ce:	0000                	unimp
 9d0:	020e                	slli	tp,tp,0x3
 9d2:	0000004b          	.insn	4, 0x004b
 9d6:	049d                	addi	s1,s1,7
 9d8:	a108                	.insn	2, 0xa108
 9da:	0000                	unimp
 9dc:	0200                	addi	s0,sp,256
 9de:	0051                	c.nop	20
 9e0:	0000                	unimp
 9e2:	049d                	addi	s1,s1,7
 9e4:	a108                	.insn	2, 0xa108
 9e6:	0000                	unimp
 9e8:	0000                	unimp
 9ea:	0600                	addi	s0,sp,768
 9ec:	09fd                	addi	s3,s3,31
 9ee:	0000                	unimp
 9f0:	785f5f03          	lhu	t5,1925(t5)
 9f4:	a200                	.insn	2, 0xa200
 9f6:	0504                	addi	s1,sp,640
 9f8:	00a1                	addi	ra,ra,8
 9fa:	0000                	unimp
 9fc:	0e00                	addi	s0,sp,784
 9fe:	785f5f03          	lhu	t5,1925(t5)
 a02:	aa00                	.insn	2, 0xaa00
 a04:	0504                	addi	s1,sp,640
 a06:	00a1                	addi	ra,ra,8
 a08:	0000                	unimp
 a0a:	0000                	unimp
 a0c:	2200                	.insn	2, 0x2200
 a0e:	b704                	.insn	2, 0xb704
 a10:	0000                	unimp
 a12:	0f00                	addi	s0,sp,912
 a14:	02f1                	addi	t0,t0,28 # 294 <__udivdi3+0x1ec>
 a16:	0000                	unimp
 a18:	02f1                	addi	t0,t0,28
 a1a:	0000                	unimp
 a1c:	0000210f          	.insn	4, 0x210f
 a20:	2100                	.insn	2, 0x2100
 a22:	0000                	unimp
 a24:	0f00                	addi	s0,sp,912
 a26:	01bc                	addi	a5,sp,200
 a28:	0000                	unimp
 a2a:	01bc                	addi	a5,sp,200
 a2c:	0000                	unimp
 a2e:	2d00                	.insn	2, 0x2d00
 a30:	0000                	unimp
 a32:	0500                	addi	s0,sp,640
 a34:	0100                	addi	s0,sp,128
 a36:	db04                	sw	s1,48(a4)
 a38:	0001                	nop
 a3a:	0100                	addi	s0,sp,128
 a3c:	0d4d                	addi	s10,s10,19
 a3e:	0000                	unimp
 a40:	04c8                	addi	a0,sp,580
 a42:	0000                	unimp
 a44:	1a18                	addi	a4,sp,304
 a46:	0002                	c.slli64	zero
 a48:	4700                	lw	s0,8(a4)
 a4a:	0002                	c.slli64	zero
 a4c:	a900                	.insn	2, 0xa900
 a4e:	0002                	c.slli64	zero
 a50:	0100                	addi	s0,sp,128
 a52:	0280                	addi	s0,sp,320
 a54:	0021                	c.nop	8
 a56:	0000                	unimp
 a58:	0004c82f          	.insn	4, 0x0004c82f
 a5c:	1400                	addi	s0,sp,544
 a5e:	005a0003          	lb	zero,5(s4)
 a62:	0000                	unimp
 a64:	0005                	c.nop	1
 a66:	0401                	addi	s0,s0,0
 a68:	00000203          	lb	tp,0(zero) # 0 <_start>
 a6c:	c701                	beqz	a4,a74 <__data_load_start+0x204>
 a6e:	000d                	c.nop	3
 a70:	dc00                	sw	s0,56(s0)
 a72:	0004                	.insn	2, 0x0004
 a74:	8600                	.insn	2, 0x8600
 a76:	b501                	j	876 <__data_load_start+0x6>
 a78:	0002                	c.slli64	zero
 a7a:	4700                	lw	s0,8(a4)
 a7c:	0002                	c.slli64	zero
 a7e:	a900                	.insn	2, 0xa900
 a80:	0002                	c.slli64	zero
 a82:	0100                	addi	s0,sp,128
 a84:	0280                	addi	s0,sp,320
 a86:	02df 0000 dc5c      	.insn	6, 0xdc5c000002df
 a8c:	0004                	.insn	2, 0x0004
 a8e:	5c00                	lw	s0,56(s0)
 a90:	f102                	.insn	2, 0xf102
 a92:	0002                	c.slli64	zero
 a94:	5c00                	lw	s0,56(s0)
 a96:	04e4                	addi	s1,sp,588
 a98:	0000                	unimp
 a9a:	022c                	addi	a1,sp,264
 a9c:	02e8                	addi	a0,sp,332
 a9e:	0000                	unimp
 aa0:	e45c                	.insn	2, 0xe45c
 aa2:	0004                	.insn	2, 0x0004
 aa4:	2c00                	.insn	2, 0x2c00
 aa6:	bc02                	.insn	2, 0xbc02
 aa8:	0001                	nop
 aaa:	5c00                	lw	s0,56(s0)
 aac:	0510                	addi	a2,sp,640
 aae:	0000                	unimp
 ab0:	0208                	addi	a0,sp,256
 ab2:	000002fb          	.insn	4, 0x02fb
 ab6:	345c                	.insn	2, 0x345c
 ab8:	0005                	c.nop	1
 aba:	2400                	.insn	2, 0x2400
 abc:	00ee0003          	lb	zero,14(t3)
 ac0:	0000                	unimp
 ac2:	0005                	c.nop	1
 ac4:	0401                	addi	s0,s0,0
 ac6:	0000022b          	.insn	4, 0x022b
 aca:	00030403          	lb	s0,0(t1) # ffffa000 <__stack_top+0xfdffa000>
 ace:	1d00                	addi	s0,sp,688
 ad0:	03164703          	lbu	a4,49(a2)
 ad4:	0000                	unimp
 ad6:	0000                	unimp
 ad8:	2b00                	.insn	2, 0x2b00
 ada:	0000                	unimp
 adc:	1a00                	addi	s0,sp,304
 ade:	0400000f          	fence	o,unknown
 ae2:	0504                	addi	s1,sp,640
 ae4:	6e69                	lui	t3,0x1a
 ae6:	0074                	addi	a3,sp,12
 ae8:	0401                	addi	s0,s0,0
 aea:	00006f07          	.insn	4, 0x6f07
 aee:	0100                	addi	s0,sp,128
 af0:	0508                	addi	a0,sp,640
 af2:	00000057          	.insn	4, 0x0057
 af6:	1001                	c.nop	-32
 af8:	f504                	.insn	2, 0xf504
 afa:	0001                	nop
 afc:	0100                	addi	s0,sp,128
 afe:	0601                	addi	a2,a2,0
 b00:	00000167          	jalr	sp,zero # 0 <_start>
 b04:	0101                	addi	sp,sp,0
 b06:	6508                	.insn	2, 0x6508
 b08:	0001                	nop
 b0a:	0100                	addi	s0,sp,128
 b0c:	0502                	c.slli64	a0
 b0e:	002a                	c.slli	zero,0xa
 b10:	0000                	unimp
 b12:	0201                	addi	tp,tp,0 # 0 <_start>
 b14:	00018f07          	.insn	4, 0x00018f07
 b18:	0100                	addi	s0,sp,128
 b1a:	0504                	addi	s1,sp,640
 b1c:	005c                	addi	a5,sp,4
 b1e:	0000                	unimp
 b20:	0401                	addi	s0,s0,0
 b22:	00006a07          	.insn	4, 0x6a07
 b26:	0100                	addi	s0,sp,128
 b28:	0708                	addi	a0,sp,896
 b2a:	0065                	c.nop	25
 b2c:	0000                	unimp
 b2e:	0101                	addi	sp,sp,0
 b30:	6e08                	.insn	2, 0x6e08
 b32:	0001                	nop
 b34:	0100                	addi	s0,sp,128
 b36:	0201                	addi	tp,tp,0 # 0 <_start>
 b38:	01c6                	slli	gp,gp,0x11
 b3a:	0000                	unimp
 b3c:	8705                	srai	a4,a4,0x1
 b3e:	0001                	nop
 b40:	0200                	addi	s0,sp,256
 b42:	167e                	slli	a2,a2,0x3f
 b44:	0046                	c.slli	zero,0x11
 b46:	0000                	unimp
 b48:	7e02                	.insn	2, 0x7e02
 b4a:	0000                	unimp
 b4c:	0100                	addi	s0,sp,128
 b4e:	0402                	c.slli64	s0
 b50:	015c                	addi	a5,sp,132
 b52:	0000                	unimp
 b54:	0401                	addi	s0,s0,0
 b56:	00015403          	lhu	s0,0(sp)
 b5a:	0100                	addi	s0,sp,128
 b5c:	0404                	addi	s1,sp,512
 b5e:	0000001b          	.insn	4, 0x001b
 b62:	0801                	addi	a6,a6,0
 b64:	00001303          	lh	t1,0(zero) # 0 <_start>
 b68:	0100                	addi	s0,sp,128
 b6a:	0408                	addi	a0,sp,512
 b6c:	01fa                	slli	gp,gp,0x1e
 b6e:	0000                	unimp
 b70:	1001                	c.nop	-32
 b72:	0001cc03          	lbu	s8,0(gp) # 0 <_start>
 b76:	0100                	addi	s0,sp,128
 b78:	0320                	addi	s0,sp,392
 b7a:	01ed                	addi	gp,gp,27 # 100081b <__global_pointer$+0x1b>
 b7c:	0000                	unimp
 b7e:	8a06                	mv	s4,ra
 b80:	0000                	unimp
 b82:	d000                	sw	s0,32(s0)
 b84:	0000                	unimp
 b86:	0700                	addi	s0,sp,896
 b88:	002a                	c.slli	zero,0xa
 b8a:	0000                	unimp
 b8c:	00ff c002 0000 0800 	.insn	10, 0x008108000000c00200ff
 b94:	0081 
 b96:	0000                	unimp
 b98:	1a02                	slli	s4,s4,0x20
 b9a:	1602                	slli	a2,a2,0x20
 b9c:	00d0                	addi	a2,sp,68
 b9e:	0000                	unimp
 ba0:	d509                	beqz	a0,aaa <__data_load_start+0x23a>
 ba2:	0000                	unimp
 ba4:	0100                	addi	s0,sp,128
 ba6:	029e                	slli	t0,t0,0x7
 ba8:	7003050f          	.insn	4, 0x7003050f
 bac:	00000007          	.insn	4, 0x0007

Disassembly of section .debug_abbrev:

00000000 <.debug_abbrev>:
   0:	3401                	jal	fffffa00 <__stack_top+0xfdfffa00>
   2:	3100                	.insn	2, 0x3100
   4:	b7170213          	addi	tp,a4,-1167 # b1f3 <__data_load_start+0xa983>
   8:	1742                	slli	a4,a4,0x30
   a:	0000                	unimp
   c:	3402                	.insn	2, 0x3402
   e:	0300                	addi	s0,sp,384
  10:	3a0e                	.insn	2, 0x3a0e
  12:	0121                	addi	sp,sp,8
  14:	0b39053b          	.insn	4, 0x0b39053b
  18:	1349                	addi	t1,t1,-14
  1a:	0000                	unimp
  1c:	03003403          	.insn	4, 0x03003403
  20:	3a08                	.insn	2, 0x3a08
  22:	0121                	addi	sp,sp,8
  24:	0b39053b          	.insn	4, 0x0b39053b
  28:	1349                	addi	t1,t1,-14
  2a:	0000                	unimp
  2c:	4804                	lw	s1,16(s0)
  2e:	7d00                	.insn	2, 0x7d00
  30:	7f01                	lui	t5,0xfffe0
  32:	05000013          	li	zero,80
  36:	0024                	addi	s1,sp,8
  38:	0b3e0b0b          	.insn	4, 0x0b3e0b0b
  3c:	00000e03          	lb	t3,0(zero) # 0 <_start>
  40:	0b06                	slli	s6,s6,0x1
  42:	0101                	addi	sp,sp,0
  44:	07000013          	li	zero,112
  48:	0034                	addi	a3,sp,8
  4a:	1331                	addi	t1,t1,-20
  4c:	1802                	slli	a6,a6,0x20
  4e:	0000                	unimp
  50:	0b08                	addi	a0,sp,400
  52:	3101                	jal	fffffc52 <__stack_top+0xfdfffc52>
  54:	01175513          	srli	a0,a4,0x11
  58:	09000013          	li	zero,144
  5c:	0016                	c.slli	zero,0x5
  5e:	213a0e03          	lb	t3,531(s4)
  62:	3b02                	.insn	2, 0x3b02
  64:	490b390b          	.insn	4, 0x490b390b
  68:	0a000013          	li	zero,160
  6c:	0034                	addi	a3,sp,8
  6e:	1331                	addi	t1,t1,-20
  70:	0000                	unimp
  72:	4900260b          	.insn	4, 0x4900260b
  76:	0c000013          	li	zero,192
  7a:	0005                	c.nop	1
  7c:	1331                	addi	t1,t1,-20
  7e:	1702                	slli	a4,a4,0x20
  80:	001742b7          	lui	t0,0x174
  84:	0d00                	addi	s0,sp,656
  86:	0005                	c.nop	1
  88:	213a0803          	lb	a6,531(s4)
  8c:	3b01                	jal	fffffd9c <__stack_top+0xfdfffd9c>
  8e:	e321                	bnez	a4,ce <__udivdi3+0x26>
  90:	490b3907          	.insn	4, 0x490b3907
  94:	0e000013          	li	zero,224
  98:	0000010b          	.insn	4, 0x010b
  9c:	3f002e0f          	.insn	4, 0x3f002e0f
  a0:	3c19                	jal	fffffab6 <__stack_top+0xfdfffab6>
  a2:	6e19                	lui	t3,0x6
  a4:	030e                	slli	t1,t1,0x3
  a6:	000e                	c.slli	zero,0x3
  a8:	1000                	addi	s0,sp,32
  aa:	000d                	c.nop	3
  ac:	213a0803          	lb	a6,531(s4)
  b0:	3b02                	.insn	2, 0x3b02
  b2:	3905                	jal	fffffce2 <__stack_top+0xfdfffce2>
  b4:	0013490b          	.insn	4, 0x0013490b
  b8:	1100                	addi	s0,sp,160
  ba:	0005                	c.nop	1
  bc:	213a0803          	lb	a6,531(s4)
  c0:	3b01                	jal	fffffdd0 <__stack_top+0xfdfffdd0>
  c2:	9221                	srli	a2,a2,0x28
  c4:	390a                	.insn	2, 0x390a
  c6:	0213490b          	.insn	4, 0x0213490b
  ca:	1742b717          	auipc	a4,0x1742b
  ce:	0000                	unimp
  d0:	0b12                	slli	s6,s6,0x4
  d2:	3101                	jal	fffffcd2 <__stack_top+0xfdfffcd2>
  d4:	00175513          	srli	a0,a4,0x1
  d8:	1300                	addi	s0,sp,416
  da:	1331010b          	.insn	4, 0x1331010b
  de:	0111                	addi	sp,sp,4
  e0:	0612                	slli	a2,a2,0x4
  e2:	1301                	addi	t1,t1,-32
  e4:	0000                	unimp
  e6:	1114                	addi	a3,sp,160
  e8:	2501                	jal	6e8 <irq_init+0x46>
  ea:	130e                	slli	t1,t1,0x23
  ec:	0b01900b          	.insn	4, 0x0b01900b
  f0:	0191                	addi	gp,gp,4 # 1000804 <__global_pointer$+0x4>
  f2:	0306                	slli	t1,t1,0x1
  f4:	1b1f 111f 1201      	.insn	6, 0x1201111f1b1f
  fa:	1006                	c.slli	zero,0x21
  fc:	15000017          	auipc	zero,0x15000
 100:	0024                	addi	s1,sp,8
 102:	0b3e0b0b          	.insn	4, 0x0b3e0b0b
 106:	00000803          	lb	a6,0(zero) # 0 <_start>
 10a:	1316                	slli	t1,t1,0x25
 10c:	0301                	addi	t1,t1,0
 10e:	0b0e                	slli	s6,s6,0x3
 110:	3b0b3a0b          	.insn	4, 0x3b0b3a0b
 114:	3905                	jal	fffffd44 <__stack_top+0xfdfffd44>
 116:	0013010b          	.insn	4, 0x0013010b
 11a:	1700                	addi	s0,sp,928
 11c:	000d                	c.nop	3
 11e:	0b3a0803          	lb	a6,179(s4)
 122:	0b39053b          	.insn	4, 0x0b39053b
 126:	1349                	addi	t1,t1,-14
 128:	0b38                	addi	a4,sp,408
 12a:	0000                	unimp
 12c:	0d18                	addi	a4,sp,656
 12e:	0300                	addi	s0,sp,384
 130:	3a0e                	.insn	2, 0x3a0e
 132:	39053b0b          	.insn	4, 0x39053b0b
 136:	3813490b          	.insn	4, 0x3813490b
 13a:	1900000b          	.insn	4, 0x1900000b
 13e:	0b0b0117          	auipc	sp,0xb0b0
 142:	0b3a                	slli	s6,s6,0xe
 144:	0b39053b          	.insn	4, 0x0b39053b
 148:	1301                	addi	t1,t1,-32
 14a:	0000                	unimp
 14c:	161a                	slli	a2,a2,0x26
 14e:	0300                	addi	s0,sp,384
 150:	3a0e                	.insn	2, 0x3a0e
 152:	39053b0b          	.insn	4, 0x39053b0b
 156:	0013490b          	.insn	4, 0x0013490b
 15a:	1b00                	addi	s0,sp,432
 15c:	0101                	addi	sp,sp,0 # b0b013e <__stack_top+0x90b013e>
 15e:	1349                	addi	t1,t1,-14
 160:	1301                	addi	t1,t1,-32
 162:	0000                	unimp
 164:	211c                	.insn	2, 0x211c
 166:	4900                	lw	s0,16(a0)
 168:	000b2f13          	slti	t5,s6,0
 16c:	1d00                	addi	s0,sp,688
 16e:	0034                	addi	a3,sp,8
 170:	0b3a0e03          	lb	t3,179(s4)
 174:	0b39053b          	.insn	4, 0x0b39053b
 178:	1349                	addi	t1,t1,-14
 17a:	193c193f 2e1e0000 	.insn	8, 0x2e1e0000193c193f
 182:	3f01                	jal	92 <trap_entry+0x32>
 184:	0319                	addi	t1,t1,6
 186:	3a0e                	.insn	2, 0x3a0e
 188:	39053b0b          	.insn	4, 0x39053b0b
 18c:	4919270b          	.insn	4, 0x4919270b
 190:	12011113          	.insn	4, 0x12011113
 194:	4006                	.insn	2, 0x4006
 196:	7a18                	.insn	2, 0x7a18
 198:	0119                	addi	sp,sp,6
 19a:	1f000013          	li	zero,496
 19e:	011d                	addi	sp,sp,7
 1a0:	1331                	addi	t1,t1,-20
 1a2:	0152                	slli	sp,sp,0x14
 1a4:	42b8                	lw	a4,64(a3)
 1a6:	5817550b          	.insn	4, 0x5817550b
 1aa:	5705590b          	.insn	4, 0x5705590b
 1ae:	2000000b          	.insn	4, 0x2000000b
 1b2:	1331010b          	.insn	4, 0x1331010b
 1b6:	0111                	addi	sp,sp,4
 1b8:	0612                	slli	a2,a2,0x4
 1ba:	0000                	unimp
 1bc:	2e21                	jal	4d4 <__mulsi3+0xc>
 1be:	0301                	addi	t1,t1,0
 1c0:	3a0e                	.insn	2, 0x3a0e
 1c2:	39053b0b          	.insn	4, 0x39053b0b
 1c6:	4919270b          	.insn	4, 0x4919270b
 1ca:	010b2013          	slti	zero,s6,16
 1ce:	22000013          	li	zero,544
 1d2:	0b0b000f          	.insn	4, 0x0b0b000f
 1d6:	1349                	addi	t1,t1,-14
 1d8:	0000                	unimp
 1da:	0100                	addi	s0,sp,128
 1dc:	0111                	addi	sp,sp,4
 1de:	1710                	addi	a2,sp,928
 1e0:	0111                	addi	sp,sp,4
 1e2:	0f12                	slli	t5,t5,0x4
 1e4:	0e1b0e03          	lb	t3,225(s6)
 1e8:	0e25                	addi	t3,t3,9 # 6009 <__data_load_start+0x5799>
 1ea:	00000513          	li	a0,0
 1ee:	2e02                	.insn	2, 0x2e02
 1f0:	0300                	addi	s0,sp,384
 1f2:	3f0e                	.insn	2, 0x3f0e
 1f4:	4919                	li	s2,6
 1f6:	1115                	addi	sp,sp,-27
 1f8:	1201                	addi	tp,tp,-32 # ffffffe0 <__stack_top+0xfdffffe0>
 1fa:	0300000f          	fence	rw,unknown
 1fe:	0000003b          	.insn	4, 0x003b
 202:	0100                	addi	s0,sp,128
 204:	0111                	addi	sp,sp,4
 206:	1710                	addi	a2,sp,928
 208:	0111                	addi	sp,sp,4
 20a:	0f12                	slli	t5,t5,0x4
 20c:	0e1b0e03          	lb	t3,225(s6)
 210:	0e25                	addi	t3,t3,9
 212:	00000513          	li	a0,0
 216:	2e02                	.insn	2, 0x2e02
 218:	0300                	addi	s0,sp,384
 21a:	3f0e                	.insn	2, 0x3f0e
 21c:	4919                	li	s2,6
 21e:	1115                	addi	sp,sp,-27
 220:	1201                	addi	tp,tp,-32 # ffffffe0 <__stack_top+0xfdffffe0>
 222:	0300000f          	fence	rw,unknown
 226:	0000003b          	.insn	4, 0x003b
 22a:	0100                	addi	s0,sp,128
 22c:	0024                	addi	s1,sp,8
 22e:	0b3e0b0b          	.insn	4, 0x0b3e0b0b
 232:	00000e03          	lb	t3,0(zero) # 0 <_start>
 236:	2602                	.insn	2, 0x2602
 238:	4900                	lw	s0,16(a0)
 23a:	03000013          	li	zero,48
 23e:	0111                	addi	sp,sp,4
 240:	0e25                	addi	t3,t3,9
 242:	01900b13          	li	s6,25
 246:	0601910b          	.insn	4, 0x0601910b
 24a:	1f1b1f03          	lh	t5,497(s6)
 24e:	1710                	addi	a2,sp,928
 250:	0000                	unimp
 252:	2404                	.insn	2, 0x2404
 254:	0b00                	addi	s0,sp,400
 256:	030b3e0b          	.insn	4, 0x030b3e0b
 25a:	0008                	.insn	2, 0x0008
 25c:	0500                	addi	s0,sp,640
 25e:	0016                	c.slli	zero,0x5
 260:	0b3a0e03          	lb	t3,179(s4)
 264:	0b390b3b          	.insn	4, 0x0b390b3b
 268:	1349                	addi	t1,t1,-14
 26a:	0000                	unimp
 26c:	0106                	slli	sp,sp,0x1
 26e:	4901                	li	s2,0
 270:	00130113          	addi	sp,t1,1
 274:	0700                	addi	s0,sp,896
 276:	0021                	c.nop	8
 278:	1349                	addi	t1,t1,-14
 27a:	00000b2f          	.insn	4, 0x0b2f
 27e:	3408                	.insn	2, 0x3408
 280:	0300                	addi	s0,sp,384
 282:	3a0e                	.insn	2, 0x3a0e
 284:	39053b0b          	.insn	4, 0x39053b0b
 288:	3f13490b          	.insn	4, 0x3f13490b
 28c:	3c19                	jal	fffffca2 <__stack_top+0xfdfffca2>
 28e:	0019                	c.nop	6
 290:	0900                	addi	s0,sp,144
 292:	0034                	addi	a3,sp,8
 294:	0b3a1347          	.insn	4, 0x0b3a1347
 298:	0b39053b          	.insn	4, 0x0b39053b
 29c:	1802                	slli	a6,a6,0x20
 29e:	0000                	unimp
	...

Disassembly of section .debug_loclists:

00000000 <.debug_loclists>:
       0:	10c8                	addi	a0,sp,100
       2:	0000                	unimp
       4:	0005                	c.nop	1
       6:	0004                	.insn	2, 0x0004
       8:	0000                	unimp
       a:	0000                	unimp
       c:	1b00                	addi	s0,sp,432
       e:	6261611b          	.insn	4, 0x6261611b
      12:	6b62                	.insn	2, 0x6b62
      14:	af75756b          	.insn	4, 0xaf75756b
      18:	af01                	j	728 <irq_enable_meie+0x18>
      1a:	b101                	j	fffffc1a <__stack_top+0xfdfffc1a>
      1c:	b101                	j	fffffc1c <__stack_top+0xfdfffc1c>
      1e:	fc01                	bnez	s0,ffffff36 <__stack_top+0xfdffff36>
      20:	fc01                	bnez	s0,ffffff38 <__stack_top+0xfdffff38>
      22:	8601                	c.srai64	a2
      24:	8602                	jr	a2
      26:	9302                	jalr	t1
      28:	9302                	jalr	t1
      2a:	9802                	jalr	a6
      2c:	9802                	jalr	a6
      2e:	a302                	.insn	2, 0xa302
      30:	0003a303          	lw	t1,0(t2)
      34:	0004                	.insn	2, 0x0004
      36:	0632                	slli	a2,a2,0xc
      38:	935a                	add	t1,t1,s6
      3a:	5b04                	lw	s1,48(a4)
      3c:	32040493          	addi	s1,s0,800
      40:	01f8                	addi	a4,sp,204
      42:	a306                	.insn	2, 0xa306
      44:	2b0aa503          	lw	a0,688(s5)
      48:	049f 01f8 01fc      	.insn	6, 0x01fc01f8049f
      4e:	5a06                	lw	s4,96(sp)
      50:	935b0493          	addi	s1,s6,-1739
      54:	0404                	addi	s1,sp,512
      56:	01fc                	addi	a5,sp,204
      58:	0290                	addi	a2,sp,320
      5a:	a306                	.insn	2, 0xa306
      5c:	2b0aa503          	lw	a0,688(s5)
      60:	049f 0290 02a4      	.insn	6, 0x02a40290049f
      66:	5a06                	lw	s4,96(sp)
      68:	935b0493          	addi	s1,s6,-1739
      6c:	0404                	addi	s1,sp,512
      6e:	02a4                	addi	s1,sp,328
      70:	03ce                	slli	t2,t2,0x13
      72:	a306                	.insn	2, 0xa306
      74:	2b0aa503          	lw	a0,688(s5)
      78:	049f 03ce 03d2      	.insn	6, 0x03d203ce049f
      7e:	5a06                	lw	s4,96(sp)
      80:	935b0493          	addi	s1,s6,-1739
      84:	0404                	addi	s1,sp,512
      86:	03d2                	slli	t2,t2,0x14
      88:	059a                	slli	a1,a1,0x6
      8a:	a306                	.insn	2, 0xa306
      8c:	2b0aa503          	lw	a0,688(s5)
      90:	049f 059a 05b4      	.insn	6, 0x05b4059a049f
      96:	5a06                	lw	s4,96(sp)
      98:	935b0493          	addi	s1,s6,-1739
      9c:	0404                	addi	s1,sp,512
      9e:	05b4                	addi	a3,sp,712
      a0:	05da                	slli	a1,a1,0x16
      a2:	a306                	.insn	2, 0xa306
      a4:	2b0aa503          	lw	a0,688(s5)
      a8:	049f 05da 05e8      	.insn	6, 0x05e805da049f
      ae:	5a06                	lw	s4,96(sp)
      b0:	935b0493          	addi	s1,s6,-1739
      b4:	0404                	addi	s1,sp,512
      b6:	05e8                	addi	a0,sp,716
      b8:	0898                	addi	a4,sp,80
      ba:	a306                	.insn	2, 0xa306
      bc:	2b0aa503          	lw	a0,688(s5)
      c0:	049f 0898 089e      	.insn	6, 0x089e0898049f
      c6:	5a06                	lw	s4,96(sp)
      c8:	935b0493          	addi	s1,s6,-1739
      cc:	0004                	.insn	2, 0x0004
      ce:	3500                	.insn	2, 0x3500
      d0:	6135                	addi	sp,sp,352
      d2:	6561                	lui	a0,0x18
      d4:	6b65                	lui	s6,0x19
      d6:	af7e7e6b          	.insn	4, 0xaf7e7e6b
      da:	af01                	j	7ea <__clz_tab+0x7a>
      dc:	ba01                	j	fffff9ec <__stack_top+0xfdfff9ec>
      de:	ba01                	j	fffff9ee <__stack_top+0xfdfff9ee>
      e0:	fc01                	bnez	s0,fffffff8 <__stack_top+0xfdfffff8>
      e2:	fc01                	bnez	s0,fffffffa <__stack_top+0xfdfffffa>
      e4:	9201                	srli	a2,a2,0x20
      e6:	9202                	jalr	tp
      e8:	9302                	jalr	t1
      ea:	9302                	jalr	t1
      ec:	b802                	.insn	2, 0xb802
      ee:	b802                	.insn	2, 0xb802
      f0:	a302                	.insn	2, 0xa302
      f2:	0003a303          	lw	t1,0(t2)
      f6:	0004                	.insn	2, 0x0004
      f8:	0671                	addi	a2,a2,28
      fa:	935c                	.insn	2, 0x935c
      fc:	5d04                	lw	s1,56(a0)
      fe:	71040493          	addi	s1,s0,1808
     102:	01f8                	addi	a4,sp,204
     104:	a306                	.insn	2, 0xa306
     106:	2b0ca503          	lw	a0,688(s9)
     10a:	049f 01f8 0286      	.insn	6, 0x028601f8049f
     110:	5c06                	lw	s8,96(sp)
     112:	935d0493          	addi	s1,s10,-1739
     116:	0404                	addi	s1,sp,512
     118:	0286                	slli	t0,t0,0x1
     11a:	0290                	addi	a2,sp,320
     11c:	a306                	.insn	2, 0xa306
     11e:	2b0ca503          	lw	a0,688(s9)
     122:	049f 0290 02be      	.insn	6, 0x02be0290049f
     128:	5c06                	lw	s8,96(sp)
     12a:	935d0493          	addi	s1,s10,-1739
     12e:	0404                	addi	s1,sp,512
     130:	02be                	slli	t0,t0,0xf
     132:	03ce                	slli	t2,t2,0x13
     134:	a306                	.insn	2, 0xa306
     136:	2b0ca503          	lw	a0,688(s9)
     13a:	049f 03ce 03e6      	.insn	6, 0x03e603ce049f
     140:	5c06                	lw	s8,96(sp)
     142:	935d0493          	addi	s1,s10,-1739
     146:	0404                	addi	s1,sp,512
     148:	03e6                	slli	t2,t2,0x19
     14a:	059a                	slli	a1,a1,0x6
     14c:	a306                	.insn	2, 0xa306
     14e:	2b0ca503          	lw	a0,688(s9)
     152:	049f 059a 05d6      	.insn	6, 0x05d6059a049f
     158:	5c06                	lw	s8,96(sp)
     15a:	935d0493          	addi	s1,s10,-1739
     15e:	0404                	addi	s1,sp,512
     160:	05d6                	slli	a1,a1,0x15
     162:	05da                	slli	a1,a1,0x16
     164:	a306                	.insn	2, 0xa306
     166:	2b0ca503          	lw	a0,688(s9)
     16a:	049f 05da 06a7      	.insn	6, 0x06a705da049f
     170:	5c06                	lw	s8,96(sp)
     172:	935d0493          	addi	s1,s10,-1739
     176:	0404                	addi	s1,sp,512
     178:	089806a7          	.insn	4, 0x089806a7
     17c:	a306                	.insn	2, 0xa306
     17e:	2b0ca503          	lw	a0,688(s9)
     182:	049f 0898 089e      	.insn	6, 0x089e0898049f
     188:	5c06                	lw	s8,96(sp)
     18a:	935d0493          	addi	s1,s10,-1739
     18e:	0004                	.insn	2, 0x0004
     190:	1b02                	slli	s6,s6,0x20
     192:	65612b1b          	.insn	4, 0x65612b1b
     196:	01af7e6b          	.insn	4, 0x01af7e6b
     19a:	01fc01bb          	.insn	4, 0x01fc01bb
     19e:	0292                	slli	t0,t0,0x4
     1a0:	02a80293          	addi	t0,a6,42
     1a4:	040003a3          	sb	zero,71(zero) # 47 <_start+0x47>
     1a8:	3200                	.insn	2, 0x3200
     1aa:	5a06                	lw	s4,96(sp)
     1ac:	935b0493          	addi	s1,s6,-1739 # 18935 <__data_load_start+0x180c5>
     1b0:	0404                	addi	s1,sp,512
     1b2:	6232                	.insn	2, 0x6232
     1b4:	5606                	lw	a2,96(sp)
     1b6:	935b0493          	addi	s1,s6,-1739
     1ba:	0404                	addi	s1,sp,512
     1bc:	01f8                	addi	a4,sp,204
     1be:	0286                	slli	t0,t0,0x1
     1c0:	5606                	lw	a2,96(sp)
     1c2:	93590493          	addi	s1,s2,-1739
     1c6:	0404                	addi	s1,sp,512
     1c8:	0290                	addi	a2,sp,320
     1ca:	02be                	slli	t0,t0,0xf
     1cc:	5606                	lw	a2,96(sp)
     1ce:	935b0493          	addi	s1,s6,-1739
     1d2:	0404                	addi	s1,sp,512
     1d4:	03ce                	slli	t2,t2,0x13
     1d6:	03ea                	slli	t2,t2,0x1a
     1d8:	5606                	lw	a2,96(sp)
     1da:	935b0493          	addi	s1,s6,-1739
     1de:	0404                	addi	s1,sp,512
     1e0:	059a                	slli	a1,a1,0x6
     1e2:	05d6                	slli	a1,a1,0x15
     1e4:	5606                	lw	a2,96(sp)
     1e6:	935b0493          	addi	s1,s6,-1739
     1ea:	0404                	addi	s1,sp,512
     1ec:	05da                	slli	a1,a1,0x16
     1ee:	068a                	slli	a3,a3,0x2
     1f0:	5606                	lw	a2,96(sp)
     1f2:	935b0493          	addi	s1,s6,-1739
     1f6:	0404                	addi	s1,sp,512
     1f8:	0898                	addi	a4,sp,80
     1fa:	089e                	slli	a7,a7,0x7
     1fc:	5606                	lw	a2,96(sp)
     1fe:	935b0493          	addi	s1,s6,-1739
     202:	0004                	.insn	2, 0x0004
     204:	1102                	slli	sp,sp,0x20
     206:	3511                	jal	a <_start+0xa>
     208:	6561                	lui	a0,0x18
     20a:	01af7e6b          	.insn	4, 0x01af7e6b
     20e:	01ba                	slli	gp,gp,0xe
     210:	01fc                	addi	a5,sp,204
     212:	0291                	addi	t0,t0,4 # 174004 <__data_load_start+0x173794>
     214:	029e0293          	addi	t0,t3,41
     218:	040003a3          	sb	zero,71(zero) # 47 <_start+0x47>
     21c:	1400                	addi	s0,sp,544
     21e:	5c06                	lw	s8,96(sp)
     220:	935d0493          	addi	s1,s10,-1739
     224:	0404                	addi	s1,sp,512
     226:	7114                	.insn	2, 0x7114
     228:	5c06                	lw	s8,96(sp)
     22a:	93550493          	addi	s1,a0,-1739 # 17935 <__data_load_start+0x170c5>
     22e:	0404                	addi	s1,sp,512
     230:	01f8                	addi	a4,sp,204
     232:	0286                	slli	t0,t0,0x1
     234:	5c06                	lw	s8,96(sp)
     236:	93550493          	addi	s1,a0,-1739
     23a:	0404                	addi	s1,sp,512
     23c:	0290                	addi	a2,sp,320
     23e:	02be                	slli	t0,t0,0xf
     240:	5c06                	lw	s8,96(sp)
     242:	93550493          	addi	s1,a0,-1739
     246:	0404                	addi	s1,sp,512
     248:	03ce                	slli	t2,t2,0x13
     24a:	03e6                	slli	t2,t2,0x19
     24c:	5c06                	lw	s8,96(sp)
     24e:	93550493          	addi	s1,a0,-1739
     252:	0404                	addi	s1,sp,512
     254:	059a                	slli	a1,a1,0x6
     256:	05d4                	addi	a3,sp,708
     258:	5c06                	lw	s8,96(sp)
     25a:	935d0493          	addi	s1,s10,-1739
     25e:	0404                	addi	s1,sp,512
     260:	05da                	slli	a1,a1,0x16
     262:	05f4                	addi	a3,sp,716
     264:	5c06                	lw	s8,96(sp)
     266:	935d0493          	addi	s1,s10,-1739
     26a:	0404                	addi	s1,sp,512
     26c:	0898                	addi	a4,sp,80
     26e:	089e                	slli	a7,a7,0x7
     270:	5c06                	lw	s8,96(sp)
     272:	935d0493          	addi	s1,s10,-1739
     276:	0004                	.insn	2, 0x0004
     278:	5f02                	lw	t5,32(sp)
     27a:	0061                	c.nop	24
     27c:	0004                	.insn	2, 0x0004
     27e:	01e8                	addi	a0,sp,204
     280:	3002                	.insn	2, 0x3002
     282:	049f 01f8 089e      	.insn	6, 0x089e01f8049f
     288:	3002                	.insn	2, 0x3002
     28a:	009f 230a 2623      	.insn	6, 0x2623230a009f
     290:	3526                	.insn	2, 0x3526
     292:	4135                	li	sp,13
     294:	4741                	li	a4,16
     296:	56545447          	.insn	4, 0x56545447
     29a:	5d56                	lw	s10,116(sp)
     29c:	6561                	lui	a0,0x18
     29e:	6b65                	lui	s6,0x19
     2a0:	887f746b          	.insn	4, 0x887f746b
     2a4:	8801                	andi	s0,s0,0
     2a6:	9501                	srai	a0,a0,0x20
     2a8:	9501                	srai	a0,a0,0x20
     2aa:	9b01                	andi	a4,a4,-32
     2ac:	9b01                	andi	a4,a4,-32
     2ae:	a801                	j	2be <__udivdi3+0x216>
     2b0:	a801                	j	2c0 <__udivdi3+0x218>
     2b2:	aa01                	j	3c2 <__udivdi3+0x31a>
     2b4:	aa01                	j	3c4 <__udivdi3+0x31c>
     2b6:	af01                	j	9c6 <__data_load_start+0x156>
     2b8:	af01                	j	9c8 <__data_load_start+0x158>
     2ba:	b401                	j	fffffcba <__stack_top+0xfdfffcba>
     2bc:	b801                	j	fffffacc <__stack_top+0xfdfffacc>
     2be:	cb01                	beqz	a4,2ce <__udivdi3+0x226>
     2c0:	cb01                	beqz	a4,2d0 <__udivdi3+0x228>
     2c2:	d701                	beqz	a4,1ca <__udivdi3+0x122>
     2c4:	d701                	beqz	a4,1cc <__udivdi3+0x124>
     2c6:	dc01                	beqz	s0,1de <__udivdi3+0x136>
     2c8:	dc01                	beqz	s0,1e0 <__udivdi3+0x138>
     2ca:	e701                	bnez	a4,2d2 <__udivdi3+0x22a>
     2cc:	e701                	bnez	a4,2d4 <__udivdi3+0x22c>
     2ce:	fc01                	bnez	s0,1e6 <__udivdi3+0x13e>
     2d0:	fc01                	bnez	s0,1e8 <__udivdi3+0x140>
     2d2:	9201                	srli	a2,a2,0x20
     2d4:	9302                	jalr	t1
     2d6:	a102                	.insn	2, 0xa102
     2d8:	a102                	.insn	2, 0xa102
     2da:	a302                	.insn	2, 0xa302
     2dc:	a302                	.insn	2, 0xa302
     2de:	a302                	.insn	2, 0xa302
     2e0:	0003a303          	lw	t1,0(t2)
     2e4:	0004                	.insn	2, 0x0004
     2e6:	0148                	addi	a0,sp,132
     2e8:	045c                	addi	a5,sp,516
     2ea:	5448                	lw	a0,44(s0)
     2ec:	7c09                	lui	s8,0xfffe2
     2ee:	7d00                	.insn	2, 0x7d00
     2f0:	0800                	addi	s0,sp,16
     2f2:	9f241aff 01715404 	.insn	12, 0xae71045e017154049f241aff
     2fa:	ae71045e 
     2fe:	0201                	addi	tp,tp,0 # 0 <_start>
     300:	6491                	lui	s1,0x4
     302:	ae04                	.insn	2, 0xae04
     304:	b301                	j	4 <_start+0x4>
     306:	0101                	addi	sp,sp,0
     308:	045e                	slli	s0,s0,0x17
     30a:	01de01b3          	add	gp,t3,t4
     30e:	9102                	jalr	sp
     310:	0460                	addi	s0,sp,524
     312:	01de                	slli	gp,gp,0x17
     314:	01e4                	addi	s1,sp,204
     316:	5e01                	li	t3,-32
     318:	e404                	.insn	2, 0xe404
     31a:	e801                	bnez	s0,32a <__udivdi3+0x282>
     31c:	0201                	addi	tp,tp,0 # 0 <_start>
     31e:	6091                	lui	ra,0x4
     320:	f804                	.insn	2, 0xf804
     322:	8601                	c.srai64	a2
     324:	0102                	c.slli64	sp
     326:	045c                	addi	a5,sp,516
     328:	0286                	slli	t0,t0,0x1
     32a:	0290                	addi	a2,sp,320
     32c:	5e01                	li	t3,-32
     32e:	9004                	.insn	2, 0x9004
     330:	9a02                	jalr	s4
     332:	0102                	c.slli64	sp
     334:	045c                	addi	a5,sp,516
     336:	02d0                	addi	a2,sp,324
     338:	02d5                	addi	t0,t0,21
     33a:	5e01                	li	t3,-32
     33c:	d504                	sw	s1,40(a0)
     33e:	9002                	ebreak
     340:	64910203          	lb	tp,1609(sp)
     344:	9004                	.insn	2, 0x9004
     346:	01039503          	lh	a0,16(t2)
     34a:	045e                	slli	s0,s0,0x17
     34c:	0395                	addi	t2,t2,5
     34e:	03c0                	addi	s0,sp,452
     350:	9102                	jalr	sp
     352:	0460                	addi	s0,sp,524
     354:	03c0                	addi	s0,sp,452
     356:	03c6                	slli	t2,t2,0x11
     358:	5e01                	li	t3,-32
     35a:	c604                	sw	s1,8(a2)
     35c:	0203ce03          	lbu	t3,32(t2)
     360:	6091                	lui	ra,0x4
     362:	ce04                	sw	s1,24(a2)
     364:	0103dc03          	lhu	s8,16(t2)
     368:	045c                	addi	a5,sp,516
     36a:	03e2                	slli	t2,t2,0x18
     36c:	048d                	addi	s1,s1,3 # 4003 <__data_load_start+0x3793>
     36e:	5e01                	li	t3,-32
     370:	8d04                	.insn	2, 0x8d04
     372:	c404                	sw	s1,8(s0)
     374:	0204                	addi	s1,sp,256
     376:	6891                	lui	a7,0x4
     378:	c404                	sw	s1,8(s0)
     37a:	c904                	sw	s1,16(a0)
     37c:	0104                	addi	s1,sp,128
     37e:	045e                	slli	s0,s0,0x17
     380:	04c9                	addi	s1,s1,18
     382:	04ee                	slli	s1,s1,0x1b
     384:	9102                	jalr	sp
     386:	0464                	addi	s1,sp,524
     388:	04ee                	slli	s1,s1,0x1b
     38a:	059a                	slli	a1,a1,0x6
     38c:	5e01                	li	t3,-32
     38e:	9a04                	.insn	2, 0x9a04
     390:	d605                	beqz	a2,2b8 <__udivdi3+0x210>
     392:	0105                	addi	sp,sp,1
     394:	045c                	addi	a5,sp,516
     396:	05da                	slli	a1,a1,0x16
     398:	05fc                	addi	a5,sp,716
     39a:	5c01                	li	s8,-32
     39c:	fc04                	.insn	2, 0xfc04
     39e:	8005                	srli	s0,s0,0x1
     3a0:	0106                	slli	sp,sp,0x1
     3a2:	045f 0680 0898      	.insn	6, 0x08980680045f
     3a8:	9102                	jalr	sp
     3aa:	0458                	addi	a4,sp,516
     3ac:	0898                	addi	a4,sp,80
     3ae:	089e                	slli	a7,a7,0x7
     3b0:	5c01                	li	s8,-32
     3b2:	0b00                	addi	s0,sp,400
     3b4:	1111                	addi	sp,sp,-28
     3b6:	3535                	jal	1e2 <__udivdi3+0x13a>
     3b8:	47473b3b          	.insn	4, 0x47473b3b
     3bc:	5050                	lw	a2,36(s0)
     3be:	615d                	addi	sp,sp,432
     3c0:	af7e                	.insn	2, 0xaf7e
     3c2:	cb01                	beqz	a4,3d2 <__udivdi3+0x32a>
     3c4:	fc01                	bnez	s0,2dc <__udivdi3+0x234>
     3c6:	9101                	srli	a0,a0,0x20
     3c8:	9302                	jalr	t1
     3ca:	9e02                	jalr	t3
     3cc:	9f02                	jalr	t5
     3ce:	b802                	.insn	2, 0xb802
     3d0:	b802                	.insn	2, 0xb802
     3d2:	c302                	sw	zero,132(sp)
     3d4:	c302                	sw	zero,132(sp)
     3d6:	c702                	sw	zero,140(sp)
     3d8:	c702                	sw	zero,140(sp)
     3da:	d602                	sw	zero,44(sp)
     3dc:	d602                	sw	zero,44(sp)
     3de:	d802                	sw	zero,48(sp)
     3e0:	d802                	sw	zero,48(sp)
     3e2:	9d02                	jalr	s10
     3e4:	00039d03          	lh	s10,0(t2)
     3e8:	0004                	.insn	2, 0x0004
     3ea:	0114                	addi	a3,sp,128
     3ec:	045d                	addi	s0,s0,23
     3ee:	7114                	.insn	2, 0x7114
     3f0:	5501                	li	a0,-32
     3f2:	7104                	.insn	2, 0x7104
     3f4:	0196                	slli	gp,gp,0x5
     3f6:	9102                	jalr	sp
     3f8:	0468                	addi	a0,sp,524
     3fa:	0196                	slli	gp,gp,0x5
     3fc:	550101b3          	.insn	4, 0x550101b3
     400:	b304                	.insn	2, 0xb304
     402:	d601                	beqz	a2,30a <__udivdi3+0x262>
     404:	0201                	addi	tp,tp,0 # 0 <_start>
     406:	6491                	lui	s1,0x4
     408:	d604                	sw	s1,40(a2)
     40a:	e801                	bnez	s0,41a <__udivdi3+0x372>
     40c:	0101                	addi	sp,sp,0
     40e:	0455                	addi	s0,s0,21
     410:	01f8                	addi	a4,sp,204
     412:	02be                	slli	t0,t0,0xf
     414:	5501                	li	a0,-32
     416:	ce04                	sw	s1,24(a2)
     418:	01048d03          	lb	s10,16(s1) # 4010 <__data_load_start+0x37a0>
     41c:	0455                	addi	s0,s0,21
     41e:	059a                	slli	a1,a1,0x6
     420:	05d4                	addi	a3,sp,708
     422:	5d01                	li	s10,-32
     424:	da04                	sw	s1,48(a2)
     426:	f405                	bnez	s0,34e <__udivdi3+0x2a6>
     428:	0105                	addi	sp,sp,1
     42a:	045d                	addi	s0,s0,23
     42c:	05f6                	slli	a1,a1,0x1d
     42e:	5d0106a7          	.insn	4, 0x5d0106a7
     432:	a704                	.insn	2, 0xa704
     434:	e406                	.insn	2, 0xe406
     436:	0206                	slli	tp,tp,0x1
     438:	6891                	lui	a7,0x4
     43a:	e404                	.insn	2, 0xe404
     43c:	e906                	.insn	2, 0xe906
     43e:	0106                	slli	sp,sp,0x1
     440:	045d                	addi	s0,s0,23
     442:	06e9                	addi	a3,a3,26
     444:	0796                	slli	a5,a5,0x5
     446:	9102                	jalr	sp
     448:	046c                	addi	a1,sp,524
     44a:	0796                	slli	a5,a5,0x5
     44c:	079c                	addi	a5,sp,960
     44e:	5d01                	li	s10,-32
     450:	9c04                	.insn	2, 0x9c04
     452:	02088c07          	.insn	4, 0x02088c07
     456:	6c91                	lui	s9,0x4
     458:	8c04                	.insn	2, 0x8c04
     45a:	9e08                	.insn	2, 0x9e08
     45c:	0108                	addi	a0,sp,128
     45e:	005d                	c.nop	23
     460:	1b0c                	addi	a1,sp,432
     462:	4a2d2d1b          	.insn	4, 0x4a2d2d1b
     466:	6561                	lui	a0,0x18
     468:	6965                	lui	s2,0x19
     46a:	9e7e7e6b          	.insn	4, 0x9e7e7e6b
     46e:	af01                	j	b7e <__data_load_start+0x30e>
     470:	c401                	beqz	s0,478 <__udivdi3+0x3d0>
     472:	c401                	beqz	s0,47a <__udivdi3+0x3d2>
     474:	fa01                	bnez	a2,384 <__udivdi3+0x2dc>
     476:	fc01                	bnez	s0,38e <__udivdi3+0x2e6>
     478:	9201                	srli	a2,a2,0x20
     47a:	9302                	jalr	t1
     47c:	ac02                	.insn	2, 0xac02
     47e:	a302                	.insn	2, 0xa302
     480:	00040003          	lb	zero,0(s0)
     484:	0132                	slli	sp,sp,0xc
     486:	045a                	slli	s0,s0,0x16
     488:	6c32                	.insn	2, 0x6c32
     48a:	5601                	li	a2,-32
     48c:	6c04                	.insn	2, 0x6c04
     48e:	01bc                	addi	a5,sp,200
     490:	5801                	li	a6,-32
     492:	f804                	.insn	2, 0xf804
     494:	8601                	c.srai64	a2
     496:	0102                	c.slli64	sp
     498:	0456                	slli	s0,s0,0x15
     49a:	0286                	slli	t0,t0,0x1
     49c:	028c                	addi	a1,sp,320
     49e:	5801                	li	a6,-32
     4a0:	9004                	.insn	2, 0x9004
     4a2:	be02                	.insn	2, 0xbe02
     4a4:	0102                	c.slli64	sp
     4a6:	0456                	slli	s0,s0,0x15
     4a8:	02be                	slli	t0,t0,0xf
     4aa:	039e                	slli	t2,t2,0x7
     4ac:	5801                	li	a6,-32
     4ae:	ce04                	sw	s1,24(a2)
     4b0:	01048c03          	lb	s8,16(s1)
     4b4:	0456                	slli	s0,s0,0x15
     4b6:	048c                	addi	a1,sp,576
     4b8:	0596                	slli	a1,a1,0x5
     4ba:	5801                	li	a6,-32
     4bc:	9a04                	.insn	2, 0x9a04
     4be:	d605                	beqz	a2,3e6 <__udivdi3+0x33e>
     4c0:	0105                	addi	sp,sp,1
     4c2:	0456                	slli	s0,s0,0x15
     4c4:	05da                	slli	a1,a1,0x16
     4c6:	0694                	addi	a3,sp,832
     4c8:	5601                	li	a2,-32
     4ca:	9804                	.insn	2, 0x9804
     4cc:	9e08                	.insn	2, 0x9e08
     4ce:	0108                	addi	a0,sp,128
     4d0:	0056                	c.slli	zero,0x15
     4d2:	280d                	jal	504 <__hidden___udivsi3+0x20>
     4d4:	2d28                	.insn	2, 0x2d28
     4d6:	352d                	jal	300 <__udivdi3+0x258>
     4d8:	4835                	li	a6,13
     4da:	6961                	lui	s2,0x18
     4dc:	7e7c7c6b          	.insn	4, 0x7e7c7c6b
     4e0:	af019c7f c301bb01 	.insn	12, 0xf001e001c301bb01af019c7f
     4e8:	f001e001 
     4ec:	f301                	bnez	a4,3ec <__udivdi3+0x344>
     4ee:	f601                	bnez	a2,3f6 <__udivdi3+0x34e>
     4f0:	fa01                	bnez	a2,400 <__udivdi3+0x358>
     4f2:	fc01                	bnez	s0,40a <__udivdi3+0x362>
     4f4:	9201                	srli	a2,a2,0x20
     4f6:	9302                	jalr	t1
     4f8:	a802                	.insn	2, 0xa802
     4fa:	ab02                	.insn	2, 0xab02
     4fc:	cb02                	sw	zero,148(sp)
     4fe:	e102                	.insn	2, 0xe102
     500:	9d02                	jalr	s10
     502:	a0039d03          	lh	s10,-1536(t2)
     506:	0003a303          	lw	t1,0(t2)
     50a:	0004                	.insn	2, 0x0004
     50c:	0156                	slli	sp,sp,0x15
     50e:	6c56045b          	.insn	4, 0x6c56045b
     512:	5901                	li	s2,-32
     514:	6c04                	.insn	2, 0x6c04
     516:	0171                	addi	sp,sp,28
     518:	045a                	slli	s0,s0,0x16
     51a:	b871                	j	fffffdb6 <__stack_top+0xfdfffdb6>
     51c:	0101                	addi	sp,sp,0
     51e:	0459                	addi	s0,s0,22
     520:	01f8                	addi	a4,sp,204
     522:	028c                	addi	a1,sp,320
     524:	5901                	li	s2,-32
     526:	9004                	.insn	2, 0x9004
     528:	bc02                	.insn	2, 0xbc02
     52a:	0102                	c.slli64	sp
     52c:	02bc045b          	.insn	4, 0x02bc045b
     530:	02be                	slli	t0,t0,0xf
     532:	5901                	li	s2,-32
     534:	d004                	sw	s1,32(s0)
     536:	9a02                	jalr	s4
     538:	04590103          	lb	sp,69(s2) # 18045 <__data_load_start+0x177d5>
     53c:	03ce                	slli	t2,t2,0x13
     53e:	03ea                	slli	t2,t2,0x1a
     540:	5b01                	li	s6,-32
     542:	8c04                	.insn	2, 0x8c04
     544:	d204                	sw	s1,32(a2)
     546:	0104                	addi	s1,sp,128
     548:	0459                	addi	s0,s0,22
     54a:	0584                	addi	s1,sp,704
     54c:	058a                	slli	a1,a1,0x2
     54e:	5901                	li	s2,-32
     550:	9004                	.insn	2, 0x9004
     552:	9605                	srai	a2,a2,0x21
     554:	0105                	addi	sp,sp,1
     556:	0459                	addi	s0,s0,22
     558:	059a                	slli	a1,a1,0x6
     55a:	05d6                	slli	a1,a1,0x15
     55c:	5b01                	li	s6,-32
     55e:	da04                	sw	s1,48(a2)
     560:	8a05                	andi	a2,a2,1
     562:	0106                	slli	sp,sp,0x1
     564:	0694045b          	.insn	4, 0x0694045b
     568:	06f2                	slli	a3,a3,0x1c
     56a:	5901                	li	s2,-32
     56c:	b204                	.insn	2, 0xb204
     56e:	01088c07          	.insn	4, 0x01088c07
     572:	088c0457          	.insn	4, 0x088c0457
     576:	0892                	slli	a7,a7,0x4
     578:	5901                	li	s2,-32
     57a:	9804                	.insn	2, 0x9804
     57c:	9e08                	.insn	2, 0x9e08
     57e:	0108                	addi	a0,sp,128
     580:	01c2005b          	.insn	4, 0x01c2005b
     584:	01cb01cb          	.insn	4, 0x01cb01cb
     588:	01d9                	addi	gp,gp,22 # 1000816 <__global_pointer$+0x16>
     58a:	01f0                	addi	a2,sp,204
     58c:	02a401f3          	.insn	4, 0x02a401f3
     590:	02a6                	slli	t0,t0,0x9
     592:	02a6                	slli	t0,t0,0x9
     594:	02c4                	addi	s1,sp,324
     596:	039d                	addi	t2,t2,7
     598:	03a0                	addi	s0,sp,456
     59a:	8c04                	.insn	2, 0x8c04
     59c:	8d04                	.insn	2, 0x8d04
     59e:	0104                	addi	s1,sp,128
     5a0:	045a                	slli	s0,s0,0x16
     5a2:	048d                	addi	s1,s1,3
     5a4:	04c8                	addi	a0,sp,580
     5a6:	9102                	jalr	sp
     5a8:	0458                	addi	a4,sp,516
     5aa:	0584                	addi	s1,sp,704
     5ac:	058a                	slli	a1,a1,0x2
     5ae:	9102                	jalr	sp
     5b0:	0458                	addi	a4,sp,516
     5b2:	0682                	c.slli64	a3
     5b4:	0686                	slli	a3,a3,0x1
     5b6:	5f01                	li	t5,-32
     5b8:	8604                	.insn	2, 0x8604
     5ba:	e806                	.insn	2, 0xe806
     5bc:	0206                	slli	tp,tp,0x1
     5be:	5c91                	li	s9,-28
     5c0:	8c04                	.insn	2, 0x8c04
     5c2:	9208                	.insn	2, 0x9208
     5c4:	0208                	addi	a0,sp,256
     5c6:	5c91                	li	s9,-28
     5c8:	5900                	lw	s0,48(a0)
     5ca:	ad5f af01 e001      	.insn	6, 0xe001af01ad5f
     5d0:	9d02                	jalr	s10
     5d2:	01e80403          	lb	s0,30(a6)
     5d6:	01e8                	addi	a0,sp,204
     5d8:	5f01                	li	t5,-32
     5da:	cc04                	sw	s1,24(s0)
     5dc:	0103ce03          	lbu	t3,16(t2)
     5e0:	045f 07b2 088c      	.insn	6, 0x088c07b2045f
     5e6:	5f01                	li	t5,-32
     5e8:	5d00                	lw	s0,56(a0)
     5ea:	7d5f 7f7e 0188      	.insn	6, 0x01887f7e7d5f
     5f0:	0188                	addi	a0,sp,192
     5f2:	0194                	addi	a3,sp,192
     5f4:	0194                	addi	a3,sp,192
     5f6:	019b019b          	.insn	4, 0x019b019b
     5fa:	01a4                	addi	s1,sp,200
     5fc:	01a4                	addi	s1,sp,200
     5fe:	01ef01af          	.insn	4, 0x01ef01af
     602:	01f0                	addi	a2,sp,204
     604:	01f6                	slli	gp,gp,0x1d
     606:	01fc                	addi	a5,sp,204
     608:	e804                	.insn	2, 0xe804
     60a:	e801                	bnez	s0,61a <gpio_clear_pin+0x20>
     60c:	0101                	addi	sp,sp,0
     60e:	0455                	addi	s0,s0,21
     610:	02bc                	addi	a5,sp,328
     612:	02be                	slli	t0,t0,0xf
     614:	3102                	.insn	2, 0x3102
     616:	049f 02d0 02d5      	.insn	6, 0x02d502d0049f
     61c:	5501                	li	a0,-32
     61e:	d504                	sw	s1,40(a0)
     620:	8e02                	jr	t3
     622:	68910203          	lb	tp,1673(sp)
     626:	8e04                	.insn	2, 0x8e04
     628:	01039503          	lh	a0,16(t2)
     62c:	0455                	addi	s0,s0,21
     62e:	0395                	addi	t2,t2,5
     630:	03b8                	addi	a4,sp,456
     632:	9102                	jalr	sp
     634:	0464                	addi	s1,sp,524
     636:	03b8                	addi	a4,sp,456
     638:	03ce                	slli	t2,t2,0x13
     63a:	5501                	li	a0,-32
     63c:	8204                	.insn	2, 0x8204
     63e:	8405                	srai	s0,s0,0x1
     640:	0105                	addi	sp,sp,1
     642:	0455                	addi	s0,s0,21
     644:	0590                	addi	a2,sp,704
     646:	059a                	slli	a1,a1,0x6
     648:	5501                	li	a0,-32
     64a:	b600                	.insn	2, 0xb600
     64c:	bc01                	j	5c <_start+0x5c>
     64e:	9b01                	andi	a4,a4,-32
     650:	a902                	.insn	2, 0xa902
     652:	0402                	c.slli64	s0
     654:	03de                	slli	t2,t2,0x17
     656:	03ee                	slli	t2,t2,0x1b
     658:	5f01                	li	t5,-32
     65a:	ec04                	.insn	2, 0xec04
     65c:	8e05                	sub	a2,a2,s1
     65e:	0106                	slli	sp,sp,0x1
     660:	005e                	c.slli	zero,0x17
     662:	211c                	.insn	2, 0x211c
     664:	2a21                	jal	77c <__clz_tab+0xc>
     666:	7e76                	.insn	2, 0x7e76
     668:	01b4                	addi	a3,sp,200
     66a:	01bc                	addi	a5,sp,200
     66c:	0289                	addi	t0,t0,2
     66e:	0292                	slli	t0,t0,0x4
     670:	0298                	addi	a4,sp,320
     672:	02a9                	addi	t0,t0,10
     674:	3e04                	.insn	2, 0x3e04
     676:	0648                	addi	a0,sp,772
     678:	2008                	.insn	2, 0x2008
     67a:	007f 9f1c 4804 015a 	.insn	10, 0x045d015a48049f1c007f
     682:	045d 
     684:	02b0                	addi	a2,sp,328
     686:	02be                	slli	t0,t0,0xf
     688:	0806                	slli	a6,a6,0x1
     68a:	7f20                	.insn	2, 0x7f20
     68c:	1c00                	addi	s0,sp,560
     68e:	049f 03dc 03ee      	.insn	6, 0x03ee03dc049f
     694:	0806                	slli	a6,a6,0x1
     696:	7f20                	.insn	2, 0x7f20
     698:	1c00                	addi	s0,sp,560
     69a:	049f 05c4 05d6      	.insn	6, 0x05d605c4049f
     6a0:	0806                	slli	a6,a6,0x1
     6a2:	7e20                	.insn	2, 0x7e20
     6a4:	1c00                	addi	s0,sp,560
     6a6:	049f 05e8 068e      	.insn	6, 0x068e05e8049f
     6ac:	0806                	slli	a6,a6,0x1
     6ae:	7e20                	.insn	2, 0x7e20
     6b0:	1c00                	addi	s0,sp,560
     6b2:	009f 2317 2623      	.insn	6, 0x26232317009f
     6b8:	3526                	.insn	2, 0x3526
     6ba:	4135                	li	sp,13
     6bc:	4741                	li	a4,16
     6be:	56545447          	.insn	4, 0x56545447
     6c2:	5d56                	lw	s10,116(sp)
     6c4:	6561                	lui	a0,0x18
     6c6:	6b65                	lui	s6,0x19
     6c8:	2404                	.insn	2, 0x2404
     6ca:	0148                	addi	a0,sp,132
     6cc:	045c                	addi	a5,sp,516
     6ce:	5448                	lw	a0,44(s0)
     6d0:	7c09                	lui	s8,0xfffe2
     6d2:	7d00                	.insn	2, 0x7d00
     6d4:	0800                	addi	s0,sp,16
     6d6:	9f241aff 01715404 	.insn	12, 0xae71045e017154049f241aff
     6de:	ae71045e 
     6e2:	0201                	addi	tp,tp,0 # 0 <_start>
     6e4:	6491                	lui	s1,0x4
     6e6:	ae04                	.insn	2, 0xae04
     6e8:	b301                	j	3e8 <__udivdi3+0x340>
     6ea:	0101                	addi	sp,sp,0
     6ec:	045e                	slli	s0,s0,0x17
     6ee:	01de01b3          	add	gp,t3,t4
     6f2:	9102                	jalr	sp
     6f4:	0460                	addi	s0,sp,524
     6f6:	01de                	slli	gp,gp,0x17
     6f8:	01e4                	addi	s1,sp,204
     6fa:	5e01                	li	t3,-32
     6fc:	e404                	.insn	2, 0xe404
     6fe:	e801                	bnez	s0,70e <irq_register+0x1a>
     700:	0201                	addi	tp,tp,0 # 0 <_start>
     702:	6091                	lui	ra,0x4
     704:	f804                	.insn	2, 0xf804
     706:	8601                	c.srai64	a2
     708:	0102                	c.slli64	sp
     70a:	045c                	addi	a5,sp,516
     70c:	0286                	slli	t0,t0,0x1
     70e:	0290                	addi	a2,sp,320
     710:	5e01                	li	t3,-32
     712:	1b00                	addi	s0,sp,432
     714:	041c                	addi	a5,sp,512
     716:	3e32                	.insn	2, 0x3e32
     718:	5f01                	li	t5,-32
     71a:	3200                	.insn	2, 0x3200
     71c:	3535                	jal	548 <__modsi3+0x14>
     71e:	655d                	lui	a0,0x17
     720:	716c046b          	.insn	4, 0x716c046b
     724:	5b01                	li	s6,-32
     726:	7104                	.insn	2, 0x7104
     728:	01e8                	addi	a0,sp,204
     72a:	7202                	.insn	2, 0x7202
     72c:	0400                	addi	s0,sp,512
     72e:	0286                	slli	t0,t0,0x1
     730:	0290                	addi	a2,sp,320
     732:	7202                	.insn	2, 0x7202
     734:	0000                	unimp
     736:	4b353533          	.insn	4, 0x4b353533
     73a:	5654544b          	.insn	4, 0x5654544b
     73e:	5d56                	lw	s10,116(sp)
     740:	6965                	lui	s2,0x19
     742:	6b69                	lui	s6,0x1a
     744:	7004                	.insn	2, 0x7004
     746:	0171                	addi	sp,sp,28
     748:	045f c271 0201      	.insn	6, 0x0201c271045f
     74e:	5891                	li	a7,-28
     750:	c204                	sw	s1,0(a2)
     752:	de01                	beqz	a2,66a <gpio_int_clear+0xa>
     754:	0801                	addi	a6,a6,0
     756:	6091                	lui	ra,0x4
     758:	4006                	.insn	2, 0x4006
     75a:	4024                	lw	s1,64(s0)
     75c:	9f25                	.insn	2, 0x9f25
     75e:	de04                	sw	s1,56(a2)
     760:	e401                	bnez	s0,768 <irq_trap_dispatch+0x22>
     762:	0701                	addi	a4,a4,0 # 1742b0ca <__stack_top+0x1542b0ca>
     764:	007e                	c.slli	zero,0x1f
     766:	2440                	.insn	2, 0x2440
     768:	2540                	.insn	2, 0x2540
     76a:	049f 01e4 01e8      	.insn	6, 0x01e801e4049f
     770:	9108                	.insn	2, 0x9108
     772:	0660                	addi	s0,sp,780
     774:	2440                	.insn	2, 0x2440
     776:	2540                	.insn	2, 0x2540
     778:	049f 0286 028c      	.insn	6, 0x028c0286049f
     77e:	9102                	jalr	sp
     780:	0458                	addi	a4,sp,516
     782:	028c                	addi	a1,sp,320
     784:	0290                	addi	a2,sp,320
     786:	40007e07          	.insn	4, 0x40007e07
     78a:	4024                	lw	s1,64(s0)
     78c:	9f25                	.insn	2, 0x9f25
     78e:	3500                	.insn	2, 0x3500
     790:	3636                	.insn	2, 0x3636
     792:	3c3c3737          	lui	a4,0x3c3c3
     796:	4340                	lw	s0,4(a4)
     798:	655d                	lui	a0,0x17
     79a:	046b6767          	.insn	4, 0x046b6767
     79e:	f872                	.insn	2, 0xf872
     7a0:	0100                	addi	s0,sp,128
     7a2:	045a                	slli	s0,s0,0x16
     7a4:	00f8                	addi	a4,sp,76
     7a6:	00f9                	addi	ra,ra,30 # 401e <__data_load_start+0x37ae>
     7a8:	5b01                	li	s6,-32
     7aa:	f904                	.insn	2, 0xf904
     7ac:	9600                	.insn	2, 0x9600
     7ae:	0201                	addi	tp,tp,0 # 0 <_start>
     7b0:	6091                	lui	ra,0x4
     7b2:	9604                	.insn	2, 0x9604
     7b4:	a201                	j	8b4 <__data_load_start+0x44>
     7b6:	0601                	addi	a2,a2,0
     7b8:	6091                	lui	ra,0x4
     7ba:	3106                	.insn	2, 0x3106
     7bc:	9f1c                	.insn	2, 0x9f1c
     7be:	b204                	.insn	2, 0xb204
     7c0:	e801                	bnez	s0,7d0 <__clz_tab+0x60>
     7c2:	0201                	addi	tp,tp,0 # 0 <_start>
     7c4:	6891                	lui	a7,0x4
     7c6:	8604                	.insn	2, 0x8604
     7c8:	8802                	jr	a6
     7ca:	0302                	c.slli64	t1
     7cc:	7f7f                	.insn	2, 0x7f7f
     7ce:	049f 0288 0290      	.insn	6, 0x02900288049f
     7d4:	5f01                	li	t5,-32
     7d6:	4800                	lw	s0,16(s0)
     7d8:	5151                	li	sp,-12
     7da:	5656                	lw	a2,116(sp)
     7dc:	695d                	lui	s2,0x17
     7de:	6a6a                	.insn	2, 0x6a6a
     7e0:	01b8046b          	.insn	4, 0x01b8046b
     7e4:	01d6                	slli	gp,gp,0x15
     7e6:	5901                	li	s2,-32
     7e8:	d604                	sw	s1,40(a2)
     7ea:	e401                	bnez	s0,7f2 <__clz_tab+0x82>
     7ec:	0301                	addi	t1,t1,0
     7ee:	7f79                	lui	t5,0xffffe
     7f0:	049f 01e4 01e8      	.insn	6, 0x01e801e4049f
     7f6:	5901                	li	s2,-32
     7f8:	8c04                	.insn	2, 0x8c04
     7fa:	8e02                	jr	t3
     7fc:	0302                	c.slli64	t1
     7fe:	7f79                	lui	t5,0xffffe
     800:	049f 028e 0290      	.insn	6, 0x0290028e049f
     806:	9f017903          	.insn	4, 0x9f017903
     80a:	3400                	.insn	2, 0x3400
     80c:	3535                	jal	638 <gpio_toggle_pin+0x1c>
     80e:	3a3a                	.insn	2, 0x3a3a
     810:	4340                	lw	s0,4(a4)
     812:	4444                	lw	s1,12(s0)
     814:	655d4747          	.insn	4, 0x655d4747
     818:	6868                	.insn	2, 0x6868
     81a:	6969                	lui	s2,0x1a
     81c:	7170046b          	.insn	4, 0x7170046b
     820:	7a06                	.insn	2, 0x7a06
     822:	7b00                	.insn	2, 0x7b00
     824:	1d00                	addi	s0,sp,688
     826:	049f 8c71 0701      	.insn	6, 0x07018c71049f
     82c:	0079                	c.nop	30
     82e:	0072                	c.slli	zero,0x1c
     830:	1d06                	slli	s10,s10,0x21
     832:	049f 018c 01a2      	.insn	6, 0x01a2018c049f
     838:	5d01                	li	s10,-32
     83a:	b204                	.insn	2, 0xb204
     83c:	b201                	j	13c <__udivdi3+0x94>
     83e:	0101                	addi	sp,sp,0
     840:	045d                	addi	s0,s0,23
     842:	01b2                	slli	gp,gp,0xc
     844:	5a0101b3          	.insn	4, 0x5a0101b3
     848:	b304                	.insn	2, 0xb304
     84a:	e801                	bnez	s0,85a <__clz_tab+0xea>
     84c:	0201                	addi	tp,tp,0 # 0 <_start>
     84e:	5c91                	li	s9,-28
     850:	8604                	.insn	2, 0x8604
     852:	8a02                	jr	s4
     854:	0102                	c.slli64	sp
     856:	045d                	addi	s0,s0,23
     858:	028a                	slli	t0,t0,0x2
     85a:	028c                	addi	a1,sp,320
     85c:	4000780b          	.insn	4, 0x4000780b
     860:	7a25                	lui	s4,0xfffe9
     862:	2100                	.insn	2, 0x2100
     864:	007e                	c.slli	zero,0x1f
     866:	9f22                	add	t5,t5,s0
     868:	8c04                	.insn	2, 0x8c04
     86a:	9002                	ebreak
     86c:	0202                	c.slli64	tp
     86e:	5c91                	li	s9,-28
     870:	4500                	lw	s0,8(a0)
     872:	4e4e4747          	.insn	4, 0x4e4e4747
     876:	6956                	.insn	2, 0x6956
     878:	6a6a                	.insn	2, 0x6a6a
     87a:	01b2046b          	.insn	4, 0x01b2046b
     87e:	7a0601b3          	.insn	4, 0x7a0601b3
     882:	7b00                	.insn	2, 0x7b00
     884:	1d00                	addi	s0,sp,688
     886:	049f 01b3 01ce      	.insn	6, 0x01ce01b3049f
     88c:	9108                	.insn	2, 0x9108
     88e:	065c                	addi	a5,sp,772
     890:	0072                	c.slli	zero,0x1c
     892:	1d06                	slli	s10,s10,0x21
     894:	049f 01ce 01e4      	.insn	6, 0x01e401ce049f
     89a:	5801                	li	a6,-32
     89c:	8c04                	.insn	2, 0x8c04
     89e:	8e02                	jr	t3
     8a0:	0102                	c.slli64	sp
     8a2:	0458                	addi	a4,sp,516
     8a4:	028e                	slli	t0,t0,0x3
     8a6:	0290                	addi	a2,sp,320
     8a8:	7e06                	.insn	2, 0x7e06
     8aa:	7800                	.insn	2, 0x7800
     8ac:	2200                	.insn	2, 0x2200
     8ae:	009f 3938 4239      	.insn	6, 0x42393938009f
     8b4:	4742                	lw	a4,16(sp)
     8b6:	5d4d4d4b          	.insn	4, 0x5d4d4d4b
     8ba:	6965                	lui	s2,0x19
     8bc:	6b69                	lui	s6,0x1a
     8be:	fe04                	.insn	2, 0xfe04
     8c0:	8000                	.insn	2, 0x8000
     8c2:	0101                	addi	sp,sp,0
     8c4:	045a                	slli	s0,s0,0x16
     8c6:	0180                	addi	s0,sp,192
     8c8:	01b0                	addi	a2,sp,200
     8ca:	9102                	jalr	sp
     8cc:	045c                	addi	a5,sp,516
     8ce:	01b0                	addi	a2,sp,200
     8d0:	5c0101b3          	.insn	4, 0x5c0101b3
     8d4:	c204                	sw	s1,0(a2)
     8d6:	c601                	beqz	a2,8de <__data_load_start+0x6e>
     8d8:	0101                	addi	sp,sp,0
     8da:	045a                	slli	s0,s0,0x16
     8dc:	01c6                	slli	gp,gp,0x11
     8de:	01e8                	addi	a0,sp,204
     8e0:	9102                	jalr	sp
     8e2:	0458                	addi	a4,sp,516
     8e4:	0286                	slli	t0,t0,0x1
     8e6:	028c                	addi	a1,sp,320
     8e8:	5c01                	li	s8,-32
     8ea:	8c04                	.insn	2, 0x8c04
     8ec:	9002                	ebreak
     8ee:	0102                	c.slli64	sp
     8f0:	005d                	c.nop	23
     8f2:	7471                	lui	s0,0xffffc
     8f4:	01b401af          	.insn	4, 0x01b401af
     8f8:	9404                	.insn	2, 0x9404
     8fa:	9a02                	jalr	s4
     8fc:	0102                	c.slli64	sp
     8fe:	045c                	addi	a5,sp,516
     900:	03ce                	slli	t2,t2,0x13
     902:	03dc                	addi	a5,sp,452
     904:	5c01                	li	s8,-32
     906:	7500                	.insn	2, 0x7500
     908:	0476                	slli	s0,s0,0x1d
     90a:	02a4                	addi	s1,sp,328
     90c:	02b0                	addi	a2,sp,328
     90e:	5f01                	li	t5,-32
     910:	8500                	.insn	2, 0x8500
     912:	8801                	andi	s0,s0,0
     914:	8801                	andi	s0,s0,0
     916:	af01                	j	1026 <__data_load_start+0x7b6>
     918:	f601                	bnez	a2,820 <__clz_tab+0xb0>
     91a:	fc01                	bnez	s0,832 <__clz_tab+0xc2>
     91c:	0401                	addi	s0,s0,0 # ffffc000 <__stack_top+0xfdffc000>
     91e:	02d0                	addi	a2,sp,324
     920:	02d5                	addi	t0,t0,21
     922:	5b01                	li	s6,-32
     924:	d504                	sw	s1,40(a0)
     926:	ce02                	sw	zero,28(sp)
     928:	00720203          	lb	tp,7(tp) # 7 <_start+0x7>
     92c:	9004                	.insn	2, 0x9004
     92e:	9a05                	andi	a2,a2,-31
     930:	0205                	addi	tp,tp,1 # 1 <_start+0x1>
     932:	0072                	c.slli	zero,0x1c
     934:	8600                	.insn	2, 0x8600
     936:	8801                	andi	s0,s0,0
     938:	8801                	andi	s0,s0,0
     93a:	9f01                	.insn	2, 0x9f01
     93c:	9f01                	.insn	2, 0x9f01
     93e:	a801                	j	94e <__data_load_start+0xde>
     940:	a801                	j	950 <__data_load_start+0xe0>
     942:	aa01                	j	a52 <__data_load_start+0x1e2>
     944:	aa01                	j	a54 <__data_load_start+0x1e4>
     946:	af01                	j	1056 <__data_load_start+0x7e6>
     948:	f601                	bnez	a2,850 <__clz_tab+0xe0>
     94a:	fa01                	bnez	a2,85a <__clz_tab+0xea>
     94c:	fa01                	bnez	a2,85c <__clz_tab+0xec>
     94e:	fc01                	bnez	s0,866 <__clz_tab+0xf6>
     950:	0401                	addi	s0,s0,0
     952:	02d4                	addi	a3,sp,324
     954:	02d5                	addi	t0,t0,21
     956:	5f01                	li	t5,-32
     958:	d504                	sw	s1,40(a0)
     95a:	a402                	.insn	2, 0xa402
     95c:	58910203          	lb	tp,1417(sp)
     960:	a404                	.insn	2, 0xa404
     962:	0803c003          	lbu	zero,128(t2)
     966:	6091                	lui	ra,0x4
     968:	4006                	.insn	2, 0x4006
     96a:	4024                	lw	s1,64(s0)
     96c:	9f25                	.insn	2, 0x9f25
     96e:	c004                	sw	s1,0(s0)
     970:	0703c603          	lbu	a2,112(t2)
     974:	007e                	c.slli	zero,0x1f
     976:	2440                	.insn	2, 0x2440
     978:	2540                	.insn	2, 0x2540
     97a:	049f 03c6 03ce      	.insn	6, 0x03ce03c6049f
     980:	9108                	.insn	2, 0x9108
     982:	0660                	addi	s0,sp,780
     984:	2440                	.insn	2, 0x2440
     986:	2540                	.insn	2, 0x2540
     988:	049f 0590 0596      	.insn	6, 0x05960590049f
     98e:	9102                	jalr	sp
     990:	0458                	addi	a4,sp,516
     992:	0596                	slli	a1,a1,0x5
     994:	059a                	slli	a1,a1,0x6
     996:	40007e07          	.insn	4, 0x40007e07
     99a:	4024                	lw	s1,64(s0)
     99c:	9f25                	.insn	2, 0x9f25
     99e:	8800                	.insn	2, 0x8800
     9a0:	8901                	andi	a0,a0,0
     9a2:	8901                	andi	a0,a0,0
     9a4:	8a01                	andi	a2,a2,0
     9a6:	8a01                	andi	a2,a2,0
     9a8:	8f01                	sub	a4,a4,s0
     9aa:	8f01                	sub	a4,a4,s0
     9ac:	9301                	srli	a4,a4,0x20
     9ae:	9701                	srai	a4,a4,0x20
     9b0:	9b01                	andi	a4,a4,-32
     9b2:	9b01                	andi	a4,a4,-32
     9b4:	af01                	j	10c4 <__data_load_start+0x854>
     9b6:	f601                	bnez	a2,8be <__data_load_start+0x4e>
     9b8:	f801                	bnez	s0,8c8 <__data_load_start+0x58>
     9ba:	f801                	bnez	s0,8ca <__data_load_start+0x5a>
     9bc:	fc01                	bnez	s0,8d4 <__data_load_start+0x64>
     9be:	0401                	addi	s0,s0,0
     9c0:	02d6                	slli	t0,t0,0x15
     9c2:	02dc                	addi	a5,sp,324
     9c4:	5a01                	li	s4,-32
     9c6:	dc04                	sw	s1,56(s0)
     9c8:	dd02                	sw	zero,184(sp)
     9ca:	0102                	c.slli64	sp
     9cc:	02dd045b          	.insn	4, 0x02dd045b
     9d0:	02fa                	slli	t0,t0,0x1e
     9d2:	9102                	jalr	sp
     9d4:	0460                	addi	s0,sp,524
     9d6:	02fa                	slli	t0,t0,0x1e
     9d8:	0386                	slli	t2,t2,0x1
     9da:	9106                	add	sp,sp,ra
     9dc:	0660                	addi	s0,sp,780
     9de:	1c31                	addi	s8,s8,-20 # fffe1fec <__stack_top+0xfdfe1fec>
     9e0:	049f 0394 0395      	.insn	6, 0x03950394049f
     9e6:	5d01                	li	s10,-32
     9e8:	9504                	.insn	2, 0x9504
     9ea:	0203ce03          	lbu	t3,32(t2)
     9ee:	6891                	lui	a7,0x4
     9f0:	9004                	.insn	2, 0x9004
     9f2:	9205                	srli	a2,a2,0x21
     9f4:	0305                	addi	t1,t1,1
     9f6:	7f7d                	lui	t5,0xfffff
     9f8:	049f 0592 059a      	.insn	6, 0x059a0592049f
     9fe:	5d01                	li	s10,-32
     a00:	9c00                	.insn	2, 0x9c00
     a02:	a501                	j	1002 <__data_load_start+0x792>
     a04:	a501                	j	1004 <__data_load_start+0x794>
     a06:	aa01                	j	b16 <__data_load_start+0x2a6>
     a08:	aa01                	j	b18 <__data_load_start+0x2a8>
     a0a:	af01                	j	111a <__data_load_start+0x8aa>
     a0c:	fa01                	bnez	a2,91c <__data_load_start+0xac>
     a0e:	fb01                	bnez	a4,91e <__data_load_start+0xae>
     a10:	fb01                	bnez	a4,920 <__data_load_start+0xb0>
     a12:	fc01                	bnez	s0,92a <__data_load_start+0xba>
     a14:	0401                	addi	s0,s0,0
     a16:	039a                	slli	t2,t2,0x6
     a18:	03b8                	addi	a4,sp,456
     a1a:	5901                	li	s2,-32
     a1c:	b804                	.insn	2, 0xb804
     a1e:	0303c603          	lbu	a2,48(t2)
     a22:	7f79                	lui	t5,0xffffe
     a24:	049f 03c6 03ce      	.insn	6, 0x03ce03c6049f
     a2a:	5901                	li	s2,-32
     a2c:	9604                	.insn	2, 0x9604
     a2e:	9805                	andi	s0,s0,-31
     a30:	0305                	addi	t1,t1,1
     a32:	7f79                	lui	t5,0xffffe
     a34:	049f 0598 059a      	.insn	6, 0x059a0598049f
     a3a:	9f017903          	.insn	4, 0x9f017903
     a3e:	8700                	.insn	2, 0x8700
     a40:	8801                	andi	s0,s0,0
     a42:	8801                	andi	s0,s0,0
     a44:	8d01                	sub	a0,a0,s0
     a46:	8d01                	sub	a0,a0,s0
     a48:	9301                	srli	a4,a4,0x20
     a4a:	9801                	andi	s0,s0,-32
     a4c:	9b01                	andi	a4,a4,-32
     a4e:	9b01                	andi	a4,a4,-32
     a50:	af01                	j	1160 <__data_load_start+0x8f0>
     a52:	f601                	bnez	a2,95a <__data_load_start+0xea>
     a54:	f901                	bnez	a0,964 <__data_load_start+0xf4>
     a56:	f901                	bnez	a0,966 <__data_load_start+0xf6>
     a58:	fa01                	bnez	a2,968 <__data_load_start+0xf8>
     a5a:	fa01                	bnez	a2,96a <__data_load_start+0xfa>
     a5c:	fc01                	bnez	s0,974 <__data_load_start+0x104>
     a5e:	0401                	addi	s0,s0,0
     a60:	02d4                	addi	a3,sp,324
     a62:	02d5                	addi	t0,t0,21
     a64:	7906                	.insn	2, 0x7906
     a66:	7b00                	.insn	2, 0x7b00
     a68:	1d00                	addi	s0,sp,688
     a6a:	049f 02d5 02f0      	.insn	6, 0x02f002d5049f
     a70:	72007907          	.insn	4, 0x72007907
     a74:	0600                	addi	s0,sp,768
     a76:	9f1d                	.insn	2, 0x9f1d
     a78:	f004                	.insn	2, 0xf004
     a7a:	8602                	jr	a2
     a7c:	045f0103          	lb	sp,69(t5) # ffffe045 <__stack_top+0xfdffe045>
     a80:	0394                	addi	a3,sp,448
     a82:	0395                	addi	t2,t2,5
     a84:	5a01                	li	s4,-32
     a86:	9504                	.insn	2, 0x9504
     a88:	0203ce03          	lbu	t3,32(t2)
     a8c:	5c91                	li	s9,-28
     a8e:	9004                	.insn	2, 0x9004
     a90:	9405                	srai	s0,s0,0x21
     a92:	0105                	addi	sp,sp,1
     a94:	045f 0594 0596      	.insn	6, 0x05960594045f
     a9a:	4000780b          	.insn	4, 0x4000780b
     a9e:	7a25                	lui	s4,0xfffe9
     aa0:	2100                	.insn	2, 0x2100
     aa2:	007e                	c.slli	zero,0x1f
     aa4:	9f22                	add	t5,t5,s0
     aa6:	9604                	.insn	2, 0x9604
     aa8:	9a05                	andi	a2,a2,-31
     aaa:	0205                	addi	tp,tp,1 # 1 <_start+0x1>
     aac:	5c91                	li	s9,-28
     aae:	9900                	.insn	2, 0x9900
     ab0:	9b01                	andi	a4,a4,-32
     ab2:	9b01                	andi	a4,a4,-32
     ab4:	a201                	j	bb4 <__data_load_start+0x344>
     ab6:	a201                	j	bb6 <__data_load_start+0x346>
     ab8:	aa01                	j	bc8 <__data_load_start+0x358>
     aba:	fa01                	bnez	a2,9ca <__data_load_start+0x15a>
     abc:	fb01                	bnez	a4,9cc <__data_load_start+0x15c>
     abe:	fb01                	bnez	a4,9ce <__data_load_start+0x15e>
     ac0:	fc01                	bnez	s0,9d8 <__data_load_start+0x168>
     ac2:	0401                	addi	s0,s0,0
     ac4:	0394                	addi	a3,sp,448
     ac6:	0395                	addi	t2,t2,5
     ac8:	7a06                	.insn	2, 0x7a06
     aca:	7b00                	.insn	2, 0x7b00
     acc:	1d00                	addi	s0,sp,688
     ace:	049f 0395 03b0      	.insn	6, 0x03b00395049f
     ad4:	9108                	.insn	2, 0x9108
     ad6:	065c                	addi	a5,sp,772
     ad8:	0072                	c.slli	zero,0x1c
     ada:	1d06                	slli	s10,s10,0x21
     adc:	049f 03b0 03c6      	.insn	6, 0x03c603b0049f
     ae2:	5801                	li	a6,-32
     ae4:	9604                	.insn	2, 0x9604
     ae6:	9805                	andi	s0,s0,-31
     ae8:	0105                	addi	sp,sp,1
     aea:	0458                	addi	a4,sp,516
     aec:	0598                	addi	a4,sp,704
     aee:	059a                	slli	a1,a1,0x6
     af0:	7e06                	.insn	2, 0x7e06
     af2:	7800                	.insn	2, 0x7800
     af4:	2200                	.insn	2, 0x2200
     af6:	009f 018b 018c      	.insn	6, 0x018c018b009f
     afc:	018c                	addi	a1,sp,192
     afe:	0196                	slli	gp,gp,0x5
     b00:	0196                	slli	gp,gp,0x5
     b02:	019f019b          	.insn	4, 0x019f019b
     b06:	01a1                	addi	gp,gp,8 # 1000808 <__global_pointer$+0x8>
     b08:	01a1                	addi	gp,gp,8 # 1000808 <__global_pointer$+0x8>
     b0a:	01f601af          	.insn	4, 0x01f601af
     b0e:	01fa                	slli	gp,gp,0x1e
     b10:	01fa                	slli	gp,gp,0x1e
     b12:	01fc                	addi	a5,sp,204
     b14:	e204                	.insn	2, 0xe204
     b16:	e402                	.insn	2, 0xe402
     b18:	0102                	c.slli64	sp
     b1a:	045a                	slli	s0,s0,0x16
     b1c:	02e4                	addi	s1,sp,332
     b1e:	0392                	slli	t2,t2,0x4
     b20:	9102                	jalr	sp
     b22:	045c                	addi	a5,sp,516
     b24:	0392                	slli	t2,t2,0x4
     b26:	0395                	addi	t2,t2,5
     b28:	5c01                	li	s8,-32
     b2a:	a404                	.insn	2, 0xa404
     b2c:	0103a803          	lw	a6,16(t2)
     b30:	045a                	slli	s0,s0,0x16
     b32:	03a8                	addi	a0,sp,456
     b34:	03ce                	slli	t2,t2,0x13
     b36:	9102                	jalr	sp
     b38:	0458                	addi	a4,sp,516
     b3a:	0590                	addi	a2,sp,704
     b3c:	0596                	slli	a1,a1,0x5
     b3e:	5c01                	li	s8,-32
     b40:	9604                	.insn	2, 0x9604
     b42:	9a05                	andi	a2,a2,-31
     b44:	0105                	addi	sp,sp,1
     b46:	005f 01c8 01cb      	.insn	6, 0x01cb01c8005f
     b4c:	01f601cb          	.insn	4, 0x01f601cb
     b50:	8c04                	.insn	2, 0x8c04
     b52:	8d04                	.insn	2, 0x8d04
     b54:	0104                	addi	s1,sp,128
     b56:	048d045b          	.insn	4, 0x048d045b
     b5a:	0590                	addi	a2,sp,704
     b5c:	7202                	.insn	2, 0x7202
     b5e:	0000                	unimp
     b60:	01c9                	addi	gp,gp,18 # 1000812 <__global_pointer$+0x12>
     b62:	01cb01cb          	.insn	4, 0x01cb01cb
     b66:	01e2                	slli	gp,gp,0x18
     b68:	01e2                	slli	gp,gp,0x18
     b6a:	01e701e7          	jalr	gp,30(a4) # 3c3c301e <__stack_top+0x3a3c301e>
     b6e:	01f0                	addi	a2,sp,204
     b70:	01f0                	addi	a2,sp,204
     b72:	01f301f3          	.insn	4, 0x01f301f3
     b76:	01f6                	slli	gp,gp,0x1d
     b78:	8c04                	.insn	2, 0x8c04
     b7a:	8d04                	.insn	2, 0x8d04
     b7c:	0104                	addi	s1,sp,128
     b7e:	045f 048d 04d8      	.insn	6, 0x04d8048d045f
     b84:	9102                	jalr	sp
     b86:	045c                	addi	a5,sp,516
     b88:	04d8                	addi	a4,sp,580
     b8a:	04ee                	slli	s1,s1,0x1b
     b8c:	9108                	.insn	2, 0x9108
     b8e:	0664                	addi	s1,sp,780
     b90:	2440                	.insn	2, 0x2440
     b92:	2540                	.insn	2, 0x2540
     b94:	049f 04ee 0584      	.insn	6, 0x058404ee049f
     b9a:	40007e07          	.insn	4, 0x40007e07
     b9e:	4024                	lw	s1,64(s0)
     ba0:	9f25                	.insn	2, 0x9f25
     ba2:	8404                	.insn	2, 0x8404
     ba4:	8a05                	andi	a2,a2,1
     ba6:	0205                	addi	tp,tp,1 # 1 <_start+0x1>
     ba8:	5c91                	li	s9,-28
     baa:	8a04                	.insn	2, 0x8a04
     bac:	9005                	srli	s0,s0,0x21
     bae:	0705                	addi	a4,a4,1
     bb0:	007e                	c.slli	zero,0x1f
     bb2:	2440                	.insn	2, 0x2440
     bb4:	2540                	.insn	2, 0x2540
     bb6:	009f 01cb 01cc      	.insn	6, 0x01cc01cb009f
     bbc:	01cc                	addi	a1,sp,196
     bbe:	01cd                	addi	gp,gp,19 # 1000813 <__global_pointer$+0x13>
     bc0:	01cd                	addi	gp,gp,19 # 1000813 <__global_pointer$+0x13>
     bc2:	01d2                	slli	gp,gp,0x14
     bc4:	01d2                	slli	gp,gp,0x14
     bc6:	01d6                	slli	gp,gp,0x15
     bc8:	01d8                	addi	a4,sp,196
     bca:	01dc                	addi	a5,sp,196
     bcc:	01dc                	addi	a5,sp,196
     bce:	01f0                	addi	a2,sp,204
     bd0:	01f0                	addi	a2,sp,204
     bd2:	01f1                	addi	gp,gp,28 # 100081c <__global_pointer$+0x1c>
     bd4:	01f1                	addi	gp,gp,28 # 100081c <__global_pointer$+0x1c>
     bd6:	01f6                	slli	gp,gp,0x1d
     bd8:	8e04                	.insn	2, 0x8e04
     bda:	9404                	.insn	2, 0x9404
     bdc:	0104                	addi	s1,sp,128
     bde:	045a                	slli	s0,s0,0x16
     be0:	0494                	addi	a3,sp,576
     be2:	0495                	addi	s1,s1,5 # 4005 <__data_load_start+0x3795>
     be4:	5b01                	li	s6,-32
     be6:	9504                	.insn	2, 0x9504
     be8:	b004                	.insn	2, 0xb004
     bea:	0204                	addi	s1,sp,256
     bec:	6491                	lui	s1,0x4
     bee:	b004                	.insn	2, 0xb004
     bf0:	bc04                	.insn	2, 0xbc04
     bf2:	0604                	addi	s1,sp,768
     bf4:	6491                	lui	s1,0x4
     bf6:	3106                	.insn	2, 0x3106
     bf8:	9f1c                	.insn	2, 0x9f1c
     bfa:	c604                	sw	s1,8(a2)
     bfc:	c904                	sw	s1,16(a0)
     bfe:	0104                	addi	s1,sp,128
     c00:	0455                	addi	s0,s0,21
     c02:	04c9                	addi	s1,s1,18 # 4012 <__data_load_start+0x37a2>
     c04:	0584                	addi	s1,sp,704
     c06:	9102                	jalr	sp
     c08:	0468                	addi	a0,sp,524
     c0a:	0584                	addi	s1,sp,704
     c0c:	0586                	slli	a1,a1,0x1
     c0e:	9f7f7503          	.insn	4, 0x9f7f7503
     c12:	8604                	.insn	2, 0x8604
     c14:	9005                	srli	s0,s0,0x21
     c16:	0105                	addi	sp,sp,1
     c18:	0055                	c.nop	21
     c1a:	01dc                	addi	a5,sp,196
     c1c:	01df 01df 01e1      	.insn	6, 0x01e101df01df
     c22:	01e1                	addi	gp,gp,24 # 1000818 <__global_pointer$+0x18>
     c24:	01e8                	addi	a0,sp,204
     c26:	01e8                	addi	a0,sp,204
     c28:	01ec                	addi	a1,sp,204
     c2a:	01ec                	addi	a1,sp,204
     c2c:	01f0                	addi	a2,sp,204
     c2e:	01f401f3          	.insn	4, 0x01f401f3
     c32:	01f4                	addi	a3,sp,204
     c34:	01f6                	slli	gp,gp,0x1d
     c36:	ca04                	sw	s1,16(a2)
     c38:	d004                	sw	s1,32(s0)
     c3a:	0104                	addi	s1,sp,128
     c3c:	045a                	slli	s0,s0,0x16
     c3e:	04d0                	addi	a2,sp,580
     c40:	04d5                	addi	s1,s1,21
     c42:	5b01                	li	s6,-32
     c44:	d504                	sw	s1,40(a0)
     c46:	ee04                	.insn	2, 0xee04
     c48:	0204                	addi	s1,sp,256
     c4a:	6091                	lui	ra,0x4
     c4c:	ee04                	.insn	2, 0xee04
     c4e:	fa04                	.insn	2, 0xfa04
     c50:	0604                	addi	s1,sp,768
     c52:	6091                	lui	ra,0x4
     c54:	3106                	.insn	2, 0x3106
     c56:	9f1c                	.insn	2, 0x9f1c
     c58:	fa04                	.insn	2, 0xfa04
     c5a:	8404                	.insn	2, 0x8404
     c5c:	0105                	addi	sp,sp,1
     c5e:	045f 058a 058c      	.insn	6, 0x058c058a045f
     c64:	9f7f7f03          	.insn	4, 0x9f7f7f03
     c68:	8c04                	.insn	2, 0x8c04
     c6a:	9005                	srli	s0,s0,0x21
     c6c:	0105                	addi	sp,sp,1
     c6e:	005f 01ca 01cb      	.insn	6, 0x01cb01ca005f
     c74:	01d001cb          	.insn	4, 0x01d001cb
     c78:	01d0                	addi	a2,sp,196
     c7a:	01d6                	slli	gp,gp,0x15
     c7c:	01d9                	addi	gp,gp,22 # 1000816 <__global_pointer$+0x16>
     c7e:	01dc                	addi	a5,sp,196
     c80:	01dc                	addi	a5,sp,196
     c82:	01f0                	addi	a2,sp,204
     c84:	01f0                	addi	a2,sp,204
     c86:	01f2                	slli	gp,gp,0x1c
     c88:	01f2                	slli	gp,gp,0x1c
     c8a:	01f301f3          	.insn	4, 0x01f301f3
     c8e:	01f6                	slli	gp,gp,0x1d
     c90:	8c04                	.insn	2, 0x8c04
     c92:	8d04                	.insn	2, 0x8d04
     c94:	0604                	addi	s1,sp,768
     c96:	007a                	c.slli	zero,0x1e
     c98:	9f1d007b          	.insn	4, 0x9f1d007b
     c9c:	8d04                	.insn	2, 0x8d04
     c9e:	a804                	.insn	2, 0xa804
     ca0:	0804                	addi	s1,sp,16
     ca2:	5891                	li	a7,-28
     ca4:	7206                	.insn	2, 0x7206
     ca6:	0600                	addi	s0,sp,768
     ca8:	9f1d                	.insn	2, 0x9f1d
     caa:	a804                	.insn	2, 0xa804
     cac:	bc04                	.insn	2, 0xbc04
     cae:	0104                	addi	s1,sp,128
     cb0:	045f 04c8 04c9      	.insn	6, 0x04c904c8045f
     cb6:	5a01                	li	s4,-32
     cb8:	c904                	sw	s1,16(a0)
     cba:	8404                	.insn	2, 0x8404
     cbc:	0205                	addi	tp,tp,1 # 1 <_start+0x1>
     cbe:	5891                	li	a7,-28
     cc0:	8404                	.insn	2, 0x8404
     cc2:	8805                	andi	s0,s0,1
     cc4:	0105                	addi	sp,sp,1
     cc6:	045f 0588 058a      	.insn	6, 0x058a0588045f
     ccc:	4000790b          	.insn	4, 0x4000790b
     cd0:	7a25                	lui	s4,0xfffe9
     cd2:	2100                	.insn	2, 0x2100
     cd4:	007e                	c.slli	zero,0x1f
     cd6:	9f22                	add	t5,t5,s0
     cd8:	8a04                	.insn	2, 0x8a04
     cda:	9005                	srli	s0,s0,0x21
     cdc:	0205                	addi	tp,tp,1 # 1 <_start+0x1>
     cde:	5891                	li	a7,-28
     ce0:	da00                	sw	s0,48(a2)
     ce2:	dc01                	beqz	s0,bfa <__data_load_start+0x38a>
     ce4:	dc01                	beqz	s0,bfc <__data_load_start+0x38c>
     ce6:	e501                	bnez	a0,cee <__data_load_start+0x47e>
     ce8:	e501                	bnez	a0,cf0 <__data_load_start+0x480>
     cea:	f001                	bnez	s0,bea <__data_load_start+0x37a>
     cec:	f301                	bnez	a4,bec <__data_load_start+0x37c>
     cee:	f501                	bnez	a0,bf6 <__data_load_start+0x386>
     cf0:	0401                	addi	s0,s0,0
     cf2:	04c8                	addi	a0,sp,580
     cf4:	04c9                	addi	s1,s1,18
     cf6:	7a06                	.insn	2, 0x7a06
     cf8:	7b00                	.insn	2, 0x7b00
     cfa:	1d00                	addi	s0,sp,688
     cfc:	049f 04c9 04e4      	.insn	6, 0x04e404c9049f
     d02:	9108                	.insn	2, 0x9108
     d04:	0658                	addi	a4,sp,772
     d06:	0072                	c.slli	zero,0x1c
     d08:	1d06                	slli	s10,s10,0x21
     d0a:	049f 04e4 0584      	.insn	6, 0x058404e4049f
     d10:	5901                	li	s2,-32
     d12:	8a04                	.insn	2, 0x8a04
     d14:	8e05                	sub	a2,a2,s1
     d16:	0105                	addi	sp,sp,1
     d18:	0059                	c.nop	22
     d1a:	01ce                	slli	gp,gp,0x13
     d1c:	01cf01cf          	.insn	4, 0x01cf01cf
     d20:	01de                	slli	gp,gp,0x17
     d22:	01e2                	slli	gp,gp,0x18
     d24:	01e4                	addi	s1,sp,204
     d26:	01e4                	addi	s1,sp,204
     d28:	01f0                	addi	a2,sp,204
     d2a:	01f0                	addi	a2,sp,204
     d2c:	01f6                	slli	gp,gp,0x1d
     d2e:	9804                	.insn	2, 0x9804
     d30:	9c04                	.insn	2, 0x9c04
     d32:	0104                	addi	s1,sp,128
     d34:	045a                	slli	s0,s0,0x16
     d36:	049c                	addi	a5,sp,576
     d38:	04ce                	slli	s1,s1,0x13
     d3a:	9102                	jalr	sp
     d3c:	0460                	addi	s0,sp,524
     d3e:	04d8                	addi	a4,sp,580
     d40:	04dc                	addi	a5,sp,580
     d42:	5a01                	li	s4,-32
     d44:	dc04                	sw	s1,56(s0)
     d46:	8404                	.insn	2, 0x8404
     d48:	0205                	addi	tp,tp,1 # 1 <_start+0x1>
     d4a:	5c91                	li	s9,-28
     d4c:	8404                	.insn	2, 0x8404
     d4e:	9005                	srli	s0,s0,0x21
     d50:	0105                	addi	sp,sp,1
     d52:	005d                	c.nop	23
     d54:	0281                	addi	t0,t0,0
     d56:	0291                	addi	t0,t0,4
     d58:	029e0293          	addi	t0,t3,41
     d5c:	9e04                	.insn	2, 0x9e04
     d5e:	d405                	beqz	s0,c86 <__data_load_start+0x416>
     d60:	0105                	addi	sp,sp,1
     d62:	045d                	addi	s0,s0,23
     d64:	05da                	slli	a1,a1,0x16
     d66:	05f4                	addi	a3,sp,716
     d68:	5d01                	li	s10,-32
     d6a:	8500                	.insn	2, 0x8500
     d6c:	8f02                	jr	t5
     d6e:	9802                	jalr	a6
     d70:	9d02                	jalr	s10
     d72:	0402                	c.slli64	s0
     d74:	05ae                	slli	a1,a1,0xb
     d76:	05cc                	addi	a1,sp,708
     d78:	5f01                	li	t5,-32
     d7a:	e804                	.insn	2, 0xe804
     d7c:	f005                	bnez	s0,c9c <__data_load_start+0x42c>
     d7e:	0105                	addi	sp,sp,1
     d80:	005f 038a 039b      	.insn	6, 0x039b038a005f
     d86:	f004                	.insn	2, 0xf004
     d88:	01088a07          	.insn	4, 0x01088a07
     d8c:	005d                	c.nop	23
     d8e:	0390038b          	.insn	4, 0x0390038b
     d92:	f004                	.insn	2, 0xf004
     d94:	1007f607          	.insn	4, 0x1007f607
     d98:	0079                	c.nop	30
     d9a:	ff0a                	.insn	2, 0xff0a
     d9c:	007e1aff 1affff0a 	.insn	12, 0x9f2224401affff0a007e1aff
     da4:	9f222440 
     da8:	b000                	.insn	2, 0xb000
     daa:	b202                	.insn	2, 0xb202
     dac:	b202                	.insn	2, 0xb202
     dae:	b802                	.insn	2, 0xb802
     db0:	b802                	.insn	2, 0xb802
     db2:	ea02                	.insn	2, 0xea02
     db4:	ea02                	.insn	2, 0xea02
     db6:	9d02                	jalr	s10
     db8:	a3039d03          	lh	s10,-1488(t2)
     dbc:	06940403          	lb	s0,105(s0)
     dc0:	069c                	addi	a5,sp,832
     dc2:	5f01                	li	t5,-32
     dc4:	9c04                	.insn	2, 0x9c04
     dc6:	a706                	.insn	2, 0xa706
     dc8:	0106                	slli	sp,sp,0x1
     dca:	06a7045b          	.insn	4, 0x06a7045b
     dce:	07b4                	addi	a3,sp,968
     dd0:	7202                	.insn	2, 0x7202
     dd2:	0400                	addi	s0,sp,512
     dd4:	07b4                	addi	a3,sp,968
     dd6:	088c                	addi	a1,sp,80
     dd8:	9106                	add	sp,sp,ra
     dda:	066c                	addi	a1,sp,780
     ddc:	2540                	.insn	2, 0x2540
     dde:	049f 088c 0898      	.insn	6, 0x0898088c049f
     de4:	7202                	.insn	2, 0x7202
     de6:	0000                	unimp
     de8:	02b6                	slli	t0,t0,0xd
     dea:	02b8                	addi	a4,sp,328
     dec:	02b8                	addi	a4,sp,328
     dee:	02cd                	addi	t0,t0,19
     df0:	02cd                	addi	t0,t0,19
     df2:	02d6                	slli	t0,t0,0x15
     df4:	02d6                	slli	t0,t0,0x15
     df6:	02d8                	addi	a4,sp,324
     df8:	02d8                	addi	a4,sp,324
     dfa:	039d                	addi	t2,t2,7
     dfc:	039d                	addi	t2,t2,7
     dfe:	03a0                	addi	s0,sp,456
     e00:	03a0                	addi	s0,sp,456
     e02:	a60403a3          	sb	zero,-1433(s0)
     e06:	a706                	.insn	2, 0xa706
     e08:	0106                	slli	sp,sp,0x1
     e0a:	045f 06a7 06f8      	.insn	6, 0x06f806a7045f
     e10:	9102                	jalr	sp
     e12:	0460                	addi	s0,sp,524
     e14:	06f8                	addi	a4,sp,844
     e16:	0796                	slli	a5,a5,0x5
     e18:	9108                	.insn	2, 0x9108
     e1a:	066c                	addi	a1,sp,780
     e1c:	2440                	.insn	2, 0x2440
     e1e:	2540                	.insn	2, 0x2540
     e20:	049f 0796 079c      	.insn	6, 0x079c0796049f
     e26:	40007d07          	.insn	4, 0x40007d07
     e2a:	4024                	lw	s1,64(s0)
     e2c:	9f25                	.insn	2, 0x9f25
     e2e:	9c04                	.insn	2, 0x9c04
     e30:	08088c07          	.insn	4, 0x08088c07
     e34:	6c91                	lui	s9,0x4
     e36:	4006                	.insn	2, 0x4006
     e38:	4024                	lw	s1,64(s0)
     e3a:	9f25                	.insn	2, 0x9f25
     e3c:	8c04                	.insn	2, 0x8c04
     e3e:	9208                	.insn	2, 0x9208
     e40:	0208                	addi	a0,sp,256
     e42:	6091                	lui	ra,0x4
     e44:	9204                	.insn	2, 0x9204
     e46:	9808                	.insn	2, 0x9808
     e48:	0708                	addi	a0,sp,896
     e4a:	007d                	c.nop	31
     e4c:	2440                	.insn	2, 0x2440
     e4e:	2540                	.insn	2, 0x2540
     e50:	009f 02b9 02be      	.insn	6, 0x02be02b9009f
     e56:	02be                	slli	t0,t0,0xf
     e58:	02c2                	slli	t0,t0,0x10
     e5a:	02dc02c3          	.insn	4, 0x02dc02c3
     e5e:	039d                	addi	t2,t2,7
     e60:	039e                	slli	t2,t2,0x7
     e62:	039e                	slli	t2,t2,0x7
     e64:	ac0403a3          	sb	zero,-1337(s0)
     e68:	cc06                	sw	ra,24(sp)
     e6a:	0106                	slli	sp,sp,0x1
     e6c:	0458                	addi	a4,sp,516
     e6e:	06cc                	addi	a1,sp,836
     e70:	06d8                	addi	a4,sp,836
     e72:	9f7f7803          	.insn	4, 0x9f7f7803
     e76:	e404                	.insn	2, 0xe404
     e78:	a606                	.insn	2, 0xa606
     e7a:	04580107          	.insn	4, 0x04580107
     e7e:	088c                	addi	a1,sp,80
     e80:	088e                	slli	a7,a7,0x3
     e82:	9f7f7803          	.insn	4, 0x9f7f7803
     e86:	8e04                	.insn	2, 0x8e04
     e88:	9808                	.insn	2, 0x9808
     e8a:	0108                	addi	a0,sp,128
     e8c:	0058                	addi	a4,sp,4
     e8e:	02ca02c7          	.insn	4, 0x02ca02c7
     e92:	02ca                	slli	t0,t0,0x12
     e94:	02cc                	addi	a1,sp,324
     e96:	02cc                	addi	a1,sp,324
     e98:	02d302d3          	.insn	4, 0x02d302d3
     e9c:	02d8                	addi	a4,sp,324
     e9e:	02d8                	addi	a4,sp,324
     ea0:	02f5                	addi	t0,t0,29
     ea2:	03a0                	addi	s0,sp,456
     ea4:	03a1                	addi	t2,t2,8
     ea6:	03a1                	addi	t2,t2,8
     ea8:	ea0403a3          	sb	zero,-345(s0)
     eac:	f006                	.insn	2, 0xf006
     eae:	0106                	slli	sp,sp,0x1
     eb0:	045a                	slli	s0,s0,0x16
     eb2:	06f0                	addi	a2,sp,844
     eb4:	06f5                	addi	a3,a3,29
     eb6:	5b01                	li	s6,-32
     eb8:	f504                	.insn	2, 0xf504
     eba:	8e06                	mv	t3,ra
     ebc:	64910207          	.insn	4, 0x64910207
     ec0:	8e04                	.insn	2, 0x8e04
     ec2:	06079c07          	.insn	4, 0x06079c07
     ec6:	6491                	lui	s1,0x4
     ec8:	3106                	.insn	2, 0x3106
     eca:	9f1c                	.insn	2, 0x9f1c
     ecc:	9c04                	.insn	2, 0x9c04
     ece:	0107c807          	.insn	4, 0x0107c807
     ed2:	045e                	slli	s0,s0,0x17
     ed4:	0892                	slli	a7,a7,0x4
     ed6:	0894                	addi	a3,sp,80
     ed8:	9f7f7e03          	.insn	4, 0x9f7f7e03
     edc:	9404                	.insn	2, 0x9404
     ede:	9808                	.insn	2, 0x9808
     ee0:	0108                	addi	a0,sp,128
     ee2:	005e                	c.slli	zero,0x17
     ee4:	02b802b7          	lui	t0,0x2b80
     ee8:	02b8                	addi	a4,sp,328
     eea:	02bc                	addi	a5,sp,328
     eec:	02bc                	addi	a5,sp,328
     eee:	02c2                	slli	t0,t0,0x10
     ef0:	02c402c3          	.insn	4, 0x02c402c3
     ef4:	02c4                	addi	s1,sp,324
     ef6:	02c702c7          	.insn	4, 0x02c702c7
     efa:	039d                	addi	t2,t2,7
     efc:	039d                	addi	t2,t2,7
     efe:	039f 039f 03a0      	.insn	6, 0x03a0039f039f
     f04:	03a0                	addi	s0,sp,456
     f06:	a60403a3          	sb	zero,-1433(s0)
     f0a:	a706                	.insn	2, 0xa706
     f0c:	0706                	slli	a4,a4,0x1
     f0e:	5c91                	li	s9,-28
     f10:	7b06                	.insn	2, 0x7b06
     f12:	1d00                	addi	s0,sp,688
     f14:	049f 06a7 06c2      	.insn	6, 0x06c206a7049f
     f1a:	9108                	.insn	2, 0x9108
     f1c:	065c                	addi	a5,sp,772
     f1e:	0072                	c.slli	zero,0x1c
     f20:	1d06                	slli	s10,s10,0x21
     f22:	049f 06c2 06d8      	.insn	6, 0x06d806c2049f
     f28:	5e01                	li	t3,-32
     f2a:	e404                	.insn	2, 0xe404
     f2c:	e806                	.insn	2, 0xe806
     f2e:	0106                	slli	sp,sp,0x1
     f30:	045e                	slli	s0,s0,0x17
     f32:	06e8                	addi	a0,sp,844
     f34:	06e9                	addi	a3,a3,26
     f36:	5a01                	li	s4,-32
     f38:	e904                	.insn	2, 0xe904
     f3a:	8c06                	mv	s8,ra
     f3c:	0208                	addi	a0,sp,256
     f3e:	5c91                	li	s9,-28
     f40:	8c04                	.insn	2, 0x8c04
     f42:	9008                	.insn	2, 0x9008
     f44:	0108                	addi	a0,sp,128
     f46:	045e                	slli	s0,s0,0x17
     f48:	0890                	addi	a2,sp,80
     f4a:	0892                	slli	a7,a7,0x4
     f4c:	4000790b          	.insn	4, 0x4000790b
     f50:	7a25                	lui	s4,0xfffe9
     f52:	2100                	.insn	2, 0x2100
     f54:	007d                	c.nop	31
     f56:	9f22                	add	t5,t5,s0
     f58:	9204                	.insn	2, 0x9204
     f5a:	9808                	.insn	2, 0x9808
     f5c:	0208                	addi	a0,sp,256
     f5e:	5c91                	li	s9,-28
     f60:	c500                	sw	s0,8(a0)
     f62:	c702                	sw	zero,140(sp)
     f64:	c702                	sw	zero,140(sp)
     f66:	d002                	sw	zero,32(sp)
     f68:	d002                	sw	zero,32(sp)
     f6a:	de02                	sw	zero,60(sp)
     f6c:	de02                	sw	zero,60(sp)
     f6e:	9d02                	jalr	s10
     f70:	a203a003          	lw	zero,-1504(t2)
     f74:	06e80403          	lb	s0,110(a6)
     f78:	06e9                	addi	a3,a3,26
     f7a:	7a06                	.insn	2, 0x7a06
     f7c:	7b00                	.insn	2, 0x7b00
     f7e:	1d00                	addi	s0,sp,688
     f80:	049f 06e9 0784      	.insn	6, 0x078406e9049f
     f86:	9108                	.insn	2, 0x9108
     f88:	065c                	addi	a5,sp,772
     f8a:	0072                	c.slli	zero,0x1c
     f8c:	1d06                	slli	s10,s10,0x21
     f8e:	049f 0784 07b0      	.insn	6, 0x07b00784049f
     f94:	5901                	li	s2,-32
     f96:	b004                	.insn	2, 0xb004
     f98:	01088c07          	.insn	4, 0x01088c07
     f9c:	08920457          	.insn	4, 0x08920457
     fa0:	0896                	slli	a7,a7,0x5
     fa2:	5901                	li	s2,-32
     fa4:	ba00                	.insn	2, 0xba00
     fa6:	bb02                	.insn	2, 0xbb02
     fa8:	bb02                	.insn	2, 0xbb02
     faa:	c902                	sw	zero,144(sp)
     fac:	cd02                	sw	zero,152(sp)
     fae:	cf02                	sw	zero,156(sp)
     fb0:	cf02                	sw	zero,156(sp)
     fb2:	9d02                	jalr	s10
     fb4:	a0039d03          	lh	s10,-1536(t2)
     fb8:	a303a003          	lw	zero,-1488(t2)
     fbc:	06b20403          	lb	s0,107(tp) # 6b <trap_entry+0xb>
     fc0:	06b6                	slli	a3,a3,0xd
     fc2:	5a01                	li	s4,-32
     fc4:	b604                	.insn	2, 0xb604
     fc6:	ee06                	.insn	2, 0xee06
     fc8:	0206                	slli	tp,tp,0x1
     fca:	6491                	lui	s1,0x4
     fcc:	f804                	.insn	2, 0xf804
     fce:	fc06                	.insn	2, 0xfc06
     fd0:	0106                	slli	sp,sp,0x1
     fd2:	045a                	slli	s0,s0,0x16
     fd4:	06fc                	addi	a5,sp,844
     fd6:	088c                	addi	a1,sp,80
     fd8:	9102                	jalr	sp
     fda:	0460                	addi	s0,sp,524
     fdc:	088c                	addi	a1,sp,80
     fde:	0892                	slli	a7,a7,0x4
     fe0:	5c01                	li	s8,-32
     fe2:	9204                	.insn	2, 0x9204
     fe4:	9808                	.insn	2, 0x9808
     fe6:	0108                	addi	a0,sp,128
     fe8:	02ef0057          	.insn	4, 0x02ef0057
     fec:	0390                	addi	a2,sp,448
     fee:	bc04                	.insn	2, 0xbc04
     ff0:	0107f607          	.insn	4, 0x0107f607
     ff4:	0059                	c.nop	22
     ff6:	02f5                	addi	t0,t0,29 # 2b8001d <__stack_top+0xb8001d>
     ff8:	02fa                	slli	t0,t0,0x1e
     ffa:	02fa                	slli	t0,t0,0x1e
     ffc:	0385                	addi	t2,t2,1
     ffe:	0385                	addi	t2,t2,1
    1000:	0386                	slli	t2,t2,0x1
    1002:	03910387          	.insn	4, 0x03910387
    1006:	c804                	sw	s1,16(s0)
    1008:	0107ce07          	.insn	4, 0x0107ce07
    100c:	045a                	slli	s0,s0,0x16
    100e:	07ce                	slli	a5,a5,0x13
    1010:	07da                	slli	a5,a5,0x16
    1012:	5e01                	li	t3,-32
    1014:	da04                	sw	s1,48(a2)
    1016:	0807e007          	.insn	4, 0x0807e007
    101a:	0079                	c.nop	30
    101c:	2540                	.insn	2, 0x2540
    101e:	007e                	c.slli	zero,0x1f
    1020:	9f22                	add	t5,t5,s0
    1022:	e204                	.insn	2, 0xe204
    1024:	0107f807          	.insn	4, 0x0107f807
    1028:	005e                	c.slli	zero,0x17
    102a:	02fc                	addi	a5,sp,332
    102c:	039d                	addi	t2,t2,7
    102e:	d204                	sw	s1,32(a2)
    1030:	01088c07          	.insn	4, 0x01088c07
    1034:	0058                	addi	a4,sp,4
    1036:	039d0383          	lb	t2,57(s10)
    103a:	da04                	sw	s1,48(a2)
    103c:	01088c07          	.insn	4, 0x01088c07
    1040:	005a                	c.slli	zero,0x16
    1042:	02e9                	addi	t0,t0,26
    1044:	02fc                	addi	a5,sp,332
    1046:	02fc                	addi	a5,sp,332
    1048:	039d                	addi	t2,t2,7
    104a:	b204                	.insn	2, 0xb204
    104c:	0107d207          	.insn	4, 0x0107d207
    1050:	0458                	addi	a4,sp,516
    1052:	07d2                	slli	a5,a5,0x14
    1054:	088c                	addi	a1,sp,80
    1056:	9109                	srli	a0,a0,0x22
    1058:	9458                	.insn	2, 0x9458
    105a:	0a02                	c.slli64	s4
    105c:	ffff                	.insn	2, 0xffff
    105e:	9f1a                	add	t5,t5,t1
    1060:	e800                	.insn	2, 0xe800
    1062:	fa02                	.insn	2, 0xfa02
    1064:	fa02                	.insn	2, 0xfa02
    1066:	fb02                	.insn	2, 0xfb02
    1068:	fb02                	.insn	2, 0xfb02
    106a:	8102                	jr	sp
    106c:	82038103          	lb	sp,-2016(t2)
    1070:	97038203          	lb	tp,-1680(t2)
    1074:	9d039703          	lh	a4,-1584(t2)
    1078:	07b20403          	lb	s0,123(tp) # 7b <trap_entry+0x1b>
    107c:	07ce                	slli	a5,a5,0x13
    107e:	7f05                	lui	t5,0xfffe1
    1080:	4000                	lw	s0,0(s0)
    1082:	9f25                	.insn	2, 0x9f25
    1084:	ce04                	sw	s1,24(a2)
    1086:	0107d007          	.insn	4, 0x0107d007
    108a:	045a                	slli	s0,s0,0x16
    108c:	07d0                	addi	a2,sp,964
    108e:	07d8                	addi	a4,sp,964
    1090:	7f05                	lui	t5,0xfffe1
    1092:	4000                	lw	s0,0(s0)
    1094:	9f25                	.insn	2, 0x9f25
    1096:	d804                	sw	s1,48(s0)
    1098:	0107da07          	.insn	4, 0x0107da07
    109c:	045a                	slli	s0,s0,0x16
    109e:	07da                	slli	a5,a5,0x16
    10a0:	088a                	slli	a7,a7,0x2
    10a2:	7f05                	lui	t5,0xfffe1
    10a4:	4000                	lw	s0,0(s0)
    10a6:	9f25                	.insn	2, 0x9f25
    10a8:	8a04                	.insn	2, 0x8a04
    10aa:	8c08                	.insn	2, 0x8c08
    10ac:	0508                	addi	a0,sp,640
    10ae:	017f 2540 009f 02ea 	.insn	10, 0x02ee02ea009f2540017f
    10b6:	02ee 
    10b8:	02ee                	slli	t0,t0,0x1b
    10ba:	039d                	addi	t2,t2,7
    10bc:	b404                	.insn	2, 0xb404
    10be:	0107ba07          	.insn	4, 0x0107ba07
    10c2:	045d                	addi	s0,s0,23
    10c4:	07ba                	slli	a5,a5,0xe
    10c6:	088c                	addi	a1,sp,80
    10c8:	7202                	.insn	2, 0x7202
	...

Disassembly of section .debug_aranges:

00000000 <.debug_aranges>:
   0:	001c                	.insn	2, 0x001c
   2:	0000                	unimp
   4:	0002                	c.slli64	zero
   6:	0000                	unimp
   8:	0000                	unimp
   a:	0004                	.insn	2, 0x0004
   c:	0000                	unimp
   e:	0000                	unimp
  10:	00a8                	addi	a0,sp,72
  12:	0000                	unimp
  14:	041e                	slli	s0,s0,0x7
	...
  1e:	0000                	unimp
  20:	001c                	.insn	2, 0x001c
  22:	0000                	unimp
  24:	0002                	c.slli64	zero
  26:	00000a2f          	.insn	4, 0x0a2f
  2a:	0004                	.insn	2, 0x0004
  2c:	0000                	unimp
  2e:	0000                	unimp
  30:	04c8                	addi	a0,sp,580
  32:	0000                	unimp
  34:	0014                	.insn	2, 0x0014
	...
  3e:	0000                	unimp
  40:	001c                	.insn	2, 0x001c
  42:	0000                	unimp
  44:	0002                	c.slli64	zero
  46:	0a60                	addi	s0,sp,284
  48:	0000                	unimp
  4a:	0004                	.insn	2, 0x0004
  4c:	0000                	unimp
  4e:	0000                	unimp
  50:	04dc                	addi	a5,sp,580
  52:	0000                	unimp
  54:	007c                	addi	a5,sp,12
	...
  5e:	0000                	unimp
  60:	0014                	.insn	2, 0x0014
  62:	0000                	unimp
  64:	0002                	c.slli64	zero
  66:	0abe                	slli	s5,s5,0xf
  68:	0000                	unimp
  6a:	0004                	.insn	2, 0x0004
	...

Disassembly of section .debug_rnglists:

00000000 <.debug_rnglists>:
   0:	00ca                	slli	ra,ra,0x12
   2:	0000                	unimp
   4:	0005                	c.nop	1
   6:	0004                	.insn	2, 0x0004
   8:	0000                	unimp
   a:	0000                	unimp
   c:	0004                	.insn	2, 0x0004
   e:	0400                	addi	s0,sp,512
  10:	e80c                	.insn	2, 0xe80c
  12:	0401                	addi	s0,s0,0
  14:	01f8                	addi	a4,sp,204
  16:	089e                	slli	a7,a7,0x7
  18:	0400                	addi	s0,sp,512
  1a:	2420                	.insn	2, 0x2420
  1c:	2404                	.insn	2, 0x2404
  1e:	043e                	slli	s0,s0,0xf
  20:	4846                	lw	a6,80(sp)
  22:	f804                	.insn	2, 0xf804
  24:	8601                	c.srai64	a2
  26:	0002                	c.slli64	zero
  28:	5a04                	lw	s1,48(a2)
  2a:	046c                	addi	a1,sp,524
  2c:	e86c                	.insn	2, 0xe86c
  2e:	0401                	addi	s0,s0,0
  30:	0286                	slli	t0,t0,0x1
  32:	0290                	addi	a2,sp,320
  34:	0400                	addi	s0,sp,512
  36:	0290                	addi	a2,sp,320
  38:	0292                	slli	t0,t0,0x4
  3a:	9404                	.insn	2, 0x9404
  3c:	b002                	.insn	2, 0xb002
  3e:	0402                	c.slli64	s0
  40:	03ce                	slli	t2,t2,0x13
  42:	03de                	slli	t2,t2,0x17
  44:	0400                	addi	s0,sp,512
  46:	02be                	slli	t0,t0,0xf
  48:	02d0                	addi	a2,sp,324
  4a:	d004                	sw	s1,32(s0)
  4c:	ce02                	sw	zero,28(sp)
  4e:	05900403          	lb	s0,89(zero) # 59 <_start+0x59>
  52:	059a                	slli	a1,a1,0x6
  54:	0400                	addi	s0,sp,512
  56:	03f2                	slli	t2,t2,0x1c
  58:	0482                	c.slli64	s1
  5a:	8604                	.insn	2, 0x8604
  5c:	8a04                	.insn	2, 0x8a04
  5e:	0404                	addi	s1,sp,512
  60:	048c                	addi	a1,sp,576
  62:	0590                	addi	a2,sp,704
  64:	0400                	addi	s0,sp,512
  66:	059e                	slli	a1,a1,0x7
  68:	05be                	slli	a1,a1,0xf
  6a:	c204                	sw	s1,0(a2)
  6c:	c405                	beqz	s0,94 <trap_entry+0x34>
  6e:	0405                	addi	s0,s0,1
  70:	05da                	slli	a1,a1,0x16
  72:	05ec                	addi	a1,sp,716
  74:	0400                	addi	s0,sp,512
  76:	05d6                	slli	a1,a1,0x15
  78:	05da                	slli	a1,a1,0x16
  7a:	ec04                	.insn	2, 0xec04
  7c:	8a05                	andi	a2,a2,1
  7e:	0408                	addi	a0,sp,512
  80:	088c                	addi	a1,sp,80
  82:	0898                	addi	a4,sp,80
  84:	0400                	addi	s0,sp,512
  86:	0682                	c.slli64	a3
  88:	0686                	slli	a3,a3,0x1
  8a:	8e04                	.insn	2, 0x8e04
  8c:	9006                	c.add	zero,ra
  8e:	0406                	slli	s0,s0,0x1
  90:	0694                	addi	a3,sp,832
  92:	069e                	slli	a3,a3,0x7
  94:	a204                	.insn	2, 0xa204
  96:	9c06                	add	s8,s8,ra
  98:	079e0407          	.insn	4, 0x079e0407
  9c:	07a2                	slli	a5,a5,0x8
  9e:	ac04                	.insn	2, 0xac04
  a0:	0407b207          	.insn	4, 0x0407b207
  a4:	088c                	addi	a1,sp,80
  a6:	0898                	addi	a4,sp,80
  a8:	0400                	addi	s0,sp,512
  aa:	079c                	addi	a5,sp,960
  ac:	079e                	slli	a5,a5,0x7
  ae:	a204                	.insn	2, 0xa204
  b0:	0407ac07          	.insn	4, 0x0407ac07
  b4:	07b2                	slli	a5,a5,0xc
  b6:	07f0                	addi	a2,sp,972
  b8:	f404                	.insn	2, 0xf404
  ba:	0407fa07          	.insn	4, 0x0407fa07
  be:	07fe                	slli	a5,a5,0x1f
  c0:	0880                	addi	s0,sp,80
  c2:	0400                	addi	s0,sp,512
  c4:	07a8                	addi	a0,sp,968
  c6:	07ac                	addi	a1,sp,968
  c8:	b404                	.insn	2, 0xb404
  ca:	0007bc07          	.insn	4, 0x0007bc07

Disassembly of section .debug_line:

00000000 <.debug_line>:
   0:	0d49                	addi	s10,s10,18
   2:	0000                	unimp
   4:	0005                	c.nop	1
   6:	0004                	.insn	2, 0x0004
   8:	00000033          	add	zero,zero,zero
   c:	0101                	addi	sp,sp,0
   e:	f601                	bnez	a2,ffffff16 <__stack_top+0xfdffff16>
  10:	0df2                	slli	s11,s11,0x1c
  12:	0100                	addi	s0,sp,128
  14:	0101                	addi	sp,sp,0
  16:	0001                	nop
  18:	0000                	unimp
  1a:	0001                	nop
  1c:	0100                	addi	s0,sp,128
  1e:	0101                	addi	sp,sp,0
  20:	021f 002b 0000      	.insn	6, 0x002b021f
  26:	008d                	addi	ra,ra,3 # 4003 <__data_load_start+0x3793>
  28:	0000                	unimp
  2a:	0102                	c.slli64	sp
  2c:	021f 030b 0000      	.insn	6, 0x030b021f
  32:	0000                	unimp
  34:	1700                	addi	s0,sp,928
  36:	0000                	unimp
  38:	0100                	addi	s0,sp,128
  3a:	0021                	c.nop	8
  3c:	0000                	unimp
  3e:	0001                	nop
  40:	0205                	addi	tp,tp,1 # 1 <_start+0x1>
  42:	00a8                	addi	a0,sp,72
  44:	0000                	unimp
  46:	010a9203          	lh	tp,16(s5)
  4a:	0105                	addi	sp,sp,1
  4c:	0009                	c.nop	2
  4e:	1800                	addi	s0,sp,48
  50:	0305                	addi	t1,t1,1
  52:	0009                	c.nop	2
  54:	0300                	addi	s0,sp,384
  56:	05017dcf          	.insn	4, 0x05017dcf
  5a:	0901                	addi	s2,s2,0 # 19000 <__data_load_start+0x18790>
  5c:	0000                	unimp
  5e:	0519                	addi	a0,a0,6 # 17006 <__data_load_start+0x16796>
  60:	00000903          	lb	s2,0(zero) # 0 <_start>
  64:	0518                	addi	a4,sp,640
  66:	00000903          	lb	s2,0(zero) # 0 <_start>
  6a:	0518                	addi	a4,sp,640
  6c:	00000903          	lb	s2,0(zero) # 0 <_start>
  70:	0518                	addi	a4,sp,640
  72:	00000903          	lb	s2,0(zero) # 0 <_start>
  76:	0518                	addi	a4,sp,640
  78:	00000903          	lb	s2,0(zero) # 0 <_start>
  7c:	0518                	addi	a4,sp,640
  7e:	00000903          	lb	s2,0(zero) # 0 <_start>
  82:	0519                	addi	a0,a0,6
  84:	00000903          	lb	s2,0(zero) # 0 <_start>
  88:	0518                	addi	a4,sp,640
  8a:	00000903          	lb	s2,0(zero) # 0 <_start>
  8e:	0518                	addi	a4,sp,640
  90:	00000903          	lb	s2,0(zero) # 0 <_start>
  94:	0518                	addi	a4,sp,640
  96:	00000903          	lb	s2,0(zero) # 0 <_start>
  9a:	053c                	addi	a5,sp,648
  9c:	00000903          	lb	s2,0(zero) # 0 <_start>
  a0:	0306                	slli	t1,t1,0x1
  a2:	01ff 0501 0901 000a 	.insn	10, 0x0501000a0901050101ff
  aa:	0501 
  ac:	0901                	addi	s2,s2,0
  ae:	0002                	c.slli64	zero
  b0:	017e8103          	lb	sp,23(t4)
  b4:	0605                	addi	a2,a2,1
  b6:	0809                	addi	a6,a6,2
  b8:	0100                	addi	s0,sp,128
  ba:	0605                	addi	a2,a2,1
  bc:	0409                	addi	s0,s0,2
  be:	0600                	addi	s0,sp,768
  c0:	0519                	addi	a0,a0,6
  c2:	00040907          	.insn	4, 0x00040907
  c6:	0106                	slli	sp,sp,0x1
  c8:	0a05                	addi	s4,s4,1 # fffe9001 <__stack_top+0xfdfe9001>
  ca:	0409                	addi	s0,s0,2
  cc:	0000                	unimp
  ce:	0402                	c.slli64	s0
  d0:	1b01                	addi	s6,s6,-32 # 19fe0 <__data_load_start+0x19770>
  d2:	0405                	addi	s0,s0,1
  d4:	0409                	addi	s0,s0,2
  d6:	0000                	unimp
  d8:	0402                	c.slli64	s0
  da:	0600                	addi	s0,sp,768
  dc:	0501                	addi	a0,a0,0
  de:	0904                	addi	s1,sp,144
  e0:	0000                	unimp
  e2:	0501                	addi	a0,a0,0
  e4:	0904                	addi	s1,sp,144
  e6:	0000                	unimp
  e8:	0501                	addi	a0,a0,0
  ea:	0904                	addi	s1,sp,144
  ec:	0000                	unimp
  ee:	0501                	addi	a0,a0,0
  f0:	0904                	addi	s1,sp,144
  f2:	0000                	unimp
  f4:	0200                	addi	s0,sp,256
  f6:	0104                	addi	s1,sp,128
  f8:	0501                	addi	a0,a0,0
  fa:	0904                	addi	s1,sp,144
  fc:	0004                	.insn	2, 0x0004
  fe:	0200                	addi	s0,sp,256
 100:	0304                	addi	s1,sp,384
 102:	0106                	slli	sp,sp,0x1
 104:	0405                	addi	s0,s0,1
 106:	0a09                	addi	s4,s4,2
 108:	0000                	unimp
 10a:	0402                	c.slli64	s0
 10c:	060e                	slli	a2,a2,0x3
 10e:	0501                	addi	a0,a0,0
 110:	0904                	addi	s1,sp,144
 112:	000c                	.insn	2, 0x000c
 114:	0106                	slli	sp,sp,0x1
 116:	0405                	addi	s0,s0,1
 118:	0009                	c.nop	2
 11a:	0000                	unimp
 11c:	0402                	c.slli64	s0
 11e:	0600                	addi	s0,sp,768
 120:	0501                	addi	a0,a0,0
 122:	0904                	addi	s1,sp,144
 124:	0000                	unimp
 126:	0519                	addi	a0,a0,6
 128:	0904                	addi	s1,sp,144
 12a:	0000                	unimp
 12c:	0106                	slli	sp,sp,0x1
 12e:	0705                	addi	a4,a4,1
 130:	0809                	addi	a6,a6,2
 132:	0000                	unimp
 134:	0402                	c.slli64	s0
 136:	150e                	slli	a0,a0,0x23
 138:	0405                	addi	s0,s0,1
 13a:	0209                	addi	tp,tp,2 # 2 <_start+0x2>
 13c:	0100                	addi	s0,sp,128
 13e:	0405                	addi	s0,s0,1
 140:	0009                	c.nop	2
 142:	0000                	unimp
 144:	0402                	c.slli64	s0
 146:	0600                	addi	s0,sp,768
 148:	051e                	slli	a0,a0,0x7
 14a:	0908                	addi	a0,sp,144
 14c:	0000                	unimp
 14e:	1806                	slli	a6,a6,0x21
 150:	1105                	addi	sp,sp,-31
 152:	0409                	addi	s0,s0,2
 154:	0100                	addi	s0,sp,128
 156:	1e05                	addi	t3,t3,-31
 158:	0409                	addi	s0,s0,2
 15a:	1600                	addi	s0,sp,800
 15c:	0b05                	addi	s6,s6,1
 15e:	0409                	addi	s0,s0,2
 160:	0600                	addi	s0,sp,768
 162:	0518                	addi	a4,sp,640
 164:	0908                	addi	a0,sp,144
 166:	0000                	unimp
 168:	0106                	slli	sp,sp,0x1
 16a:	0b05                	addi	s6,s6,1
 16c:	0209                	addi	tp,tp,2 # 2 <_start+0x2>
 16e:	0600                	addi	s0,sp,768
 170:	0518                	addi	a4,sp,640
 172:	0908                	addi	a0,sp,144
 174:	0000                	unimp
 176:	0106                	slli	sp,sp,0x1
 178:	0b05                	addi	s6,s6,1
 17a:	0409                	addi	s0,s0,2
 17c:	1a00                	addi	s0,sp,304
 17e:	0405                	addi	s0,s0,1
 180:	0809                	addi	a6,a6,2
 182:	0100                	addi	s0,sp,128
 184:	0405                	addi	s0,s0,1
 186:	0809                	addi	a6,a6,2
 188:	0100                	addi	s0,sp,128
 18a:	0405                	addi	s0,s0,1
 18c:	0209                	addi	tp,tp,2 # 2 <_start+0x2>
 18e:	0100                	addi	s0,sp,128
 190:	0405                	addi	s0,s0,1
 192:	0009                	c.nop	2
 194:	0600                	addi	s0,sp,768
 196:	0501                	addi	a0,a0,0
 198:	0904                	addi	s1,sp,144
 19a:	0000                	unimp
 19c:	0501                	addi	a0,a0,0
 19e:	0904                	addi	s1,sp,144
 1a0:	0000                	unimp
 1a2:	0501                	addi	a0,a0,0
 1a4:	0904                	addi	s1,sp,144
 1a6:	0000                	unimp
 1a8:	0501                	addi	a0,a0,0
 1aa:	0904                	addi	s1,sp,144
 1ac:	0000                	unimp
 1ae:	0501                	addi	a0,a0,0
 1b0:	0904                	addi	s1,sp,144
 1b2:	0004                	.insn	2, 0x0004
 1b4:	0501                	addi	a0,a0,0
 1b6:	0904                	addi	s1,sp,144
 1b8:	0000                	unimp
 1ba:	0501                	addi	a0,a0,0
 1bc:	0904                	addi	s1,sp,144
 1be:	0002                	c.slli64	zero
 1c0:	0501                	addi	a0,a0,0
 1c2:	0904                	addi	s1,sp,144
 1c4:	0006                	c.slli	zero,0x1
 1c6:	0106                	slli	sp,sp,0x1
 1c8:	0405                	addi	s0,s0,1
 1ca:	0209                	addi	tp,tp,2 # 2 <_start+0x2>
 1cc:	0100                	addi	s0,sp,128
 1ce:	0405                	addi	s0,s0,1
 1d0:	0409                	addi	s0,s0,2
 1d2:	0600                	addi	s0,sp,768
 1d4:	0501                	addi	a0,a0,0
 1d6:	0904                	addi	s1,sp,144
 1d8:	0002                	c.slli64	zero
 1da:	0106                	slli	sp,sp,0x1
 1dc:	0405                	addi	s0,s0,1
 1de:	0c09                	addi	s8,s8,2
 1e0:	0600                	addi	s0,sp,768
 1e2:	0501                	addi	a0,a0,0
 1e4:	0904                	addi	s1,sp,144
 1e6:	000a                	c.slli	zero,0x2
 1e8:	0200                	addi	s0,sp,256
 1ea:	0104                	addi	s1,sp,128
 1ec:	0501                	addi	a0,a0,0
 1ee:	0904                	addi	s1,sp,144
 1f0:	0000                	unimp
 1f2:	0106                	slli	sp,sp,0x1
 1f4:	0405                	addi	s0,s0,1
 1f6:	0209                	addi	tp,tp,2 # 2 <_start+0x2>
 1f8:	0000                	unimp
 1fa:	0402                	c.slli64	s0
 1fc:	0600                	addi	s0,sp,768
 1fe:	0501                	addi	a0,a0,0
 200:	0904                	addi	s1,sp,144
 202:	0000                	unimp
 204:	0200                	addi	s0,sp,256
 206:	0304                	addi	s1,sp,384
 208:	0501                	addi	a0,a0,0
 20a:	0904                	addi	s1,sp,144
 20c:	0008                	.insn	2, 0x0008
 20e:	0200                	addi	s0,sp,256
 210:	0104                	addi	s1,sp,128
 212:	0106                	slli	sp,sp,0x1
 214:	0405                	addi	s0,s0,1
 216:	0209                	addi	tp,tp,2 # 2 <_start+0x2>
 218:	0000                	unimp
 21a:	0402                	c.slli64	s0
 21c:	04050107          	.insn	4, 0x04050107
 220:	0c09                	addi	s8,s8,2
 222:	0100                	addi	s0,sp,128
 224:	0405                	addi	s0,s0,1
 226:	0209                	addi	tp,tp,2 # 2 <_start+0x2>
 228:	0100                	addi	s0,sp,128
 22a:	0405                	addi	s0,s0,1
 22c:	0209                	addi	tp,tp,2 # 2 <_start+0x2>
 22e:	0600                	addi	s0,sp,768
 230:	0501                	addi	a0,a0,0
 232:	0904                	addi	s1,sp,144
 234:	0000                	unimp
 236:	0200                	addi	s0,sp,256
 238:	0004                	.insn	2, 0x0004
 23a:	0501                	addi	a0,a0,0
 23c:	0904                	addi	s1,sp,144
 23e:	0000                	unimp
 240:	0501                	addi	a0,a0,0
 242:	0904                	addi	s1,sp,144
 244:	0000                	unimp
 246:	0200                	addi	s0,sp,256
 248:	0704                	addi	s1,sp,896
 24a:	0106                	slli	sp,sp,0x1
 24c:	0405                	addi	s0,s0,1
 24e:	0209                	addi	tp,tp,2 # 2 <_start+0x2>
 250:	0100                	addi	s0,sp,128
 252:	0405                	addi	s0,s0,1
 254:	0409                	addi	s0,s0,2
 256:	0000                	unimp
 258:	0402                	c.slli64	s0
 25a:	0600                	addi	s0,sp,768
 25c:	0501                	addi	a0,a0,0
 25e:	0904                	addi	s1,sp,144
 260:	0000                	unimp
 262:	0200                	addi	s0,sp,256
 264:	0704                	addi	s1,sp,896
 266:	0106                	slli	sp,sp,0x1
 268:	0405                	addi	s0,s0,1
 26a:	0409                	addi	s0,s0,2
 26c:	0100                	addi	s0,sp,128
 26e:	0405                	addi	s0,s0,1
 270:	0609                	addi	a2,a2,2
 272:	0000                	unimp
 274:	0402                	c.slli64	s0
 276:	0600                	addi	s0,sp,768
 278:	0501                	addi	a0,a0,0
 27a:	0904                	addi	s1,sp,144
 27c:	0000                	unimp
 27e:	0200                	addi	s0,sp,256
 280:	0704                	addi	s1,sp,896
 282:	0106                	slli	sp,sp,0x1
 284:	0405                	addi	s0,s0,1
 286:	0409                	addi	s0,s0,2
 288:	0100                	addi	s0,sp,128
 28a:	0405                	addi	s0,s0,1
 28c:	0809                	addi	a6,a6,2
 28e:	0000                	unimp
 290:	0402                	c.slli64	s0
 292:	0600                	addi	s0,sp,768
 294:	0501                	addi	a0,a0,0
 296:	0904                	addi	s1,sp,144
 298:	0000                	unimp
 29a:	0200                	addi	s0,sp,256
 29c:	0704                	addi	s1,sp,896
 29e:	0106                	slli	sp,sp,0x1
 2a0:	0405                	addi	s0,s0,1
 2a2:	0809                	addi	a6,a6,2
 2a4:	0000                	unimp
 2a6:	0402                	c.slli64	s0
 2a8:	0608                	addi	a0,sp,768
 2aa:	0501                	addi	a0,a0,0
 2ac:	0904                	addi	s1,sp,144
 2ae:	0000                	unimp
 2b0:	0106                	slli	sp,sp,0x1
 2b2:	0405                	addi	s0,s0,1
 2b4:	0409                	addi	s0,s0,2
 2b6:	0000                	unimp
 2b8:	0402                	c.slli64	s0
 2ba:	0600                	addi	s0,sp,768
 2bc:	0501                	addi	a0,a0,0
 2be:	0904                	addi	s1,sp,144
 2c0:	0000                	unimp
 2c2:	0200                	addi	s0,sp,256
 2c4:	0a04                	addi	s1,sp,272
 2c6:	0501                	addi	a0,a0,0
 2c8:	0904                	addi	s1,sp,144
 2ca:	0004                	.insn	2, 0x0004
 2cc:	0106                	slli	sp,sp,0x1
 2ce:	0405                	addi	s0,s0,1
 2d0:	0409                	addi	s0,s0,2
 2d2:	0000                	unimp
 2d4:	0402                	c.slli64	s0
 2d6:	0108                	addi	a0,sp,128
 2d8:	0405                	addi	s0,s0,1
 2da:	0209                	addi	tp,tp,2 # 2 <_start+0x2>
 2dc:	0000                	unimp
 2de:	0402                	c.slli64	s0
 2e0:	060e                	slli	a2,a2,0x3
 2e2:	0501                	addi	a0,a0,0
 2e4:	0904                	addi	s1,sp,144
 2e6:	0000                	unimp
 2e8:	0200                	addi	s0,sp,256
 2ea:	0004                	.insn	2, 0x0004
 2ec:	0501                	addi	a0,a0,0
 2ee:	0904                	addi	s1,sp,144
 2f0:	0000                	unimp
 2f2:	0200                	addi	s0,sp,256
 2f4:	0e04                	addi	s1,sp,784
 2f6:	0106                	slli	sp,sp,0x1
 2f8:	0405                	addi	s0,s0,1
 2fa:	0409                	addi	s0,s0,2
 2fc:	0000                	unimp
 2fe:	0402                	c.slli64	s0
 300:	0600                	addi	s0,sp,768
 302:	0501                	addi	a0,a0,0
 304:	0904                	addi	s1,sp,144
 306:	0000                	unimp
 308:	0106                	slli	sp,sp,0x1
 30a:	0405                	addi	s0,s0,1
 30c:	0009                	c.nop	2
 30e:	0600                	addi	s0,sp,768
 310:	0501                	addi	a0,a0,0
 312:	0904                	addi	s1,sp,144
 314:	0000                	unimp
 316:	0518                	addi	a4,sp,640
 318:	0904                	addi	s1,sp,144
 31a:	0000                	unimp
 31c:	090305a3          	sb	a6,139(t1)
 320:	0000                	unimp
 322:	0518                	addi	a4,sp,640
 324:	00000903          	lb	s2,0(zero) # 0 <_start>
 328:	0106                	slli	sp,sp,0x1
 32a:	0305                	addi	t1,t1,1
 32c:	0009                	c.nop	2
 32e:	7800                	.insn	2, 0x7800
 330:	0105                	addi	sp,sp,1
 332:	1009                	c.nop	-30
 334:	0000                	unimp
 336:	0402                	c.slli64	s0
 338:	0304                	addi	s1,sp,384
 33a:	7e85                	lui	t4,0xfffe1
 33c:	0501                	addi	a0,a0,0
 33e:	0904                	addi	s1,sp,144
 340:	0004                	.insn	2, 0x0004
 342:	0200                	addi	s0,sp,256
 344:	0804                	addi	s1,sp,16
 346:	0501                	addi	a0,a0,0
 348:	0904                	addi	s1,sp,144
 34a:	0002                	c.slli64	zero
 34c:	0200                	addi	s0,sp,256
 34e:	0404                	addi	s1,sp,512
 350:	0501                	addi	a0,a0,0
 352:	0904                	addi	s1,sp,144
 354:	0004                	.insn	2, 0x0004
 356:	0200                	addi	s0,sp,256
 358:	0704                	addi	s1,sp,896
 35a:	0501                	addi	a0,a0,0
 35c:	0904                	addi	s1,sp,144
 35e:	0004                	.insn	2, 0x0004
 360:	0501                	addi	a0,a0,0
 362:	0904                	addi	s1,sp,144
 364:	0000                	unimp
 366:	0200                	addi	s0,sp,256
 368:	0504                	addi	s1,sp,640
 36a:	2306                	.insn	2, 0x2306
 36c:	0405                	addi	s0,s0,1
 36e:	0209                	addi	tp,tp,2 # 2 <_start+0x2>
 370:	0600                	addi	s0,sp,768
 372:	0501                	addi	a0,a0,0
 374:	0904                	addi	s1,sp,144
 376:	0002                	c.slli64	zero
 378:	0501                	addi	a0,a0,0
 37a:	0904                	addi	s1,sp,144
 37c:	0002                	c.slli64	zero
 37e:	0200                	addi	s0,sp,256
 380:	0c04                	addi	s1,sp,528
 382:	0106                	slli	sp,sp,0x1
 384:	0405                	addi	s0,s0,1
 386:	0209                	addi	tp,tp,2 # 2 <_start+0x2>
 388:	0600                	addi	s0,sp,768
 38a:	0501                	addi	a0,a0,0
 38c:	0904                	addi	s1,sp,144
 38e:	0002                	c.slli64	zero
 390:	0501                	addi	a0,a0,0
 392:	0904                	addi	s1,sp,144
 394:	0000                	unimp
 396:	0200                	addi	s0,sp,256
 398:	0004                	.insn	2, 0x0004
 39a:	2006                	.insn	2, 0x2006
 39c:	0405                	addi	s0,s0,1
 39e:	0009                	c.nop	2
 3a0:	0000                	unimp
 3a2:	0402                	c.slli64	s0
 3a4:	0605                	addi	a2,a2,1
 3a6:	051a                	slli	a0,a0,0x6
 3a8:	0904                	addi	s1,sp,144
 3aa:	0002                	c.slli64	zero
 3ac:	0200                	addi	s0,sp,256
 3ae:	0004                	.insn	2, 0x0004
 3b0:	0514                	addi	a3,sp,640
 3b2:	00020907          	.insn	4, 0x00020907
 3b6:	1a06                	slli	s4,s4,0x21
 3b8:	0405                	addi	s0,s0,1
 3ba:	0009                	c.nop	2
 3bc:	0100                	addi	s0,sp,128
 3be:	0405                	addi	s0,s0,1
 3c0:	0009                	c.nop	2
 3c2:	0100                	addi	s0,sp,128
 3c4:	0405                	addi	s0,s0,1
 3c6:	0009                	c.nop	2
 3c8:	0100                	addi	s0,sp,128
 3ca:	0405                	addi	s0,s0,1
 3cc:	0009                	c.nop	2
 3ce:	0000                	unimp
 3d0:	0402                	c.slli64	s0
 3d2:	0101                	addi	sp,sp,0
 3d4:	0405                	addi	s0,s0,1
 3d6:	0609                	addi	a2,a2,2
 3d8:	0000                	unimp
 3da:	0402                	c.slli64	s0
 3dc:	05010603          	lb	a2,80(sp)
 3e0:	0904                	addi	s1,sp,144
 3e2:	000a                	c.slli	zero,0x2
 3e4:	0200                	addi	s0,sp,256
 3e6:	0e04                	addi	s1,sp,784
 3e8:	0106                	slli	sp,sp,0x1
 3ea:	0405                	addi	s0,s0,1
 3ec:	0c09                	addi	s8,s8,2
 3ee:	0600                	addi	s0,sp,768
 3f0:	0501                	addi	a0,a0,0
 3f2:	0904                	addi	s1,sp,144
 3f4:	0000                	unimp
 3f6:	0200                	addi	s0,sp,256
 3f8:	0004                	.insn	2, 0x0004
 3fa:	0106                	slli	sp,sp,0x1
 3fc:	0405                	addi	s0,s0,1
 3fe:	0009                	c.nop	2
 400:	1900                	addi	s0,sp,176
 402:	0405                	addi	s0,s0,1
 404:	0009                	c.nop	2
 406:	0600                	addi	s0,sp,768
 408:	0501                	addi	a0,a0,0
 40a:	00080907          	.insn	4, 0x00080907
 40e:	2006                	.insn	2, 0x2006
 410:	0805                	addi	a6,a6,1
 412:	0009                	c.nop	2
 414:	0600                	addi	s0,sp,768
 416:	0501                	addi	a0,a0,0
 418:	0004090b          	.insn	4, 0x0004090b
 41c:	1806                	slli	a6,a6,0x21
 41e:	0805                	addi	a6,a6,1
 420:	0009                	c.nop	2
 422:	0600                	addi	s0,sp,768
 424:	0501                	addi	a0,a0,0
 426:	0002090b          	.insn	4, 0x0002090b
 42a:	0529                	addi	a0,a0,10
 42c:	0904                	addi	s1,sp,144
 42e:	0012                	c.slli	zero,0x4
 430:	0501                	addi	a0,a0,0
 432:	0904                	addi	s1,sp,144
 434:	0000                	unimp
 436:	1206                	slli	tp,tp,0x21
 438:	0805                	addi	a6,a6,1
 43a:	0009                	c.nop	2
 43c:	1c00                	addi	s0,sp,560
 43e:	0405                	addi	s0,s0,1
 440:	0009                	c.nop	2
 442:	0100                	addi	s0,sp,128
 444:	0405                	addi	s0,s0,1
 446:	0009                	c.nop	2
 448:	0100                	addi	s0,sp,128
 44a:	0405                	addi	s0,s0,1
 44c:	0009                	c.nop	2
 44e:	0100                	addi	s0,sp,128
 450:	0405                	addi	s0,s0,1
 452:	0009                	c.nop	2
 454:	0100                	addi	s0,sp,128
 456:	0405                	addi	s0,s0,1
 458:	0409                	addi	s0,s0,2
 45a:	0100                	addi	s0,sp,128
 45c:	0405                	addi	s0,s0,1
 45e:	0009                	c.nop	2
 460:	0100                	addi	s0,sp,128
 462:	0405                	addi	s0,s0,1
 464:	0209                	addi	tp,tp,2 # 2 <_start+0x2>
 466:	0100                	addi	s0,sp,128
 468:	0405                	addi	s0,s0,1
 46a:	0609                	addi	a2,a2,2
 46c:	0600                	addi	s0,sp,768
 46e:	0501                	addi	a0,a0,0
 470:	0904                	addi	s1,sp,144
 472:	0002                	c.slli64	zero
 474:	0501                	addi	a0,a0,0
 476:	0904                	addi	s1,sp,144
 478:	0004                	.insn	2, 0x0004
 47a:	0106                	slli	sp,sp,0x1
 47c:	0405                	addi	s0,s0,1
 47e:	0209                	addi	tp,tp,2 # 2 <_start+0x2>
 480:	0600                	addi	s0,sp,768
 482:	0501                	addi	a0,a0,0
 484:	0904                	addi	s1,sp,144
 486:	000c                	.insn	2, 0x000c
 488:	0106                	slli	sp,sp,0x1
 48a:	0405                	addi	s0,s0,1
 48c:	0a09                	addi	s4,s4,2
 48e:	0000                	unimp
 490:	0402                	c.slli64	s0
 492:	0101                	addi	sp,sp,0
 494:	0405                	addi	s0,s0,1
 496:	0009                	c.nop	2
 498:	0600                	addi	s0,sp,768
 49a:	0501                	addi	a0,a0,0
 49c:	0904                	addi	s1,sp,144
 49e:	0002                	c.slli64	zero
 4a0:	0200                	addi	s0,sp,256
 4a2:	0004                	.insn	2, 0x0004
 4a4:	0106                	slli	sp,sp,0x1
 4a6:	0405                	addi	s0,s0,1
 4a8:	0009                	c.nop	2
 4aa:	0000                	unimp
 4ac:	0402                	c.slli64	s0
 4ae:	04050103          	lb	sp,64(a0)
 4b2:	0809                	addi	a6,a6,2
 4b4:	0000                	unimp
 4b6:	0402                	c.slli64	s0
 4b8:	0601                	addi	a2,a2,0
 4ba:	0501                	addi	a0,a0,0
 4bc:	0904                	addi	s1,sp,144
 4be:	0002                	c.slli64	zero
 4c0:	0200                	addi	s0,sp,256
 4c2:	0704                	addi	s1,sp,896
 4c4:	0501                	addi	a0,a0,0
 4c6:	0904                	addi	s1,sp,144
 4c8:	0008                	.insn	2, 0x0008
 4ca:	0501                	addi	a0,a0,0
 4cc:	0904                	addi	s1,sp,144
 4ce:	0002                	c.slli64	zero
 4d0:	0501                	addi	a0,a0,0
 4d2:	0904                	addi	s1,sp,144
 4d4:	0002                	c.slli64	zero
 4d6:	0501                	addi	a0,a0,0
 4d8:	0904                	addi	s1,sp,144
 4da:	0002                	c.slli64	zero
 4dc:	0106                	slli	sp,sp,0x1
 4de:	0405                	addi	s0,s0,1
 4e0:	0009                	c.nop	2
 4e2:	0000                	unimp
 4e4:	0402                	c.slli64	s0
 4e6:	0100                	addi	s0,sp,128
 4e8:	0405                	addi	s0,s0,1
 4ea:	0009                	c.nop	2
 4ec:	0100                	addi	s0,sp,128
 4ee:	0405                	addi	s0,s0,1
 4f0:	0009                	c.nop	2
 4f2:	0000                	unimp
 4f4:	0402                	c.slli64	s0
 4f6:	05010607          	.insn	4, 0x05010607
 4fa:	0904                	addi	s1,sp,144
 4fc:	0002                	c.slli64	zero
 4fe:	0501                	addi	a0,a0,0
 500:	0904                	addi	s1,sp,144
 502:	0004                	.insn	2, 0x0004
 504:	0200                	addi	s0,sp,256
 506:	0004                	.insn	2, 0x0004
 508:	0106                	slli	sp,sp,0x1
 50a:	0405                	addi	s0,s0,1
 50c:	0009                	c.nop	2
 50e:	0000                	unimp
 510:	0402                	c.slli64	s0
 512:	05010607          	.insn	4, 0x05010607
 516:	0904                	addi	s1,sp,144
 518:	0004                	.insn	2, 0x0004
 51a:	0501                	addi	a0,a0,0
 51c:	0904                	addi	s1,sp,144
 51e:	0006                	c.slli	zero,0x1
 520:	0200                	addi	s0,sp,256
 522:	0004                	.insn	2, 0x0004
 524:	0106                	slli	sp,sp,0x1
 526:	0405                	addi	s0,s0,1
 528:	0009                	c.nop	2
 52a:	0000                	unimp
 52c:	0402                	c.slli64	s0
 52e:	05010607          	.insn	4, 0x05010607
 532:	0904                	addi	s1,sp,144
 534:	0004                	.insn	2, 0x0004
 536:	0501                	addi	a0,a0,0
 538:	0904                	addi	s1,sp,144
 53a:	0008                	.insn	2, 0x0008
 53c:	0200                	addi	s0,sp,256
 53e:	0004                	.insn	2, 0x0004
 540:	0106                	slli	sp,sp,0x1
 542:	0405                	addi	s0,s0,1
 544:	0009                	c.nop	2
 546:	0000                	unimp
 548:	0402                	c.slli64	s0
 54a:	05010607          	.insn	4, 0x05010607
 54e:	0904                	addi	s1,sp,144
 550:	0008                	.insn	2, 0x0008
 552:	0200                	addi	s0,sp,256
 554:	0804                	addi	s1,sp,16
 556:	0106                	slli	sp,sp,0x1
 558:	0405                	addi	s0,s0,1
 55a:	0009                	c.nop	2
 55c:	0600                	addi	s0,sp,768
 55e:	0501                	addi	a0,a0,0
 560:	0904                	addi	s1,sp,144
 562:	0004                	.insn	2, 0x0004
 564:	0200                	addi	s0,sp,256
 566:	0004                	.insn	2, 0x0004
 568:	0106                	slli	sp,sp,0x1
 56a:	0405                	addi	s0,s0,1
 56c:	0009                	c.nop	2
 56e:	0000                	unimp
 570:	0402                	c.slli64	s0
 572:	010a                	slli	sp,sp,0x2
 574:	0405                	addi	s0,s0,1
 576:	0409                	addi	s0,s0,2
 578:	0600                	addi	s0,sp,768
 57a:	0501                	addi	a0,a0,0
 57c:	0904                	addi	s1,sp,144
 57e:	0004                	.insn	2, 0x0004
 580:	0200                	addi	s0,sp,256
 582:	0804                	addi	s1,sp,16
 584:	0501                	addi	a0,a0,0
 586:	0904                	addi	s1,sp,144
 588:	0002                	c.slli64	zero
 58a:	0200                	addi	s0,sp,256
 58c:	0e04                	addi	s1,sp,784
 58e:	0106                	slli	sp,sp,0x1
 590:	0405                	addi	s0,s0,1
 592:	0009                	c.nop	2
 594:	0000                	unimp
 596:	0402                	c.slli64	s0
 598:	0100                	addi	s0,sp,128
 59a:	0405                	addi	s0,s0,1
 59c:	0009                	c.nop	2
 59e:	0000                	unimp
 5a0:	0402                	c.slli64	s0
 5a2:	060e                	slli	a2,a2,0x3
 5a4:	0501                	addi	a0,a0,0
 5a6:	0904                	addi	s1,sp,144
 5a8:	0006                	c.slli	zero,0x1
 5aa:	0200                	addi	s0,sp,256
 5ac:	0004                	.insn	2, 0x0004
 5ae:	0106                	slli	sp,sp,0x1
 5b0:	0405                	addi	s0,s0,1
 5b2:	0009                	c.nop	2
 5b4:	0600                	addi	s0,sp,768
 5b6:	0501                	addi	a0,a0,0
 5b8:	0904                	addi	s1,sp,144
 5ba:	0002                	c.slli64	zero
 5bc:	0501                	addi	a0,a0,0
 5be:	0904                	addi	s1,sp,144
 5c0:	0000                	unimp
 5c2:	0200                	addi	s0,sp,256
 5c4:	0404                	addi	s1,sp,512
 5c6:	05016203          	.insn	4, 0x05016203
 5ca:	0904                	addi	s1,sp,144
 5cc:	0004                	.insn	2, 0x0004
 5ce:	0200                	addi	s0,sp,256
 5d0:	0804                	addi	s1,sp,16
 5d2:	0501                	addi	a0,a0,0
 5d4:	0904                	addi	s1,sp,144
 5d6:	0002                	c.slli64	zero
 5d8:	0200                	addi	s0,sp,256
 5da:	0404                	addi	s1,sp,512
 5dc:	0501                	addi	a0,a0,0
 5de:	0904                	addi	s1,sp,144
 5e0:	0004                	.insn	2, 0x0004
 5e2:	0200                	addi	s0,sp,256
 5e4:	0704                	addi	s1,sp,896
 5e6:	0501                	addi	a0,a0,0
 5e8:	0904                	addi	s1,sp,144
 5ea:	0004                	.insn	2, 0x0004
 5ec:	0200                	addi	s0,sp,256
 5ee:	0e04                	addi	s1,sp,784
 5f0:	0501                	addi	a0,a0,0
 5f2:	0904                	addi	s1,sp,144
 5f4:	0002                	c.slli64	zero
 5f6:	0200                	addi	s0,sp,256
 5f8:	0004                	.insn	2, 0x0004
 5fa:	2906                	.insn	2, 0x2906
 5fc:	0805                	addi	a6,a6,1
 5fe:	0009                	c.nop	2
 600:	1900                	addi	s0,sp,176
 602:	0805                	addi	a6,a6,1
 604:	0009                	c.nop	2
 606:	0600                	addi	s0,sp,768
 608:	0501                	addi	a0,a0,0
 60a:	0004090b          	.insn	4, 0x0004090b
 60e:	1806                	slli	a6,a6,0x21
 610:	0805                	addi	a6,a6,1
 612:	0009                	c.nop	2
 614:	0600                	addi	s0,sp,768
 616:	0501                	addi	a0,a0,0
 618:	0004090b          	.insn	4, 0x0004090b
 61c:	0518                	addi	a4,sp,640
 61e:	0911                	addi	s2,s2,4
 620:	0004                	.insn	2, 0x0004
 622:	0501                	addi	a0,a0,0
 624:	091e                	slli	s2,s2,0x7
 626:	0004                	.insn	2, 0x0004
 628:	0501                	addi	a0,a0,0
 62a:	0004090b          	.insn	4, 0x0004090b
 62e:	051a                	slli	a0,a0,0x6
 630:	0908                	addi	a0,sp,144
 632:	0010                	.insn	2, 0x0010
 634:	0501                	addi	a0,a0,0
 636:	0908                	addi	a0,sp,144
 638:	0000                	unimp
 63a:	0515                	addi	a0,a0,5
 63c:	0004090b          	.insn	4, 0x0004090b
 640:	0519                	addi	a0,a0,6
 642:	0908                	addi	a0,sp,144
 644:	0004                	.insn	2, 0x0004
 646:	090b0513          	addi	a0,s6,144
 64a:	0002                	c.slli64	zero
 64c:	1806                	slli	a6,a6,0x21
 64e:	0805                	addi	a6,a6,1
 650:	0009                	c.nop	2
 652:	1800                	addi	s0,sp,48
 654:	0805                	addi	a6,a6,1
 656:	0009                	c.nop	2
 658:	1900                	addi	s0,sp,176
 65a:	0805                	addi	a6,a6,1
 65c:	0009                	c.nop	2
 65e:	0100                	addi	s0,sp,128
 660:	0805                	addi	a6,a6,1
 662:	0009                	c.nop	2
 664:	0100                	addi	s0,sp,128
 666:	0805                	addi	a6,a6,1
 668:	0009                	c.nop	2
 66a:	0100                	addi	s0,sp,128
 66c:	0805                	addi	a6,a6,1
 66e:	0009                	c.nop	2
 670:	0100                	addi	s0,sp,128
 672:	0805                	addi	a6,a6,1
 674:	0009                	c.nop	2
 676:	0100                	addi	s0,sp,128
 678:	0805                	addi	a6,a6,1
 67a:	0009                	c.nop	2
 67c:	0100                	addi	s0,sp,128
 67e:	0805                	addi	a6,a6,1
 680:	0209                	addi	tp,tp,2 # 2 <_start+0x2>
 682:	0100                	addi	s0,sp,128
 684:	0805                	addi	a6,a6,1
 686:	0609                	addi	a2,a2,2
 688:	0600                	addi	s0,sp,768
 68a:	0501                	addi	a0,a0,0
 68c:	0908                	addi	a0,sp,144
 68e:	0002                	c.slli64	zero
 690:	0501                	addi	a0,a0,0
 692:	0908                	addi	a0,sp,144
 694:	0002                	c.slli64	zero
 696:	0106                	slli	sp,sp,0x1
 698:	0805                	addi	a6,a6,1
 69a:	0409                	addi	s0,s0,2
 69c:	0600                	addi	s0,sp,768
 69e:	0501                	addi	a0,a0,0
 6a0:	0908                	addi	a0,sp,144
 6a2:	000c                	.insn	2, 0x000c
 6a4:	0106                	slli	sp,sp,0x1
 6a6:	0805                	addi	a6,a6,1
 6a8:	0809                	addi	a6,a6,2
 6aa:	0000                	unimp
 6ac:	0402                	c.slli64	s0
 6ae:	0101                	addi	sp,sp,0
 6b0:	0805                	addi	a6,a6,1
 6b2:	0009                	c.nop	2
 6b4:	0600                	addi	s0,sp,768
 6b6:	0501                	addi	a0,a0,0
 6b8:	0908                	addi	a0,sp,144
 6ba:	0002                	c.slli64	zero
 6bc:	0200                	addi	s0,sp,256
 6be:	0004                	.insn	2, 0x0004
 6c0:	0106                	slli	sp,sp,0x1
 6c2:	0805                	addi	a6,a6,1
 6c4:	0009                	c.nop	2
 6c6:	0000                	unimp
 6c8:	0402                	c.slli64	s0
 6ca:	08050103          	lb	sp,128(a0)
 6ce:	0809                	addi	a6,a6,2
 6d0:	0000                	unimp
 6d2:	0402                	c.slli64	s0
 6d4:	0601                	addi	a2,a2,0
 6d6:	0501                	addi	a0,a0,0
 6d8:	0908                	addi	a0,sp,144
 6da:	0002                	c.slli64	zero
 6dc:	0200                	addi	s0,sp,256
 6de:	0704                	addi	s1,sp,896
 6e0:	0501                	addi	a0,a0,0
 6e2:	0908                	addi	a0,sp,144
 6e4:	0008                	.insn	2, 0x0008
 6e6:	0501                	addi	a0,a0,0
 6e8:	0908                	addi	a0,sp,144
 6ea:	0002                	c.slli64	zero
 6ec:	0106                	slli	sp,sp,0x1
 6ee:	0805                	addi	a6,a6,1
 6f0:	0209                	addi	tp,tp,2 # 2 <_start+0x2>
 6f2:	0000                	unimp
 6f4:	0402                	c.slli64	s0
 6f6:	0100                	addi	s0,sp,128
 6f8:	0805                	addi	a6,a6,1
 6fa:	0009                	c.nop	2
 6fc:	0100                	addi	s0,sp,128
 6fe:	0805                	addi	a6,a6,1
 700:	0009                	c.nop	2
 702:	0000                	unimp
 704:	0402                	c.slli64	s0
 706:	05010607          	.insn	4, 0x05010607
 70a:	0908                	addi	a0,sp,144
 70c:	0002                	c.slli64	zero
 70e:	0200                	addi	s0,sp,256
 710:	0004                	.insn	2, 0x0004
 712:	0106                	slli	sp,sp,0x1
 714:	0805                	addi	a6,a6,1
 716:	0009                	c.nop	2
 718:	0000                	unimp
 71a:	0402                	c.slli64	s0
 71c:	05010607          	.insn	4, 0x05010607
 720:	0908                	addi	a0,sp,144
 722:	0004                	.insn	2, 0x0004
 724:	0501                	addi	a0,a0,0
 726:	0908                	addi	a0,sp,144
 728:	0002                	c.slli64	zero
 72a:	0501                	addi	a0,a0,0
 72c:	0908                	addi	a0,sp,144
 72e:	0002                	c.slli64	zero
 730:	0501                	addi	a0,a0,0
 732:	0908                	addi	a0,sp,144
 734:	0004                	.insn	2, 0x0004
 736:	0501                	addi	a0,a0,0
 738:	0908                	addi	a0,sp,144
 73a:	0002                	c.slli64	zero
 73c:	0200                	addi	s0,sp,256
 73e:	0004                	.insn	2, 0x0004
 740:	0106                	slli	sp,sp,0x1
 742:	0805                	addi	a6,a6,1
 744:	0009                	c.nop	2
 746:	0000                	unimp
 748:	0402                	c.slli64	s0
 74a:	05010607          	.insn	4, 0x05010607
 74e:	0908                	addi	a0,sp,144
 750:	0004                	.insn	2, 0x0004
 752:	0501                	addi	a0,a0,0
 754:	0908                	addi	a0,sp,144
 756:	0008                	.insn	2, 0x0008
 758:	0200                	addi	s0,sp,256
 75a:	0004                	.insn	2, 0x0004
 75c:	0106                	slli	sp,sp,0x1
 75e:	0805                	addi	a6,a6,1
 760:	0009                	c.nop	2
 762:	0000                	unimp
 764:	0402                	c.slli64	s0
 766:	05010607          	.insn	4, 0x05010607
 76a:	0908                	addi	a0,sp,144
 76c:	000a                	c.slli	zero,0x2
 76e:	0200                	addi	s0,sp,256
 770:	0804                	addi	s1,sp,16
 772:	0106                	slli	sp,sp,0x1
 774:	0805                	addi	a6,a6,1
 776:	0009                	c.nop	2
 778:	0600                	addi	s0,sp,768
 77a:	0501                	addi	a0,a0,0
 77c:	0908                	addi	a0,sp,144
 77e:	0002                	c.slli64	zero
 780:	0200                	addi	s0,sp,256
 782:	0004                	.insn	2, 0x0004
 784:	0106                	slli	sp,sp,0x1
 786:	0805                	addi	a6,a6,1
 788:	0009                	c.nop	2
 78a:	0000                	unimp
 78c:	0402                	c.slli64	s0
 78e:	010a                	slli	sp,sp,0x2
 790:	0805                	addi	a6,a6,1
 792:	0809                	addi	a6,a6,2
 794:	0000                	unimp
 796:	0402                	c.slli64	s0
 798:	0608                	addi	a0,sp,768
 79a:	0501                	addi	a0,a0,0
 79c:	0908                	addi	a0,sp,144
 79e:	0002                	c.slli64	zero
 7a0:	0200                	addi	s0,sp,256
 7a2:	0e04                	addi	s1,sp,784
 7a4:	0106                	slli	sp,sp,0x1
 7a6:	0805                	addi	a6,a6,1
 7a8:	0409                	addi	s0,s0,2
 7aa:	0000                	unimp
 7ac:	0402                	c.slli64	s0
 7ae:	0100                	addi	s0,sp,128
 7b0:	0805                	addi	a6,a6,1
 7b2:	0009                	c.nop	2
 7b4:	0000                	unimp
 7b6:	0402                	c.slli64	s0
 7b8:	060e                	slli	a2,a2,0x3
 7ba:	0501                	addi	a0,a0,0
 7bc:	0908                	addi	a0,sp,144
 7be:	0004                	.insn	2, 0x0004
 7c0:	0200                	addi	s0,sp,256
 7c2:	0004                	.insn	2, 0x0004
 7c4:	0106                	slli	sp,sp,0x1
 7c6:	0805                	addi	a6,a6,1
 7c8:	0209                	addi	tp,tp,2 # 2 <_start+0x2>
 7ca:	0000                	unimp
 7cc:	0402                	c.slli64	s0
 7ce:	0105                	addi	sp,sp,1
 7d0:	0805                	addi	a6,a6,1
 7d2:	0209                	addi	tp,tp,2 # 2 <_start+0x2>
 7d4:	0600                	addi	s0,sp,768
 7d6:	0501                	addi	a0,a0,0
 7d8:	0908                	addi	a0,sp,144
 7da:	0002                	c.slli64	zero
 7dc:	0501                	addi	a0,a0,0
 7de:	0908                	addi	a0,sp,144
 7e0:	0002                	c.slli64	zero
 7e2:	0200                	addi	s0,sp,256
 7e4:	0c04                	addi	s1,sp,528
 7e6:	0106                	slli	sp,sp,0x1
 7e8:	0805                	addi	a6,a6,1
 7ea:	0209                	addi	tp,tp,2 # 2 <_start+0x2>
 7ec:	0600                	addi	s0,sp,768
 7ee:	0501                	addi	a0,a0,0
 7f0:	0908                	addi	a0,sp,144
 7f2:	0002                	c.slli64	zero
 7f4:	0501                	addi	a0,a0,0
 7f6:	0908                	addi	a0,sp,144
 7f8:	0002                	c.slli64	zero
 7fa:	0501                	addi	a0,a0,0
 7fc:	0908                	addi	a0,sp,144
 7fe:	0000                	unimp
 800:	0200                	addi	s0,sp,256
 802:	0504                	addi	s1,sp,640
 804:	1c06                	slli	s8,s8,0x21
 806:	0405                	addi	s0,s0,1
 808:	0209                	addi	tp,tp,2 # 2 <_start+0x2>
 80a:	0600                	addi	s0,sp,768
 80c:	0501                	addi	a0,a0,0
 80e:	0904                	addi	s1,sp,144
 810:	0002                	c.slli64	zero
 812:	0501                	addi	a0,a0,0
 814:	0904                	addi	s1,sp,144
 816:	0002                	c.slli64	zero
 818:	0200                	addi	s0,sp,256
 81a:	0c04                	addi	s1,sp,528
 81c:	0106                	slli	sp,sp,0x1
 81e:	0405                	addi	s0,s0,1
 820:	0209                	addi	tp,tp,2 # 2 <_start+0x2>
 822:	0600                	addi	s0,sp,768
 824:	0501                	addi	a0,a0,0
 826:	0904                	addi	s1,sp,144
 828:	0002                	c.slli64	zero
 82a:	0501                	addi	a0,a0,0
 82c:	0904                	addi	s1,sp,144
 82e:	0000                	unimp
 830:	0200                	addi	s0,sp,256
 832:	0004                	.insn	2, 0x0004
 834:	2706                	.insn	2, 0x2706
 836:	0705                	addi	a4,a4,1
 838:	0009                	c.nop	2
 83a:	0600                	addi	s0,sp,768
 83c:	0501                	addi	a0,a0,0
 83e:	090a                	slli	s2,s2,0x2
 840:	0004                	.insn	2, 0x0004
 842:	2a06                	.insn	2, 0x2a06
 844:	0405                	addi	s0,s0,1
 846:	0009                	c.nop	2
 848:	0100                	addi	s0,sp,128
 84a:	0405                	addi	s0,s0,1
 84c:	0009                	c.nop	2
 84e:	0100                	addi	s0,sp,128
 850:	0405                	addi	s0,s0,1
 852:	0009                	c.nop	2
 854:	0100                	addi	s0,sp,128
 856:	0405                	addi	s0,s0,1
 858:	0009                	c.nop	2
 85a:	0000                	unimp
 85c:	0402                	c.slli64	s0
 85e:	0101                	addi	sp,sp,0
 860:	0405                	addi	s0,s0,1
 862:	0609                	addi	a2,a2,2
 864:	0000                	unimp
 866:	0402                	c.slli64	s0
 868:	05010603          	lb	a2,80(sp)
 86c:	0904                	addi	s1,sp,144
 86e:	000a                	c.slli	zero,0x2
 870:	0200                	addi	s0,sp,256
 872:	0e04                	addi	s1,sp,784
 874:	0106                	slli	sp,sp,0x1
 876:	0405                	addi	s0,s0,1
 878:	0609                	addi	a2,a2,2
 87a:	0600                	addi	s0,sp,768
 87c:	0501                	addi	a0,a0,0
 87e:	0904                	addi	s1,sp,144
 880:	000a                	c.slli	zero,0x2
 882:	0200                	addi	s0,sp,256
 884:	0004                	.insn	2, 0x0004
 886:	0518                	addi	a4,sp,640
 888:	00040907          	.insn	4, 0x00040907
 88c:	0200                	addi	s0,sp,256
 88e:	0e04                	addi	s1,sp,784
 890:	0516                	slli	a0,a0,0x5
 892:	0904                	addi	s1,sp,144
 894:	0002                	c.slli64	zero
 896:	0501                	addi	a0,a0,0
 898:	0904                	addi	s1,sp,144
 89a:	0000                	unimp
 89c:	0200                	addi	s0,sp,256
 89e:	0004                	.insn	2, 0x0004
 8a0:	0106                	slli	sp,sp,0x1
 8a2:	0405                	addi	s0,s0,1
 8a4:	0009                	c.nop	2
 8a6:	1800                	addi	s0,sp,48
 8a8:	0405                	addi	s0,s0,1
 8aa:	0009                	c.nop	2
 8ac:	0600                	addi	s0,sp,768
 8ae:	0501                	addi	a0,a0,0
 8b0:	00040907          	.insn	4, 0x00040907
 8b4:	2106                	.insn	2, 0x2106
 8b6:	0805                	addi	a6,a6,1
 8b8:	0009                	c.nop	2
 8ba:	0000                	unimp
 8bc:	0402                	c.slli64	s0
 8be:	0601                	addi	a2,a2,0
 8c0:	0501                	addi	a0,a0,0
 8c2:	0914                	addi	a3,sp,144
 8c4:	0004                	.insn	2, 0x0004
 8c6:	0501                	addi	a0,a0,0
 8c8:	0914                	addi	a3,sp,144
 8ca:	0004                	.insn	2, 0x0004
 8cc:	0200                	addi	s0,sp,256
 8ce:	0004                	.insn	2, 0x0004
 8d0:	0501                	addi	a0,a0,0
 8d2:	0004090b          	.insn	4, 0x0004090b
 8d6:	0200                	addi	s0,sp,256
 8d8:	0104                	addi	s1,sp,128
 8da:	0501                	addi	a0,a0,0
 8dc:	0914                	addi	a3,sp,144
 8de:	0002                	c.slli64	zero
 8e0:	0200                	addi	s0,sp,256
 8e2:	0004                	.insn	2, 0x0004
 8e4:	053e                	slli	a0,a0,0xf
 8e6:	0004090b          	.insn	4, 0x0004090b
 8ea:	0501                	addi	a0,a0,0
 8ec:	0000090b          	.insn	4, 0x090b
 8f0:	0200                	addi	s0,sp,256
 8f2:	0404                	addi	s1,sp,512
 8f4:	05014e03          	lbu	t3,80(sp)
 8f8:	0904                	addi	s1,sp,144
 8fa:	0004                	.insn	2, 0x0004
 8fc:	0200                	addi	s0,sp,256
 8fe:	0804                	addi	s1,sp,16
 900:	0501                	addi	a0,a0,0
 902:	0904                	addi	s1,sp,144
 904:	0002                	c.slli64	zero
 906:	0200                	addi	s0,sp,256
 908:	0404                	addi	s1,sp,512
 90a:	0501                	addi	a0,a0,0
 90c:	0904                	addi	s1,sp,144
 90e:	0004                	.insn	2, 0x0004
 910:	0200                	addi	s0,sp,256
 912:	0704                	addi	s1,sp,896
 914:	0501                	addi	a0,a0,0
 916:	0904                	addi	s1,sp,144
 918:	0004                	.insn	2, 0x0004
 91a:	0200                	addi	s0,sp,256
 91c:	0e04                	addi	s1,sp,784
 91e:	0501                	addi	a0,a0,0
 920:	0904                	addi	s1,sp,144
 922:	0004                	.insn	2, 0x0004
 924:	0200                	addi	s0,sp,256
 926:	0004                	.insn	2, 0x0004
 928:	3506                	.insn	2, 0x3506
 92a:	0805                	addi	a6,a6,1
 92c:	0009                	c.nop	2
 92e:	1a00                	addi	s0,sp,304
 930:	0805                	addi	a6,a6,1
 932:	0009                	c.nop	2
 934:	1900                	addi	s0,sp,176
 936:	0805                	addi	a6,a6,1
 938:	0009                	c.nop	2
 93a:	0600                	addi	s0,sp,768
 93c:	0501                	addi	a0,a0,0
 93e:	0911                	addi	s2,s2,4
 940:	0004                	.insn	2, 0x0004
 942:	0501                	addi	a0,a0,0
 944:	091e                	slli	s2,s2,0x7
 946:	0004                	.insn	2, 0x0004
 948:	0501                	addi	a0,a0,0
 94a:	0002090b          	.insn	4, 0x0002090b
 94e:	1806                	slli	a6,a6,0x21
 950:	0805                	addi	a6,a6,1
 952:	0009                	c.nop	2
 954:	0600                	addi	s0,sp,768
 956:	0501                	addi	a0,a0,0
 958:	0006090b          	.insn	4, 0x0006090b
 95c:	1806                	slli	a6,a6,0x21
 95e:	0805                	addi	a6,a6,1
 960:	0009                	c.nop	2
 962:	0600                	addi	s0,sp,768
 964:	0501                	addi	a0,a0,0
 966:	0004090b          	.insn	4, 0x0004090b
 96a:	0501                	addi	a0,a0,0
 96c:	0002090b          	.insn	4, 0x0002090b
 970:	1806                	slli	a6,a6,0x21
 972:	0805                	addi	a6,a6,1
 974:	0009                	c.nop	2
 976:	0600                	addi	s0,sp,768
 978:	051a                	slli	a0,a0,0x6
 97a:	0908                	addi	a0,sp,144
 97c:	0004                	.insn	2, 0x0004
 97e:	0501                	addi	a0,a0,0
 980:	0908                	addi	a0,sp,144
 982:	0000                	unimp
 984:	0514                	addi	a3,sp,640
 986:	0911                	addi	s2,s2,4
 988:	0004                	.insn	2, 0x0004
 98a:	0501                	addi	a0,a0,0
 98c:	091e                	slli	s2,s2,0x7
 98e:	0004                	.insn	2, 0x0004
 990:	051a                	slli	a0,a0,0x6
 992:	0908                	addi	a0,sp,144
 994:	0002                	c.slli64	zero
 996:	0514                	addi	a3,sp,640
 998:	0004090b          	.insn	4, 0x0004090b
 99c:	1806                	slli	a6,a6,0x21
 99e:	0805                	addi	a6,a6,1
 9a0:	0009                	c.nop	2
 9a2:	1900                	addi	s0,sp,176
 9a4:	0805                	addi	a6,a6,1
 9a6:	0009                	c.nop	2
 9a8:	0100                	addi	s0,sp,128
 9aa:	0805                	addi	a6,a6,1
 9ac:	0009                	c.nop	2
 9ae:	0100                	addi	s0,sp,128
 9b0:	0805                	addi	a6,a6,1
 9b2:	0009                	c.nop	2
 9b4:	0100                	addi	s0,sp,128
 9b6:	0805                	addi	a6,a6,1
 9b8:	0009                	c.nop	2
 9ba:	0100                	addi	s0,sp,128
 9bc:	0805                	addi	a6,a6,1
 9be:	0209                	addi	tp,tp,2 # 2 <_start+0x2>
 9c0:	0600                	addi	s0,sp,768
 9c2:	0501                	addi	a0,a0,0
 9c4:	0908                	addi	a0,sp,144
 9c6:	0006                	c.slli	zero,0x1
 9c8:	0501                	addi	a0,a0,0
 9ca:	0908                	addi	a0,sp,144
 9cc:	0002                	c.slli64	zero
 9ce:	0514                	addi	a3,sp,640
 9d0:	0911                	addi	s2,s2,4
 9d2:	0002                	c.slli64	zero
 9d4:	0501                	addi	a0,a0,0
 9d6:	091e                	slli	s2,s2,0x7
 9d8:	0002                	c.slli64	zero
 9da:	051a                	slli	a0,a0,0x6
 9dc:	0908                	addi	a0,sp,144
 9de:	0004                	.insn	2, 0x0004
 9e0:	0106                	slli	sp,sp,0x1
 9e2:	0805                	addi	a6,a6,1
 9e4:	0009                	c.nop	2
 9e6:	0100                	addi	s0,sp,128
 9e8:	0805                	addi	a6,a6,1
 9ea:	0209                	addi	tp,tp,2 # 2 <_start+0x2>
 9ec:	0600                	addi	s0,sp,768
 9ee:	0501                	addi	a0,a0,0
 9f0:	0908                	addi	a0,sp,144
 9f2:	0004                	.insn	2, 0x0004
 9f4:	0106                	slli	sp,sp,0x1
 9f6:	0805                	addi	a6,a6,1
 9f8:	0609                	addi	a2,a2,2
 9fa:	0100                	addi	s0,sp,128
 9fc:	0805                	addi	a6,a6,1
 9fe:	0409                	addi	s0,s0,2
 a00:	0600                	addi	s0,sp,768
 a02:	0501                	addi	a0,a0,0
 a04:	0908                	addi	a0,sp,144
 a06:	000c                	.insn	2, 0x000c
 a08:	0106                	slli	sp,sp,0x1
 a0a:	0805                	addi	a6,a6,1
 a0c:	0a09                	addi	s4,s4,2
 a0e:	0000                	unimp
 a10:	0402                	c.slli64	s0
 a12:	0101                	addi	sp,sp,0
 a14:	0805                	addi	a6,a6,1
 a16:	0009                	c.nop	2
 a18:	0600                	addi	s0,sp,768
 a1a:	0501                	addi	a0,a0,0
 a1c:	0908                	addi	a0,sp,144
 a1e:	0002                	c.slli64	zero
 a20:	0200                	addi	s0,sp,256
 a22:	0004                	.insn	2, 0x0004
 a24:	0106                	slli	sp,sp,0x1
 a26:	0805                	addi	a6,a6,1
 a28:	0009                	c.nop	2
 a2a:	0000                	unimp
 a2c:	0402                	c.slli64	s0
 a2e:	08050103          	lb	sp,128(a0)
 a32:	0809                	addi	a6,a6,2
 a34:	0000                	unimp
 a36:	0402                	c.slli64	s0
 a38:	0601                	addi	a2,a2,0
 a3a:	0501                	addi	a0,a0,0
 a3c:	0908                	addi	a0,sp,144
 a3e:	0002                	c.slli64	zero
 a40:	0200                	addi	s0,sp,256
 a42:	0704                	addi	s1,sp,896
 a44:	0501                	addi	a0,a0,0
 a46:	0908                	addi	a0,sp,144
 a48:	000c                	.insn	2, 0x000c
 a4a:	0106                	slli	sp,sp,0x1
 a4c:	0805                	addi	a6,a6,1
 a4e:	0409                	addi	s0,s0,2
 a50:	0000                	unimp
 a52:	0402                	c.slli64	s0
 a54:	0100                	addi	s0,sp,128
 a56:	0805                	addi	a6,a6,1
 a58:	0009                	c.nop	2
 a5a:	0100                	addi	s0,sp,128
 a5c:	0805                	addi	a6,a6,1
 a5e:	0009                	c.nop	2
 a60:	0000                	unimp
 a62:	0402                	c.slli64	s0
 a64:	05010607          	.insn	4, 0x05010607
 a68:	0908                	addi	a0,sp,144
 a6a:	0002                	c.slli64	zero
 a6c:	0200                	addi	s0,sp,256
 a6e:	0004                	.insn	2, 0x0004
 a70:	0106                	slli	sp,sp,0x1
 a72:	0805                	addi	a6,a6,1
 a74:	0009                	c.nop	2
 a76:	0000                	unimp
 a78:	0402                	c.slli64	s0
 a7a:	05010607          	.insn	4, 0x05010607
 a7e:	0908                	addi	a0,sp,144
 a80:	0004                	.insn	2, 0x0004
 a82:	0501                	addi	a0,a0,0
 a84:	0908                	addi	a0,sp,144
 a86:	0002                	c.slli64	zero
 a88:	0501                	addi	a0,a0,0
 a8a:	0908                	addi	a0,sp,144
 a8c:	0002                	c.slli64	zero
 a8e:	0501                	addi	a0,a0,0
 a90:	0908                	addi	a0,sp,144
 a92:	0004                	.insn	2, 0x0004
 a94:	0501                	addi	a0,a0,0
 a96:	0908                	addi	a0,sp,144
 a98:	0002                	c.slli64	zero
 a9a:	0200                	addi	s0,sp,256
 a9c:	0004                	.insn	2, 0x0004
 a9e:	0106                	slli	sp,sp,0x1
 aa0:	0805                	addi	a6,a6,1
 aa2:	0009                	c.nop	2
 aa4:	0000                	unimp
 aa6:	0402                	c.slli64	s0
 aa8:	05010607          	.insn	4, 0x05010607
 aac:	0908                	addi	a0,sp,144
 aae:	0004                	.insn	2, 0x0004
 ab0:	0501                	addi	a0,a0,0
 ab2:	0908                	addi	a0,sp,144
 ab4:	0008                	.insn	2, 0x0008
 ab6:	0200                	addi	s0,sp,256
 ab8:	0004                	.insn	2, 0x0004
 aba:	0106                	slli	sp,sp,0x1
 abc:	0805                	addi	a6,a6,1
 abe:	0009                	c.nop	2
 ac0:	0000                	unimp
 ac2:	0402                	c.slli64	s0
 ac4:	05010607          	.insn	4, 0x05010607
 ac8:	0908                	addi	a0,sp,144
 aca:	000a                	c.slli	zero,0x2
 acc:	0200                	addi	s0,sp,256
 ace:	0804                	addi	s1,sp,16
 ad0:	0106                	slli	sp,sp,0x1
 ad2:	0805                	addi	a6,a6,1
 ad4:	0009                	c.nop	2
 ad6:	0600                	addi	s0,sp,768
 ad8:	0501                	addi	a0,a0,0
 ada:	0908                	addi	a0,sp,144
 adc:	0004                	.insn	2, 0x0004
 ade:	0200                	addi	s0,sp,256
 ae0:	0004                	.insn	2, 0x0004
 ae2:	0106                	slli	sp,sp,0x1
 ae4:	0805                	addi	a6,a6,1
 ae6:	0009                	c.nop	2
 ae8:	0000                	unimp
 aea:	0402                	c.slli64	s0
 aec:	010a                	slli	sp,sp,0x2
 aee:	0805                	addi	a6,a6,1
 af0:	0409                	addi	s0,s0,2
 af2:	0600                	addi	s0,sp,768
 af4:	0501                	addi	a0,a0,0
 af6:	0908                	addi	a0,sp,144
 af8:	0004                	.insn	2, 0x0004
 afa:	0200                	addi	s0,sp,256
 afc:	0804                	addi	s1,sp,16
 afe:	0501                	addi	a0,a0,0
 b00:	0908                	addi	a0,sp,144
 b02:	0002                	c.slli64	zero
 b04:	0200                	addi	s0,sp,256
 b06:	0e04                	addi	s1,sp,784
 b08:	0106                	slli	sp,sp,0x1
 b0a:	0805                	addi	a6,a6,1
 b0c:	0009                	c.nop	2
 b0e:	0000                	unimp
 b10:	0402                	c.slli64	s0
 b12:	0600                	addi	s0,sp,768
 b14:	0518                	addi	a4,sp,640
 b16:	0908                	addi	a0,sp,144
 b18:	0002                	c.slli64	zero
 b1a:	0200                	addi	s0,sp,256
 b1c:	0e04                	addi	s1,sp,784
 b1e:	0516                	slli	a0,a0,0x5
 b20:	0908                	addi	a0,sp,144
 b22:	0004                	.insn	2, 0x0004
 b24:	0200                	addi	s0,sp,256
 b26:	0004                	.insn	2, 0x0004
 b28:	0518                	addi	a4,sp,640
 b2a:	0908                	addi	a0,sp,144
 b2c:	0004                	.insn	2, 0x0004
 b2e:	0501                	addi	a0,a0,0
 b30:	0908                	addi	a0,sp,144
 b32:	0006                	c.slli	zero,0x1
 b34:	0200                	addi	s0,sp,256
 b36:	0e04                	addi	s1,sp,784
 b38:	0516                	slli	a0,a0,0x5
 b3a:	0908                	addi	a0,sp,144
 b3c:	0004                	.insn	2, 0x0004
 b3e:	0200                	addi	s0,sp,256
 b40:	0004                	.insn	2, 0x0004
 b42:	0106                	slli	sp,sp,0x1
 b44:	0805                	addi	a6,a6,1
 b46:	0009                	c.nop	2
 b48:	0000                	unimp
 b4a:	0402                	c.slli64	s0
 b4c:	060e                	slli	a2,a2,0x3
 b4e:	0501                	addi	a0,a0,0
 b50:	0908                	addi	a0,sp,144
 b52:	0002                	c.slli64	zero
 b54:	0200                	addi	s0,sp,256
 b56:	0004                	.insn	2, 0x0004
 b58:	0106                	slli	sp,sp,0x1
 b5a:	0805                	addi	a6,a6,1
 b5c:	0009                	c.nop	2
 b5e:	0600                	addi	s0,sp,768
 b60:	0501                	addi	a0,a0,0
 b62:	0908                	addi	a0,sp,144
 b64:	0000                	unimp
 b66:	0106                	slli	sp,sp,0x1
 b68:	0805                	addi	a6,a6,1
 b6a:	0009                	c.nop	2
 b6c:	1800                	addi	s0,sp,48
 b6e:	0805                	addi	a6,a6,1
 b70:	0009                	c.nop	2
 b72:	0100                	addi	s0,sp,128
 b74:	0805                	addi	a6,a6,1
 b76:	0009                	c.nop	2
 b78:	0100                	addi	s0,sp,128
 b7a:	0805                	addi	a6,a6,1
 b7c:	0009                	c.nop	2
 b7e:	0100                	addi	s0,sp,128
 b80:	0805                	addi	a6,a6,1
 b82:	0009                	c.nop	2
 b84:	0100                	addi	s0,sp,128
 b86:	0805                	addi	a6,a6,1
 b88:	0009                	c.nop	2
 b8a:	0100                	addi	s0,sp,128
 b8c:	0805                	addi	a6,a6,1
 b8e:	0009                	c.nop	2
 b90:	0100                	addi	s0,sp,128
 b92:	0805                	addi	a6,a6,1
 b94:	0209                	addi	tp,tp,2 # 2 <_start+0x2>
 b96:	0100                	addi	s0,sp,128
 b98:	0805                	addi	a6,a6,1
 b9a:	0009                	c.nop	2
 b9c:	0100                	addi	s0,sp,128
 b9e:	0805                	addi	a6,a6,1
 ba0:	0209                	addi	tp,tp,2 # 2 <_start+0x2>
 ba2:	0100                	addi	s0,sp,128
 ba4:	0805                	addi	a6,a6,1
 ba6:	0209                	addi	tp,tp,2 # 2 <_start+0x2>
 ba8:	0100                	addi	s0,sp,128
 baa:	0805                	addi	a6,a6,1
 bac:	0209                	addi	tp,tp,2 # 2 <_start+0x2>
 bae:	0100                	addi	s0,sp,128
 bb0:	0805                	addi	a6,a6,1
 bb2:	0209                	addi	tp,tp,2 # 2 <_start+0x2>
 bb4:	0600                	addi	s0,sp,768
 bb6:	0501                	addi	a0,a0,0
 bb8:	0908                	addi	a0,sp,144
 bba:	0000                	unimp
 bbc:	0106                	slli	sp,sp,0x1
 bbe:	0805                	addi	a6,a6,1
 bc0:	0009                	c.nop	2
 bc2:	0100                	addi	s0,sp,128
 bc4:	0805                	addi	a6,a6,1
 bc6:	0809                	addi	a6,a6,2
 bc8:	0100                	addi	s0,sp,128
 bca:	0805                	addi	a6,a6,1
 bcc:	0009                	c.nop	2
 bce:	0100                	addi	s0,sp,128
 bd0:	0805                	addi	a6,a6,1
 bd2:	0209                	addi	tp,tp,2 # 2 <_start+0x2>
 bd4:	0100                	addi	s0,sp,128
 bd6:	0805                	addi	a6,a6,1
 bd8:	0209                	addi	tp,tp,2 # 2 <_start+0x2>
 bda:	0600                	addi	s0,sp,768
 bdc:	0501                	addi	a0,a0,0
 bde:	0908                	addi	a0,sp,144
 be0:	0000                	unimp
 be2:	0106                	slli	sp,sp,0x1
 be4:	0805                	addi	a6,a6,1
 be6:	0009                	c.nop	2
 be8:	0100                	addi	s0,sp,128
 bea:	0805                	addi	a6,a6,1
 bec:	0009                	c.nop	2
 bee:	0100                	addi	s0,sp,128
 bf0:	0805                	addi	a6,a6,1
 bf2:	0209                	addi	tp,tp,2 # 2 <_start+0x2>
 bf4:	0100                	addi	s0,sp,128
 bf6:	0805                	addi	a6,a6,1
 bf8:	0409                	addi	s0,s0,2
 bfa:	0600                	addi	s0,sp,768
 bfc:	0501                	addi	a0,a0,0
 bfe:	0908                	addi	a0,sp,144
 c00:	0002                	c.slli64	zero
 c02:	0106                	slli	sp,sp,0x1
 c04:	0805                	addi	a6,a6,1
 c06:	0209                	addi	tp,tp,2 # 2 <_start+0x2>
 c08:	0600                	addi	s0,sp,768
 c0a:	0501                	addi	a0,a0,0
 c0c:	0908                	addi	a0,sp,144
 c0e:	0000                	unimp
 c10:	0106                	slli	sp,sp,0x1
 c12:	0805                	addi	a6,a6,1
 c14:	0009                	c.nop	2
 c16:	0100                	addi	s0,sp,128
 c18:	0805                	addi	a6,a6,1
 c1a:	0009                	c.nop	2
 c1c:	0100                	addi	s0,sp,128
 c1e:	0805                	addi	a6,a6,1
 c20:	0209                	addi	tp,tp,2 # 2 <_start+0x2>
 c22:	0100                	addi	s0,sp,128
 c24:	0805                	addi	a6,a6,1
 c26:	0409                	addi	s0,s0,2
 c28:	0600                	addi	s0,sp,768
 c2a:	0501                	addi	a0,a0,0
 c2c:	0908                	addi	a0,sp,144
 c2e:	0002                	c.slli64	zero
 c30:	0106                	slli	sp,sp,0x1
 c32:	0805                	addi	a6,a6,1
 c34:	0009                	c.nop	2
 c36:	0600                	addi	s0,sp,768
 c38:	0501                	addi	a0,a0,0
 c3a:	0908                	addi	a0,sp,144
 c3c:	0000                	unimp
 c3e:	0106                	slli	sp,sp,0x1
 c40:	0805                	addi	a6,a6,1
 c42:	0009                	c.nop	2
 c44:	0100                	addi	s0,sp,128
 c46:	0805                	addi	a6,a6,1
 c48:	0609                	addi	a2,a2,2
 c4a:	0600                	addi	s0,sp,768
 c4c:	0501                	addi	a0,a0,0
 c4e:	0908                	addi	a0,sp,144
 c50:	0002                	c.slli64	zero
 c52:	0106                	slli	sp,sp,0x1
 c54:	0805                	addi	a6,a6,1
 c56:	0409                	addi	s0,s0,2
 c58:	0000                	unimp
 c5a:	0402                	c.slli64	s0
 c5c:	0101                	addi	sp,sp,0
 c5e:	0805                	addi	a6,a6,1
 c60:	0409                	addi	s0,s0,2
 c62:	0000                	unimp
 c64:	0402                	c.slli64	s0
 c66:	08050103          	lb	sp,128(a0)
 c6a:	0609                	addi	a2,a2,2
 c6c:	0000                	unimp
 c6e:	0402                	c.slli64	s0
 c70:	0100                	addi	s0,sp,128
 c72:	0805                	addi	a6,a6,1
 c74:	0009                	c.nop	2
 c76:	0600                	addi	s0,sp,768
 c78:	0501                	addi	a0,a0,0
 c7a:	0908                	addi	a0,sp,144
 c7c:	0000                	unimp
 c7e:	0106                	slli	sp,sp,0x1
 c80:	0805                	addi	a6,a6,1
 c82:	0009                	c.nop	2
 c84:	1900                	addi	s0,sp,176
 c86:	0805                	addi	a6,a6,1
 c88:	0009                	c.nop	2
 c8a:	0600                	addi	s0,sp,768
 c8c:	0501                	addi	a0,a0,0
 c8e:	0004090b          	.insn	4, 0x0004090b
 c92:	0200                	addi	s0,sp,256
 c94:	0304                	addi	s1,sp,384
 c96:	0515                	addi	a0,a0,5
 c98:	0908                	addi	a0,sp,144
 c9a:	0002                	c.slli64	zero
 c9c:	0501                	addi	a0,a0,0
 c9e:	0908                	addi	a0,sp,144
 ca0:	0002                	c.slli64	zero
 ca2:	0501                	addi	a0,a0,0
 ca4:	0908                	addi	a0,sp,144
 ca6:	0002                	c.slli64	zero
 ca8:	0200                	addi	s0,sp,256
 caa:	0004                	.insn	2, 0x0004
 cac:	0514                	addi	a3,sp,640
 cae:	0004090b          	.insn	4, 0x0004090b
 cb2:	0200                	addi	s0,sp,256
 cb4:	0304                	addi	s1,sp,384
 cb6:	051a                	slli	a0,a0,0x6
 cb8:	0908                	addi	a0,sp,144
 cba:	0002                	c.slli64	zero
 cbc:	0200                	addi	s0,sp,256
 cbe:	0204                	addi	s1,sp,256
 cc0:	0519                	addi	a0,a0,6
 cc2:	0921                	addi	s2,s2,8
 cc4:	0008                	.insn	2, 0x0008
 cc6:	0200                	addi	s0,sp,256
 cc8:	0004                	.insn	2, 0x0004
 cca:	1906                	slli	s2,s2,0x21
 ccc:	0505                	addi	a0,a0,1
 cce:	0009                	c.nop	2
 cd0:	0600                	addi	s0,sp,768
 cd2:	0501                	addi	a0,a0,0
 cd4:	00020907          	.insn	4, 0x00020907
 cd8:	1806                	slli	a6,a6,0x21
 cda:	0505                	addi	a0,a0,1
 cdc:	0009                	c.nop	2
 cde:	0100                	addi	s0,sp,128
 ce0:	0505                	addi	a0,a0,1
 ce2:	0009                	c.nop	2
 ce4:	0100                	addi	s0,sp,128
 ce6:	0505                	addi	a0,a0,1
 ce8:	0009                	c.nop	2
 cea:	0100                	addi	s0,sp,128
 cec:	0505                	addi	a0,a0,1
 cee:	0009                	c.nop	2
 cf0:	0100                	addi	s0,sp,128
 cf2:	0505                	addi	a0,a0,1
 cf4:	0009                	c.nop	2
 cf6:	0600                	addi	s0,sp,768
 cf8:	0501                	addi	a0,a0,0
 cfa:	0905                	addi	s2,s2,1
 cfc:	0002                	c.slli64	zero
 cfe:	0200                	addi	s0,sp,256
 d00:	0504                	addi	s1,sp,640
 d02:	1106                	slli	sp,sp,0x21
 d04:	0805                	addi	a6,a6,1
 d06:	0209                	addi	tp,tp,2 # 2 <_start+0x2>
 d08:	0600                	addi	s0,sp,768
 d0a:	0501                	addi	a0,a0,0
 d0c:	0908                	addi	a0,sp,144
 d0e:	0002                	c.slli64	zero
 d10:	0501                	addi	a0,a0,0
 d12:	0908                	addi	a0,sp,144
 d14:	0002                	c.slli64	zero
 d16:	0200                	addi	s0,sp,256
 d18:	0c04                	addi	s1,sp,528
 d1a:	0106                	slli	sp,sp,0x1
 d1c:	0805                	addi	a6,a6,1
 d1e:	0209                	addi	tp,tp,2 # 2 <_start+0x2>
 d20:	0600                	addi	s0,sp,768
 d22:	0501                	addi	a0,a0,0
 d24:	0908                	addi	a0,sp,144
 d26:	0002                	c.slli64	zero
 d28:	0501                	addi	a0,a0,0
 d2a:	0908                	addi	a0,sp,144
 d2c:	0002                	c.slli64	zero
 d2e:	0501                	addi	a0,a0,0
 d30:	0908                	addi	a0,sp,144
 d32:	0000                	unimp
 d34:	0200                	addi	s0,sp,256
 d36:	0004                	.insn	2, 0x0004
 d38:	05014903          	lbu	s2,80(sp)
 d3c:	00020907          	.insn	4, 0x00020907
 d40:	0516                	slli	a0,a0,0x5
 d42:	02050007          	.insn	4, 0x02050007
 d46:	04c6                	slli	s1,s1,0x11
 d48:	0000                	unimp
 d4a:	0100                	addi	s0,sp,128
 d4c:	7601                	lui	a2,0xfffe0
 d4e:	0000                	unimp
 d50:	0500                	addi	s0,sp,640
 d52:	0400                	addi	s0,sp,512
 d54:	2e00                	.insn	2, 0x2e00
 d56:	0000                	unimp
 d58:	0100                	addi	s0,sp,128
 d5a:	0101                	addi	sp,sp,0
 d5c:	000d0efb          	.insn	4, 0x000d0efb
 d60:	0101                	addi	sp,sp,0
 d62:	0101                	addi	sp,sp,0
 d64:	0000                	unimp
 d66:	0100                	addi	s0,sp,128
 d68:	0000                	unimp
 d6a:	0101                	addi	sp,sp,0
 d6c:	1f01                	addi	t5,t5,-32 # fffe0fe0 <__stack_top+0xfdfe0fe0>
 d6e:	2b02                	.insn	2, 0x2b02
 d70:	0000                	unimp
 d72:	a400                	.insn	2, 0xa400
 d74:	0000                	unimp
 d76:	0200                	addi	s0,sp,256
 d78:	1f01                	addi	t5,t5,-32
 d7a:	0f02                	c.slli64	t5
 d7c:	c802                	sw	zero,16(sp)
 d7e:	0000                	unimp
 d80:	0100                	addi	s0,sp,128
 d82:	00c8                	addi	a0,sp,68
 d84:	0000                	unimp
 d86:	0001                	nop
 d88:	0205                	addi	tp,tp,1 # 1 <_start+0x1>
 d8a:	04c8                	addi	a0,sp,580
 d8c:	0000                	unimp
 d8e:	03012403          	lw	s0,48(sp)
 d92:	0901                	addi	s2,s2,0
 d94:	0002                	c.slli64	zero
 d96:	0301                	addi	t1,t1,0
 d98:	0902                	c.slli64	s2
 d9a:	0002                	c.slli64	zero
 d9c:	0301                	addi	t1,t1,0
 d9e:	0901                	addi	s2,s2,0
 da0:	0004                	.insn	2, 0x0004
 da2:	0301                	addi	t1,t1,0
 da4:	0901                	addi	s2,s2,0
 da6:	0002                	c.slli64	zero
 da8:	0301                	addi	t1,t1,0
 daa:	0902                	c.slli64	s2
 dac:	0002                	c.slli64	zero
 dae:	0301                	addi	t1,t1,0
 db0:	0901                	addi	s2,s2,0
 db2:	0002                	c.slli64	zero
 db4:	0301                	addi	t1,t1,0
 db6:	0901                	addi	s2,s2,0
 db8:	0002                	c.slli64	zero
 dba:	0301                	addi	t1,t1,0
 dbc:	0901                	addi	s2,s2,0
 dbe:	0002                	c.slli64	zero
 dc0:	0901                	addi	s2,s2,0
 dc2:	0002                	c.slli64	zero
 dc4:	0100                	addi	s0,sp,128
 dc6:	4f01                	li	t5,0
 dc8:	0001                	nop
 dca:	0500                	addi	s0,sp,640
 dcc:	0400                	addi	s0,sp,512
 dce:	2e00                	.insn	2, 0x2e00
 dd0:	0000                	unimp
 dd2:	0100                	addi	s0,sp,128
 dd4:	0101                	addi	sp,sp,0
 dd6:	000d0efb          	.insn	4, 0x000d0efb
 dda:	0101                	addi	sp,sp,0
 ddc:	0101                	addi	sp,sp,0
 dde:	0000                	unimp
 de0:	0100                	addi	s0,sp,128
 de2:	0000                	unimp
 de4:	0101                	addi	sp,sp,0
 de6:	1f01                	addi	t5,t5,-32
 de8:	2b02                	.insn	2, 0x2b02
 dea:	0000                	unimp
 dec:	a400                	.insn	2, 0xa400
 dee:	0000                	unimp
 df0:	0200                	addi	s0,sp,256
 df2:	1f01                	addi	t5,t5,-32
 df4:	0f02                	c.slli64	t5
 df6:	d102                	sw	zero,160(sp)
 df8:	0000                	unimp
 dfa:	0100                	addi	s0,sp,128
 dfc:	00d1                	addi	ra,ra,20
 dfe:	0000                	unimp
 e00:	0001                	nop
 e02:	0205                	addi	tp,tp,1 # 1 <_start+0x1>
 e04:	04dc                	addi	a5,sp,580
 e06:	0000                	unimp
 e08:	0100c403          	lbu	s0,16(ra)
 e0c:	04090103          	lb	sp,64(s2)
 e10:	0100                	addi	s0,sp,128
 e12:	04090403          	lb	s0,64(s2)
 e16:	0100                	addi	s0,sp,128
 e18:	02090103          	lb	sp,32(s2)
 e1c:	0100                	addi	s0,sp,128
 e1e:	02090103          	lb	sp,32(s2)
 e22:	0100                	addi	s0,sp,128
 e24:	02090103          	lb	sp,32(s2)
 e28:	0100                	addi	s0,sp,128
 e2a:	02090103          	lb	sp,32(s2)
 e2e:	0100                	addi	s0,sp,128
 e30:	02090103          	lb	sp,32(s2)
 e34:	0100                	addi	s0,sp,128
 e36:	04090203          	lb	tp,64(s2)
 e3a:	0100                	addi	s0,sp,128
 e3c:	04090103          	lb	sp,64(s2)
 e40:	0100                	addi	s0,sp,128
 e42:	02090103          	lb	sp,32(s2)
 e46:	0100                	addi	s0,sp,128
 e48:	02090103          	lb	sp,32(s2)
 e4c:	0100                	addi	s0,sp,128
 e4e:	04090203          	lb	tp,64(s2)
 e52:	0100                	addi	s0,sp,128
 e54:	02090203          	lb	tp,32(s2)
 e58:	0100                	addi	s0,sp,128
 e5a:	04090103          	lb	sp,64(s2)
 e5e:	0100                	addi	s0,sp,128
 e60:	02090103          	lb	sp,32(s2)
 e64:	0100                	addi	s0,sp,128
 e66:	02090203          	lb	tp,32(s2)
 e6a:	0100                	addi	s0,sp,128
 e6c:	02090103          	lb	sp,32(s2)
 e70:	0100                	addi	s0,sp,128
 e72:	02090103          	lb	sp,32(s2)
 e76:	0100                	addi	s0,sp,128
 e78:	02090203          	lb	tp,32(s2)
 e7c:	0100                	addi	s0,sp,128
 e7e:	02090603          	lb	a2,32(s2)
 e82:	0100                	addi	s0,sp,128
 e84:	02090103          	lb	sp,32(s2)
 e88:	0100                	addi	s0,sp,128
 e8a:	02090103          	lb	sp,32(s2)
 e8e:	0100                	addi	s0,sp,128
 e90:	02090103          	lb	sp,32(s2)
 e94:	0100                	addi	s0,sp,128
 e96:	02090503          	lb	a0,32(s2)
 e9a:	0100                	addi	s0,sp,128
 e9c:	04090203          	lb	tp,64(s2)
 ea0:	0100                	addi	s0,sp,128
 ea2:	04090203          	lb	tp,64(s2)
 ea6:	0100                	addi	s0,sp,128
 ea8:	04090103          	lb	sp,64(s2)
 eac:	0100                	addi	s0,sp,128
 eae:	02090203          	lb	tp,32(s2)
 eb2:	0100                	addi	s0,sp,128
 eb4:	04090203          	lb	tp,64(s2)
 eb8:	0100                	addi	s0,sp,128
 eba:	02090103          	lb	sp,32(s2)
 ebe:	0100                	addi	s0,sp,128
 ec0:	02090103          	lb	sp,32(s2)
 ec4:	0100                	addi	s0,sp,128
 ec6:	04090103          	lb	sp,64(s2)
 eca:	0100                	addi	s0,sp,128
 ecc:	02090403          	lb	s0,32(s2)
 ed0:	0100                	addi	s0,sp,128
 ed2:	02090103          	lb	sp,32(s2)
 ed6:	0100                	addi	s0,sp,128
 ed8:	04090103          	lb	sp,64(s2)
 edc:	0100                	addi	s0,sp,128
 ede:	04090203          	lb	tp,64(s2)
 ee2:	0100                	addi	s0,sp,128
 ee4:	02090103          	lb	sp,32(s2)
 ee8:	0100                	addi	s0,sp,128
 eea:	02090103          	lb	sp,32(s2)
 eee:	0100                	addi	s0,sp,128
 ef0:	02090203          	lb	tp,32(s2)
 ef4:	0100                	addi	s0,sp,128
 ef6:	04090103          	lb	sp,64(s2)
 efa:	0100                	addi	s0,sp,128
 efc:	04090203          	lb	tp,64(s2)
 f00:	0100                	addi	s0,sp,128
 f02:	04090103          	lb	sp,64(s2)
 f06:	0100                	addi	s0,sp,128
 f08:	02090103          	lb	sp,32(s2)
 f0c:	0100                	addi	s0,sp,128
 f0e:	04090103          	lb	sp,64(s2)
 f12:	0100                	addi	s0,sp,128
 f14:	0209                	addi	tp,tp,2 # 2 <_start+0x2>
 f16:	0000                	unimp
 f18:	0101                	addi	sp,sp,0
 f1a:	0045                	c.nop	17
 f1c:	0000                	unimp
 f1e:	0005                	c.nop	1
 f20:	0004                	.insn	2, 0x0004
 f22:	00000033          	add	zero,zero,zero
 f26:	0101                	addi	sp,sp,0
 f28:	f601                	bnez	a2,e30 <__data_load_start+0x5c0>
 f2a:	0df2                	slli	s11,s11,0x1c
 f2c:	0100                	addi	s0,sp,128
 f2e:	0101                	addi	sp,sp,0
 f30:	0001                	nop
 f32:	0000                	unimp
 f34:	0001                	nop
 f36:	0100                	addi	s0,sp,128
 f38:	0101                	addi	sp,sp,0
 f3a:	021f 002b 0000      	.insn	6, 0x002b021f
 f40:	008d                	addi	ra,ra,3
 f42:	0000                	unimp
 f44:	0102                	c.slli64	sp
 f46:	021f 030b 0000      	.insn	6, 0x030b021f
 f4c:	0000                	unimp
 f4e:	1700                	addi	s0,sp,928
 f50:	0000                	unimp
 f52:	0100                	addi	s0,sp,128
 f54:	0021                	c.nop	8
 f56:	0000                	unimp
 f58:	0001                	nop
 f5a:	0205                	addi	tp,tp,1 # 1 <_start+0x1>
 f5c:	0000                	unimp
 f5e:	0000                	unimp
 f60:	0100                	addi	s0,sp,128
 f62:	01                	.byte	0x01

Disassembly of section .debug_str:

00000000 <.debug_str>:
   0:	5f5f 6475 7669      	.insn	6, 0x766964755f5f
   6:	6964                	.insn	2, 0x6964
   8:	57440033          	.insn	4, 0x57440033
   c:	75727473          	csrrci	s0,0x757,4
  10:	63007463          	bgeu	zero,a6,638 <gpio_toggle_pin+0x1c>
  14:	6c706d6f          	jal	s10,6eda <__data_load_start+0x666a>
  18:	7865                	lui	a6,0xffff9
  1a:	6620                	.insn	2, 0x6620
  1c:	6f6c                	.insn	2, 0x6f6c
  1e:	7461                	lui	s0,0xffff8
  20:	5f00                	lw	s0,56(a4)
  22:	6d5f 6c75 6973      	.insn	6, 0x69736c756d5f
  28:	68730033          	.insn	4, 0x68730033
  2c:	2074726f          	jal	tp,47a32 <__data_load_start+0x471c2>
  30:	6e69                	lui	t3,0x1a
  32:	0074                	addi	a3,sp,12
  34:	5744                	lw	s1,44(a4)
  36:	6e75                	lui	t3,0x1d
  38:	6f69                	lui	t5,0x1a
  3a:	006e                	c.slli	zero,0x1b
  3c:	5f5f 3064 5f00      	.insn	6, 0x5f0030645f5f
  42:	645f 0031 5f5f      	.insn	6, 0x5f5f0031645f
  48:	6876                	.insn	2, 0x6876
  4a:	5f00                	lw	s0,56(a4)
  4c:	6f5f 3070 5f00      	.insn	6, 0x5f0030706f5f
  52:	6f5f 3170 6c00      	.insn	6, 0x6c0031706f5f
  58:	20676e6f          	jal	t3,7625e <__data_load_start+0x759ee>
  5c:	6f6c                	.insn	2, 0x6f6c
  5e:	676e                	.insn	2, 0x676e
  60:	6920                	.insn	2, 0x6920
  62:	746e                	.insn	2, 0x746e
  64:	6c00                	.insn	2, 0x6c00
  66:	20676e6f          	jal	t3,7626c <__data_load_start+0x759fc>
  6a:	6f6c                	.insn	2, 0x6f6c
  6c:	676e                	.insn	2, 0x676e
  6e:	7520                	.insn	2, 0x7520
  70:	736e                	.insn	2, 0x736e
  72:	6769                	lui	a4,0x1a
  74:	656e                	.insn	2, 0x656e
  76:	2064                	.insn	2, 0x2064
  78:	6e69                	lui	t3,0x1a
  7a:	0074                	addi	a3,sp,12
  7c:	6968                	.insn	2, 0x6968
  7e:	5f006867          	.insn	4, 0x5f006867
  82:	635f 7a6c 745f      	.insn	6, 0x745f7a6c635f
  88:	6261                	lui	tp,0x18
  8a:	4700                	lw	s0,8(a4)
  8c:	554e                	lw	a0,240(sp)
  8e:	4320                	lw	s0,64(a4)
  90:	3332                	.insn	2, 0x3332
  92:	3120                	.insn	2, 0x3120
  94:	2e35                	jal	3d0 <__udivdi3+0x328>
  96:	2e32                	.insn	2, 0x2e32
  98:	2030                	.insn	2, 0x2030
  9a:	6d2d                	lui	s10,0xb
  9c:	646f6d63          	bltu	t5,t1,6f6 <irq_register+0x2>
  a0:	6c65                	lui	s8,0x19
  a2:	6d3d                	lui	s10,0xf
  a4:	6465                	lui	s0,0x19
  a6:	6f6c                	.insn	2, 0x6f6c
  a8:	6d2d2077          	.insn	4, 0x6d2d2077
  ac:	646f6d63          	bltu	t5,t1,706 <irq_register+0x12>
  b0:	6c65                	lui	s8,0x19
  b2:	6d3d                	lui	s10,0xf
  b4:	6465                	lui	s0,0x19
  b6:	6f6c                	.insn	2, 0x6f6c
  b8:	6d2d2077          	.insn	4, 0x6d2d2077
  bc:	6261                	lui	tp,0x18
  be:	3d69                	jal	ffffff58 <__stack_top+0xfdffff58>
  c0:	6c69                	lui	s8,0x1a
  c2:	3370                	.insn	2, 0x3370
  c4:	6532                	.insn	2, 0x6532
  c6:	2d20                	.insn	2, 0x2d20
  c8:	696d                	lui	s2,0x1b
  ca:	732d6173          	csrrsi	sp,mhpmevent18h,26
  ce:	6570                	.insn	2, 0x6570
  d0:	30323d63          	.insn	4, 0x30323d63
  d4:	3931                	jal	fffffcf0 <__stack_top+0xfdfffcf0>
  d6:	3231                	jal	fffff9e2 <__stack_top+0xfdfff9e2>
  d8:	3331                	jal	fffffde4 <__stack_top+0xfdfffde4>
  da:	2d20                	.insn	2, 0x2d20
  dc:	616d                	addi	sp,sp,240
  de:	6372                	.insn	2, 0x6372
  e0:	3d68                	.insn	2, 0x3d68
  e2:	7672                	.insn	2, 0x7672
  e4:	63653233          	.insn	4, 0x63653233
  e8:	7a5f 6163 2d20      	.insn	6, 0x2d2061637a5f
  ee:	4f2d2067          	.insn	4, 0x4f2d2067
  f2:	4f2d2073          	csrs	0x4f2,s10
  f6:	2032                	.insn	2, 0x2032
  f8:	4f2d                	li	t5,11
  fa:	662d2073          	csrs	0x662,s10
  fe:	7562                	.insn	2, 0x7562
 100:	6c69                	lui	s8,0x1a
 102:	6964                	.insn	2, 0x6964
 104:	676e                	.insn	2, 0x676e
 106:	6c2d                	lui	s8,0xb
 108:	6269                	lui	tp,0x1a
 10a:	20636367          	.insn	4, 0x20636367
 10e:	662d                	lui	a2,0xb
 110:	6f6e                	.insn	2, 0x6f6e
 112:	732d                	lui	t1,0xfffeb
 114:	6174                	.insn	2, 0x6174
 116:	702d6b63          	bltu	s10,sp,82c <__clz_tab+0xbc>
 11a:	6f72                	.insn	2, 0x6f72
 11c:	6574                	.insn	2, 0x6574
 11e:	726f7463          	bgeu	t5,t1,846 <__clz_tab+0xd6>
 122:	2d20                	.insn	2, 0x2d20
 124:	6166                	.insn	2, 0x6166
 126:	636e7973          	csrrci	s2,0x636,28
 12a:	7268                	.insn	2, 0x7268
 12c:	756f6e6f          	jal	t3,f6882 <__data_load_start+0xf6012>
 130:	6e752d73          	csrrs	s10,0x6e7,a0
 134:	646e6977          	.insn	4, 0x646e6977
 138:	742d                	lui	s0,0xfffeb
 13a:	6261                	lui	tp,0x18
 13c:	656c                	.insn	2, 0x656c
 13e:	662d2073          	csrs	0x662,s10
 142:	6976                	.insn	2, 0x6976
 144:	69626973          	csrrsi	s2,0x696,4
 148:	696c                	.insn	2, 0x696c
 14a:	7974                	.insn	2, 0x7974
 14c:	683d                	lui	a6,0xf
 14e:	6469                	lui	s0,0x1a
 150:	6564                	.insn	2, 0x6564
 152:	006e                	c.slli	zero,0x1b
 154:	706d6f63          	bltu	s10,t1,872 <__data_load_start+0x2>
 158:	656c                	.insn	2, 0x656c
 15a:	2078                	.insn	2, 0x2078
 15c:	465f 6f6c 7461      	.insn	6, 0x74616f6c465f
 162:	3631                	jal	fffffc6e <__stack_top+0xfdfffc6e>
 164:	7500                	.insn	2, 0x7500
 166:	736e                	.insn	2, 0x736e
 168:	6769                	lui	a4,0x1a
 16a:	656e                	.insn	2, 0x656e
 16c:	2064                	.insn	2, 0x2064
 16e:	72616863          	bltu	sp,t1,89e <__data_load_start+0x2e>
 172:	5f00                	lw	s0,56(a4)
 174:	785f 0030 5f5f      	.insn	6, 0x5f5f0030785f
 17a:	3178                	.insn	2, 0x3178
 17c:	5f00                	lw	s0,56(a4)
 17e:	785f 0032 5f5f      	.insn	6, 0x5f5f0032785f
 184:	3378                	.insn	2, 0x3378
 186:	5500                	lw	s0,40(a0)
 188:	4951                	li	s2,20
 18a:	7974                	.insn	2, 0x7974
 18c:	6570                	.insn	2, 0x6570
 18e:	7300                	.insn	2, 0x7300
 190:	6f68                	.insn	2, 0x6f68
 192:	7472                	.insn	2, 0x7472
 194:	7520                	.insn	2, 0x7520
 196:	736e                	.insn	2, 0x736e
 198:	6769                	lui	a4,0x1a
 19a:	656e                	.insn	2, 0x656e
 19c:	2064                	.insn	2, 0x2064
 19e:	6e69                	lui	t3,0x1a
 1a0:	0074                	addi	a3,sp,12
 1a2:	4455                	li	s0,21
 1a4:	7449                	lui	s0,0xffff2
 1a6:	7079                	c.lui	zero,0xffffe
 1a8:	0065                	c.nop	25
 1aa:	5355                	li	t1,-11
 1ac:	7449                	lui	s0,0xffff2
 1ae:	7079                	c.lui	zero,0xffffe
 1b0:	0065                	c.nop	25
 1b2:	5f5f 3071 5f00      	.insn	6, 0x5f0030715f5f
 1b8:	715f 0031 5f5f      	.insn	6, 0x5f5f0031715f
 1be:	6d75                	lui	s10,0x1d
 1c0:	6973646f          	jal	s0,37056 <__data_load_start+0x367e6>
 1c4:	425f0033          	.insn	4, 0x425f0033
 1c8:	006c6f6f          	jal	t5,c61ce <__data_load_start+0xc595e>
 1cc:	706d6f63          	bltu	s10,t1,8ea <__data_load_start+0x7a>
 1d0:	656c                	.insn	2, 0x656c
 1d2:	2078                	.insn	2, 0x2078
 1d4:	6f64                	.insn	2, 0x6f64
 1d6:	6275                	lui	tp,0x1d
 1d8:	656c                	.insn	2, 0x656c
 1da:	5f00                	lw	s0,56(a4)
 1dc:	765f 006c 5f5f      	.insn	6, 0x5f5f006c765f
 1e2:	6475                	lui	s0,0x1d
 1e4:	7669                	lui	a2,0xffffa
 1e6:	6f6d                	lui	t5,0x1b
 1e8:	6464                	.insn	2, 0x6464
 1ea:	3469                	jal	fffffc74 <__stack_top+0xfdfffc74>
 1ec:	6300                	.insn	2, 0x6300
 1ee:	6c706d6f          	jal	s10,70b4 <__data_load_start+0x6844>
 1f2:	7865                	lui	a6,0xffff9
 1f4:	6c20                	.insn	2, 0x6c20
 1f6:	20676e6f          	jal	t3,763fc <__data_load_start+0x75b8c>
 1fa:	6f64                	.insn	2, 0x6f64
 1fc:	6275                	lui	tp,0x1d
 1fe:	656c                	.insn	2, 0x656c
 200:	5f00                	lw	s0,56(a4)
 202:	785f 0072 5f5f      	.insn	6, 0x5f5f0072785f
 208:	3072                	.insn	2, 0x3072
 20a:	5f00                	lw	s0,56(a4)
 20c:	725f 0031 5f5f      	.insn	6, 0x5f5f0031725f
 212:	6875                	lui	a6,0x1d
 214:	5f00                	lw	s0,56(a4)
 216:	755f 006c 2e2e      	.insn	6, 0x2e2e006c755f
 21c:	2f2e2e2f          	.insn	4, 0x2f2e2e2f
 220:	2e2e                	.insn	2, 0x2e2e
 222:	2f2e2e2f          	.insn	4, 0x2f2e2e2f
 226:	2f636367          	.insn	4, 0x2f636367
 22a:	696c                	.insn	2, 0x696c
 22c:	6762                	.insn	2, 0x6762
 22e:	632f6363          	bltu	t5,s2,854 <__clz_tab+0xe4>
 232:	69666e6f          	jal	t3,668c8 <__data_load_start+0x66058>
 236:	69722f67          	.insn	4, 0x69722f67
 23a:	2f766373          	csrrsi	t1,0x2f7,12
 23e:	756d                	lui	a0,0xffffb
 240:	646c                	.insn	2, 0x646c
 242:	3369                	jal	ffffffcc <__stack_top+0xfdffffcc>
 244:	532e                	lw	t1,232(sp)
 246:	2f00                	.insn	2, 0x2f00
 248:	6f68                	.insn	2, 0x6f68
 24a:	656d                	lui	a0,0x1b
 24c:	6168742f          	.insn	4, 0x6168742f
 250:	686e                	.insn	2, 0x686e
 252:	7274                	.insn	2, 0x7274
 254:	6e61                	lui	t3,0x18
 256:	6770662f          	.insn	4, 0x6770662f
 25a:	2f61                	jal	9f2 <__data_load_start+0x182>
 25c:	6972                	.insn	2, 0x6972
 25e:	2d766373          	csrrsi	t1,0x2d7,12
 262:	2d756e67          	.insn	4, 0x2d756e67
 266:	6f74                	.insn	2, 0x6f74
 268:	68636c6f          	jal	s8,368ee <__data_load_start+0x3607e>
 26c:	6961                	lui	s2,0x18
 26e:	2f6e                	.insn	2, 0x2f6e
 270:	7562                	.insn	2, 0x7562
 272:	6c69                	lui	s8,0x1a
 274:	2f64                	.insn	2, 0x2f64
 276:	7562                	.insn	2, 0x7562
 278:	6c69                	lui	s8,0x1a
 27a:	2d64                	.insn	2, 0x2d64
 27c:	2d636367          	.insn	4, 0x2d636367
 280:	656e                	.insn	2, 0x656e
 282:	62696c77          	.insn	4, 0x62696c77
 286:	732d                	lui	t1,0xfffeb
 288:	6174                	.insn	2, 0x6174
 28a:	2f326567          	.insn	4, 0x2f326567
 28e:	6972                	.insn	2, 0x6972
 290:	33766373          	csrrsi	t1,mhpmevent23,12
 294:	2d32                	.insn	2, 0x2d32
 296:	6e75                	lui	t3,0x1d
 298:	776f6e6b          	.insn	4, 0x776f6e6b
 29c:	2d6e                	.insn	2, 0x2d6e
 29e:	6c65                	lui	s8,0x19
 2a0:	2f66                	.insn	2, 0x2f66
 2a2:	696c                	.insn	2, 0x696c
 2a4:	6762                	.insn	2, 0x6762
 2a6:	47006363          	bltu	zero,a6,70c <irq_register+0x18>
 2aa:	554e                	lw	a0,240(sp)
 2ac:	4120                	lw	s0,64(a0)
 2ae:	2e322053          	.insn	4, 0x2e322053
 2b2:	3534                	.insn	2, 0x3534
 2b4:	2e00                	.insn	2, 0x2e00
 2b6:	2f2e                	.insn	2, 0x2f2e
 2b8:	2e2e                	.insn	2, 0x2e2e
 2ba:	2f2e2e2f          	.insn	4, 0x2f2e2e2f
 2be:	2e2e                	.insn	2, 0x2e2e
 2c0:	6363672f          	.insn	4, 0x6363672f
 2c4:	62696c2f          	.insn	4, 0x62696c2f
 2c8:	2f636367          	.insn	4, 0x2f636367
 2cc:	666e6f63          	bltu	t3,t1,94a <__data_load_start+0xda>
 2d0:	6769                	lui	a4,0x1a
 2d2:	7369722f          	.insn	4, 0x7369722f
 2d6:	642f7663          	bgeu	t5,sp,922 <__data_load_start+0xb2>
 2da:	7669                	lui	a2,0xffffa
 2dc:	532e                	lw	t1,232(sp)
 2de:	5f00                	lw	s0,56(a4)
 2e0:	645f 7669 6973      	.insn	6, 0x69737669645f
 2e6:	5f5f0033          	.insn	4, 0x5f5f0033
 2ea:	6968                	.insn	2, 0x6968
 2ec:	6464                	.insn	2, 0x6464
 2ee:	6e65                	lui	t3,0x19
 2f0:	5f5f 755f 6964      	.insn	6, 0x6964755f5f5f
 2f6:	7376                	.insn	2, 0x7376
 2f8:	3369                	jal	82 <trap_entry+0x22>
 2fa:	5f00                	lw	s0,56(a4)
 2fc:	6d5f 646f 6973      	.insn	6, 0x6973646f6d5f
 302:	4e470033          	.insn	4, 0x4e470033
 306:	2055                	jal	3aa <__udivdi3+0x302>
 308:	20333243          	.insn	4, 0x20333243
 30c:	3531                	jal	118 <__udivdi3+0x70>
 30e:	322e                	.insn	2, 0x322e
 310:	302e                	.insn	2, 0x302e
 312:	2d20                	.insn	2, 0x2d20
 314:	636d                	lui	t1,0x1b
 316:	6f6d                	lui	t5,0x1b
 318:	6564                	.insn	2, 0x6564
 31a:	3d6c                	.insn	2, 0x3d6c
 31c:	656d                	lui	a0,0x1b
 31e:	6c64                	.insn	2, 0x6c64
 320:	2d20776f          	jal	a4,75f2 <__data_load_start+0x6d82>
 324:	636d                	lui	t1,0x1b
 326:	6f6d                	lui	t5,0x1b
 328:	6564                	.insn	2, 0x6564
 32a:	3d6c                	.insn	2, 0x3d6c
 32c:	656d                	lui	a0,0x1b
 32e:	6c64                	.insn	2, 0x6c64
 330:	2d20776f          	jal	a4,7602 <__data_load_start+0x6d92>
 334:	616d                	addi	sp,sp,240
 336:	6962                	.insn	2, 0x6962
 338:	693d                	lui	s2,0xf
 33a:	706c                	.insn	2, 0x706c
 33c:	20653233          	.insn	4, 0x20653233
 340:	6d2d                	lui	s10,0xb
 342:	7369                	lui	t1,0xffffa
 344:	2d61                	jal	9dc <__data_load_start+0x16c>
 346:	63657073          	csrci	0x636,10
 34a:	323d                	jal	fffffc78 <__stack_top+0xfdfffc78>
 34c:	3130                	.insn	2, 0x3130
 34e:	3139                	jal	ffffff5c <__stack_top+0xfdffff5c>
 350:	3132                	.insn	2, 0x3132
 352:	6d2d2033          	.insn	4, 0x6d2d2033
 356:	7261                	lui	tp,0xffff8
 358:	723d6863          	bltu	s10,gp,a88 <__data_load_start+0x218>
 35c:	3376                	.insn	2, 0x3376
 35e:	6532                	.insn	2, 0x6532
 360:	637a5f63          	bge	s4,s7,99e <__data_load_start+0x12e>
 364:	2061                	jal	3ec <__udivdi3+0x344>
 366:	672d                	lui	a4,0xb
 368:	2d20                	.insn	2, 0x2d20
 36a:	2d20734f          	.insn	4, 0x2d20734f
 36e:	2d20324f          	.insn	4, 0x2d20324f
 372:	2d20734f          	.insn	4, 0x2d20734f
 376:	6266                	.insn	2, 0x6266
 378:	6975                	lui	s2,0x1d
 37a:	646c                	.insn	2, 0x646c
 37c:	6e69                	lui	t3,0x1a
 37e:	696c2d67          	.insn	4, 0x696c2d67
 382:	6762                	.insn	2, 0x6762
 384:	2d206363          	bltu	zero,s2,64a <gpio_int_enable+0x10>
 388:	6e66                	.insn	2, 0x6e66
 38a:	74732d6f          	jal	s10,332d0 <__data_load_start+0x32a60>
 38e:	6361                	lui	t1,0x18
 390:	72702d6b          	.insn	4, 0x72702d6b
 394:	6365746f          	jal	s0,579ca <__data_load_start+0x5715a>
 398:	6f74                	.insn	2, 0x6f74
 39a:	2072                	.insn	2, 0x2072
 39c:	662d                	lui	a2,0xb
 39e:	6976                	.insn	2, 0x6976
 3a0:	69626973          	csrrsi	s2,0x696,4
 3a4:	696c                	.insn	2, 0x696c
 3a6:	7974                	.insn	2, 0x7974
 3a8:	683d                	lui	a6,0xf
 3aa:	6469                	lui	s0,0x1a
 3ac:	6564                	.insn	2, 0x6564
 3ae:	006e                	c.slli	zero,0x1b

Disassembly of section .debug_line_str:

00000000 <.debug_line_str>:
   0:	2e2e                	.insn	2, 0x2e2e
   2:	2f2e2e2f          	.insn	4, 0x2f2e2e2f
   6:	2e2e                	.insn	2, 0x2e2e
   8:	2f2e2e2f          	.insn	4, 0x2f2e2e2f
   c:	2f636367          	.insn	4, 0x2f636367
  10:	696c                	.insn	2, 0x696c
  12:	6762                	.insn	2, 0x6762
  14:	6c2f6363          	bltu	t5,sp,6da <irq_init+0x38>
  18:	6269                	lui	tp,0x1a
  1a:	32636367          	.insn	4, 0x32636367
  1e:	632e                	.insn	2, 0x632e
  20:	6c00                	.insn	2, 0x6c00
  22:	6269                	lui	tp,0x1a
  24:	32636367          	.insn	4, 0x32636367
  28:	682e                	.insn	2, 0x682e
  2a:	2f00                	.insn	2, 0x2f00
  2c:	6f68                	.insn	2, 0x6f68
  2e:	656d                	lui	a0,0x1b
  30:	6168742f          	.insn	4, 0x6168742f
  34:	686e                	.insn	2, 0x686e
  36:	7274                	.insn	2, 0x7274
  38:	6e61                	lui	t3,0x18
  3a:	6770662f          	.insn	4, 0x6770662f
  3e:	2f61                	jal	7d6 <__clz_tab+0x66>
  40:	6972                	.insn	2, 0x6972
  42:	2d766373          	csrrsi	t1,0x2d7,12
  46:	2d756e67          	.insn	4, 0x2d756e67
  4a:	6f74                	.insn	2, 0x6f74
  4c:	68636c6f          	jal	s8,366d2 <__data_load_start+0x35e62>
  50:	6961                	lui	s2,0x18
  52:	2f6e                	.insn	2, 0x2f6e
  54:	7562                	.insn	2, 0x7562
  56:	6c69                	lui	s8,0x1a
  58:	2f64                	.insn	2, 0x2f64
  5a:	7562                	.insn	2, 0x7562
  5c:	6c69                	lui	s8,0x1a
  5e:	2d64                	.insn	2, 0x2d64
  60:	2d636367          	.insn	4, 0x2d636367
  64:	656e                	.insn	2, 0x656e
  66:	62696c77          	.insn	4, 0x62696c77
  6a:	732d                	lui	t1,0xfffeb
  6c:	6174                	.insn	2, 0x6174
  6e:	2f326567          	.insn	4, 0x2f326567
  72:	6972                	.insn	2, 0x6972
  74:	33766373          	csrrsi	t1,mhpmevent23,12
  78:	2d32                	.insn	2, 0x2d32
  7a:	6e75                	lui	t3,0x1d
  7c:	776f6e6b          	.insn	4, 0x776f6e6b
  80:	2d6e                	.insn	2, 0x2d6e
  82:	6c65                	lui	s8,0x19
  84:	2f66                	.insn	2, 0x2f66
  86:	696c                	.insn	2, 0x696c
  88:	6762                	.insn	2, 0x6762
  8a:	2e006363          	bltu	zero,zero,370 <__udivdi3+0x2c8>
  8e:	2f2e                	.insn	2, 0x2f2e
  90:	2e2e                	.insn	2, 0x2e2e
  92:	2f2e2e2f          	.insn	4, 0x2f2e2e2f
  96:	2e2e                	.insn	2, 0x2e2e
  98:	6363672f          	.insn	4, 0x6363672f
  9c:	62696c2f          	.insn	4, 0x62696c2f
  a0:	00636367          	.insn	4, 0x00636367
  a4:	2e2e                	.insn	2, 0x2e2e
  a6:	2f2e2e2f          	.insn	4, 0x2f2e2e2f
  aa:	2e2e                	.insn	2, 0x2e2e
  ac:	2f2e2e2f          	.insn	4, 0x2f2e2e2f
  b0:	2f636367          	.insn	4, 0x2f636367
  b4:	696c                	.insn	2, 0x696c
  b6:	6762                	.insn	2, 0x6762
  b8:	632f6363          	bltu	t5,s2,6de <irq_init+0x3c>
  bc:	69666e6f          	jal	t3,66752 <__data_load_start+0x65ee2>
  c0:	69722f67          	.insn	4, 0x69722f67
  c4:	00766373          	csrrsi	t1,0x7,12
  c8:	756d                	lui	a0,0xffffb
  ca:	646c                	.insn	2, 0x646c
  cc:	3369                	jal	fffffe56 <__stack_top+0xfdfffe56>
  ce:	532e                	lw	t1,232(sp)
  d0:	6400                	.insn	2, 0x6400
  d2:	7669                	lui	a2,0xffffa
  d4:	532e                	lw	t1,232(sp)
	...
