
build/i2c-lcd1602.elf:     file format elf32-littleriscv


Disassembly of section .text:

00000000 <_start_boot>:
   0:	02000117          	auipc	sp,0x2000
   4:	00010113          	mv	sp,sp
   8:	00001297          	auipc	t0,0x1
   c:	d4c28293          	addi	t0,t0,-692 # d54 <__data_load_start>
  10:	01000317          	auipc	t1,0x1000
  14:	ff030313          	addi	t1,t1,-16 # 1000000 <completed.1>
  18:	01000397          	auipc	t2,0x1000
  1c:	fe838393          	addi	t2,t2,-24 # 1000000 <completed.1>
  20:	00737963          	bgeu	t1,t2,32 <_start_boot+0x32>
  24:	0002a403          	lw	s0,0(t0)
  28:	00832023          	sw	s0,0(t1)
  2c:	0291                	addi	t0,t0,4
  2e:	0311                	addi	t1,t1,4
  30:	bfc5                	j	20 <_start_boot+0x20>
  32:	a009                	j	34 <_start>

00000034 <_start>:
  34:	01000197          	auipc	gp,0x1000
  38:	7cc18193          	addi	gp,gp,1996 # 1000800 <__global_pointer$>
  3c:	00000513          	li	a0,0
  40:	c119                	beqz	a0,46 <_start+0x12>
  42:	01751073          	csrw	jvt,a0
  46:	01000517          	auipc	a0,0x1000
  4a:	fba50513          	addi	a0,a0,-70 # 1000000 <completed.1>
  4e:	01000617          	auipc	a2,0x1000
  52:	16a60613          	addi	a2,a2,362 # 10001b8 <__bss_end>
  56:	8e09                	sub	a2,a2,a0
  58:	4581                	li	a1,0
  5a:	28bd                	jal	d8 <memset>
  5c:	00001517          	auipc	a0,0x1
  60:	c2850513          	addi	a0,a0,-984 # c84 <atexit>
  64:	c519                	beqz	a0,72 <_start+0x3e>
  66:	00001517          	auipc	a0,0x1
  6a:	c2850513          	addi	a0,a0,-984 # c8e <__libc_fini_array>
  6e:	417000ef          	jal	c84 <atexit>
  72:	2c3000ef          	jal	b34 <__libc_init_array>
  76:	4502                	lw	a0,0(sp)
  78:	004c                	addi	a1,sp,4
  7a:	00251613          	slli	a2,a0,0x2
  7e:	0611                	addi	a2,a2,4
  80:	962e                	add	a2,a2,a1
  82:	28fd                	jal	180 <main>
  84:	2990006f          	j	b1c <exit>

00000088 <__do_global_dtors_aux>:
  88:	1161                	addi	sp,sp,-8 # 1fffff8 <__heap_limit+0xff8>
  8a:	c022                	sw	s0,0(sp)
  8c:	01000437          	lui	s0,0x1000
  90:	00044783          	lbu	a5,0(s0) # 1000000 <completed.1>
  94:	c206                	sw	ra,4(sp)
  96:	ef91                	bnez	a5,b2 <__do_global_dtors_aux+0x2a>
  98:	00000793          	li	a5,0
  9c:	cb81                	beqz	a5,ac <__do_global_dtors_aux+0x24>
  9e:	6505                	lui	a0,0x1
  a0:	d4850513          	addi	a0,a0,-696 # d48 <__frame_dummy_init_array_entry>
  a4:	00000097          	auipc	ra,0x0
  a8:	000000e7          	jalr	zero # 0 <_start_boot>
  ac:	4785                	li	a5,1
  ae:	00f40023          	sb	a5,0(s0)
  b2:	4092                	lw	ra,4(sp)
  b4:	4402                	lw	s0,0(sp)
  b6:	0121                	addi	sp,sp,8
  b8:	8082                	ret

000000ba <frame_dummy>:
  ba:	00000793          	li	a5,0
  be:	cf81                	beqz	a5,d6 <frame_dummy+0x1c>
  c0:	010005b7          	lui	a1,0x1000
  c4:	6505                	lui	a0,0x1
  c6:	00458593          	addi	a1,a1,4 # 1000004 <object.0>
  ca:	d4850513          	addi	a0,a0,-696 # d48 <__frame_dummy_init_array_entry>
  ce:	00000317          	auipc	t1,0x0
  d2:	00000067          	jr	zero # 0 <_start_boot>
  d6:	8082                	ret

000000d8 <memset>:
  d8:	433d                	li	t1,15
  da:	872a                	mv	a4,a0
  dc:	02c37363          	bgeu	t1,a2,102 <memset+0x2a>
  e0:	00f77793          	andi	a5,a4,15
  e4:	efbd                	bnez	a5,162 <memset+0x8a>
  e6:	e5ad                	bnez	a1,150 <memset+0x78>
  e8:	ff067693          	andi	a3,a2,-16
  ec:	8a3d                	andi	a2,a2,15
  ee:	96ba                	add	a3,a3,a4
  f0:	c30c                	sw	a1,0(a4)
  f2:	c34c                	sw	a1,4(a4)
  f4:	c70c                	sw	a1,8(a4)
  f6:	c74c                	sw	a1,12(a4)
  f8:	0741                	addi	a4,a4,16
  fa:	fed76be3          	bltu	a4,a3,f0 <memset+0x18>
  fe:	e211                	bnez	a2,102 <memset+0x2a>
 100:	8082                	ret
 102:	40c306b3          	sub	a3,t1,a2
 106:	068a                	slli	a3,a3,0x2
 108:	00000297          	auipc	t0,0x0
 10c:	9696                	add	a3,a3,t0
 10e:	00a68067          	jr	10(a3)
 112:	00b70723          	sb	a1,14(a4)
 116:	00b706a3          	sb	a1,13(a4)
 11a:	00b70623          	sb	a1,12(a4)
 11e:	00b705a3          	sb	a1,11(a4)
 122:	00b70523          	sb	a1,10(a4)
 126:	00b704a3          	sb	a1,9(a4)
 12a:	00b70423          	sb	a1,8(a4)
 12e:	00b703a3          	sb	a1,7(a4)
 132:	00b70323          	sb	a1,6(a4)
 136:	00b702a3          	sb	a1,5(a4)
 13a:	00b70223          	sb	a1,4(a4)
 13e:	00b701a3          	sb	a1,3(a4)
 142:	00b70123          	sb	a1,2(a4)
 146:	00b700a3          	sb	a1,1(a4)
 14a:	00b70023          	sb	a1,0(a4)
 14e:	8082                	ret
 150:	0ff5f593          	zext.b	a1,a1
 154:	00859693          	slli	a3,a1,0x8
 158:	8dd5                	or	a1,a1,a3
 15a:	01059693          	slli	a3,a1,0x10
 15e:	8dd5                	or	a1,a1,a3
 160:	b761                	j	e8 <memset+0x10>
 162:	00279693          	slli	a3,a5,0x2
 166:	00000297          	auipc	t0,0x0
 16a:	9696                	add	a3,a3,t0
 16c:	8286                	mv	t0,ra
 16e:	fa8680e7          	jalr	-88(a3)
 172:	8096                	mv	ra,t0
 174:	17c1                	addi	a5,a5,-16
 176:	8f1d                	sub	a4,a4,a5
 178:	963e                	add	a2,a2,a5
 17a:	f8c374e3          	bgeu	t1,a2,102 <memset+0x2a>
 17e:	b7a5                	j	e6 <memset+0xe>

00000180 <main>:
 180:	1171                	addi	sp,sp,-4
 182:	09f00513          	li	a0,159
 186:	c006                	sw	ra,0(sp)
 188:	073000ef          	jal	9fa <i2c_init>
 18c:	02700513          	li	a0,39
 190:	2815                	jal	1c4 <lcd1602_init>
 192:	e50d                	bnez	a0,1bc <main+0x3c>
 194:	2951                	jal	628 <lcd1602_clear>
 196:	4581                	li	a1,0
 198:	4501                	li	a0,0
 19a:	2b25                	jal	6d2 <lcd1602_set_position>
 19c:	6505                	lui	a0,0x1
 19e:	d2c50513          	addi	a0,a0,-724 # d2c <__register_exitproc+0x6e>
 1a2:	6a6000ef          	jal	848 <lcd1602_print>
 1a6:	4501                	li	a0,0
 1a8:	4585                	li	a1,1
 1aa:	2325                	jal	6d2 <lcd1602_set_position>
 1ac:	6505                	lui	a0,0x1
 1ae:	d4050513          	addi	a0,a0,-704 # d40 <__register_exitproc+0x82>
 1b2:	696000ef          	jal	848 <lcd1602_print>
 1b6:	0001                	nop
 1b8:	0001                	nop
 1ba:	bff5                	j	1b6 <main+0x36>
 1bc:	03f00513          	li	a0,63
 1c0:	2011                	jal	1c4 <lcd1602_init>
 1c2:	bfc9                	j	194 <main+0x14>

000001c4 <lcd1602_init>:
 1c4:	1151                	addi	sp,sp,-12
 1c6:	c222                	sw	s0,4(sp)
 1c8:	c026                	sw	s1,0(sp)
 1ca:	4581                	li	a1,0
 1cc:	c406                	sw	ra,8(sp)
 1ce:	9aa186a3          	sb	a0,-1619(gp) # 10001ad <lcd_addr>
 1d2:	9a018623          	sb	zero,-1620(gp) # 10001ac <p_write>
 1d6:	033000ef          	jal	a08 <i2c_write_byte>
 1da:	9ac1c583          	lbu	a1,-1620(gp) # 10001ac <p_write>
 1de:	9ad1c503          	lbu	a0,-1619(gp) # 10001ad <lcd_addr>
 1e2:	89ad                	andi	a1,a1,11
 1e4:	0305e593          	ori	a1,a1,48
 1e8:	9ab18623          	sb	a1,-1620(gp) # 10001ac <p_write>
 1ec:	01d000ef          	jal	a08 <i2c_write_byte>
 1f0:	4505                	li	a0,1
 1f2:	72c000ef          	jal	91e <delay_ms>
 1f6:	9ac1c583          	lbu	a1,-1620(gp) # 10001ac <p_write>
 1fa:	9ad1c503          	lbu	a0,-1619(gp) # 10001ad <lcd_addr>
 1fe:	0045e593          	ori	a1,a1,4
 202:	9ab18623          	sb	a1,-1620(gp) # 10001ac <p_write>
 206:	003000ef          	jal	a08 <i2c_write_byte>
 20a:	4505                	li	a0,1
 20c:	712000ef          	jal	91e <delay_ms>
 210:	9ac1c583          	lbu	a1,-1620(gp) # 10001ac <p_write>
 214:	9ad1c503          	lbu	a0,-1619(gp) # 10001ad <lcd_addr>
 218:	0fb5f593          	andi	a1,a1,251
 21c:	9ab18623          	sb	a1,-1620(gp) # 10001ac <p_write>
 220:	7e8000ef          	jal	a08 <i2c_write_byte>
 224:	06400513          	li	a0,100
 228:	77c000ef          	jal	9a4 <delay_us>
 22c:	6505                	lui	a0,0x1
 22e:	19450513          	addi	a0,a0,404 # 1194 <__data_load_start+0x440>
 232:	772000ef          	jal	9a4 <delay_us>
 236:	9ac1c583          	lbu	a1,-1620(gp) # 10001ac <p_write>
 23a:	9ad1c503          	lbu	a0,-1619(gp) # 10001ad <lcd_addr>
 23e:	89ad                	andi	a1,a1,11
 240:	0305e593          	ori	a1,a1,48
 244:	9ab18623          	sb	a1,-1620(gp) # 10001ac <p_write>
 248:	7c0000ef          	jal	a08 <i2c_write_byte>
 24c:	4505                	li	a0,1
 24e:	6d0000ef          	jal	91e <delay_ms>
 252:	9ac1c583          	lbu	a1,-1620(gp) # 10001ac <p_write>
 256:	9ad1c503          	lbu	a0,-1619(gp) # 10001ad <lcd_addr>
 25a:	0045e593          	ori	a1,a1,4
 25e:	9ab18623          	sb	a1,-1620(gp) # 10001ac <p_write>
 262:	7a6000ef          	jal	a08 <i2c_write_byte>
 266:	4505                	li	a0,1
 268:	6b6000ef          	jal	91e <delay_ms>
 26c:	9ac1c583          	lbu	a1,-1620(gp) # 10001ac <p_write>
 270:	9ad1c503          	lbu	a0,-1619(gp) # 10001ad <lcd_addr>
 274:	0fb5f593          	andi	a1,a1,251
 278:	9ab18623          	sb	a1,-1620(gp) # 10001ac <p_write>
 27c:	78c000ef          	jal	a08 <i2c_write_byte>
 280:	06400513          	li	a0,100
 284:	720000ef          	jal	9a4 <delay_us>
 288:	6505                	lui	a0,0x1
 28a:	19450513          	addi	a0,a0,404 # 1194 <__data_load_start+0x440>
 28e:	716000ef          	jal	9a4 <delay_us>
 292:	9ac1c583          	lbu	a1,-1620(gp) # 10001ac <p_write>
 296:	9ad1c503          	lbu	a0,-1619(gp) # 10001ad <lcd_addr>
 29a:	89ad                	andi	a1,a1,11
 29c:	0305e593          	ori	a1,a1,48
 2a0:	9ab18623          	sb	a1,-1620(gp) # 10001ac <p_write>
 2a4:	764000ef          	jal	a08 <i2c_write_byte>
 2a8:	4505                	li	a0,1
 2aa:	674000ef          	jal	91e <delay_ms>
 2ae:	9ac1c583          	lbu	a1,-1620(gp) # 10001ac <p_write>
 2b2:	9ad1c503          	lbu	a0,-1619(gp) # 10001ad <lcd_addr>
 2b6:	0045e593          	ori	a1,a1,4
 2ba:	9ab18623          	sb	a1,-1620(gp) # 10001ac <p_write>
 2be:	74a000ef          	jal	a08 <i2c_write_byte>
 2c2:	4505                	li	a0,1
 2c4:	65a000ef          	jal	91e <delay_ms>
 2c8:	9ac1c583          	lbu	a1,-1620(gp) # 10001ac <p_write>
 2cc:	9ad1c503          	lbu	a0,-1619(gp) # 10001ad <lcd_addr>
 2d0:	0fb5f593          	andi	a1,a1,251
 2d4:	9ab18623          	sb	a1,-1620(gp) # 10001ac <p_write>
 2d8:	730000ef          	jal	a08 <i2c_write_byte>
 2dc:	06400513          	li	a0,100
 2e0:	6c4000ef          	jal	9a4 <delay_us>
 2e4:	09600513          	li	a0,150
 2e8:	6bc000ef          	jal	9a4 <delay_us>
 2ec:	9ac1c583          	lbu	a1,-1620(gp) # 10001ac <p_write>
 2f0:	9ad1c503          	lbu	a0,-1619(gp) # 10001ad <lcd_addr>
 2f4:	89ad                	andi	a1,a1,11
 2f6:	0205e593          	ori	a1,a1,32
 2fa:	9ab18623          	sb	a1,-1620(gp) # 10001ac <p_write>
 2fe:	70a000ef          	jal	a08 <i2c_write_byte>
 302:	4505                	li	a0,1
 304:	61a000ef          	jal	91e <delay_ms>
 308:	9ac1c583          	lbu	a1,-1620(gp) # 10001ac <p_write>
 30c:	9ad1c503          	lbu	a0,-1619(gp) # 10001ad <lcd_addr>
 310:	0045e593          	ori	a1,a1,4
 314:	9ab18623          	sb	a1,-1620(gp) # 10001ac <p_write>
 318:	6f0000ef          	jal	a08 <i2c_write_byte>
 31c:	4505                	li	a0,1
 31e:	600000ef          	jal	91e <delay_ms>
 322:	9ac1c583          	lbu	a1,-1620(gp) # 10001ac <p_write>
 326:	9ad1c503          	lbu	a0,-1619(gp) # 10001ad <lcd_addr>
 32a:	0fb5f593          	andi	a1,a1,251
 32e:	9ab18623          	sb	a1,-1620(gp) # 10001ac <p_write>
 332:	6d6000ef          	jal	a08 <i2c_write_byte>
 336:	06400513          	li	a0,100
 33a:	66a000ef          	jal	9a4 <delay_us>
 33e:	9ac1c583          	lbu	a1,-1620(gp) # 10001ac <p_write>
 342:	9ad1c503          	lbu	a0,-1619(gp) # 10001ad <lcd_addr>
 346:	89ad                	andi	a1,a1,11
 348:	0205e593          	ori	a1,a1,32
 34c:	9ab18623          	sb	a1,-1620(gp) # 10001ac <p_write>
 350:	6b8000ef          	jal	a08 <i2c_write_byte>
 354:	4505                	li	a0,1
 356:	5c8000ef          	jal	91e <delay_ms>
 35a:	9ac1c583          	lbu	a1,-1620(gp) # 10001ac <p_write>
 35e:	9ad1c503          	lbu	a0,-1619(gp) # 10001ad <lcd_addr>
 362:	0045e593          	ori	a1,a1,4
 366:	9ab18623          	sb	a1,-1620(gp) # 10001ac <p_write>
 36a:	69e000ef          	jal	a08 <i2c_write_byte>
 36e:	4505                	li	a0,1
 370:	5ae000ef          	jal	91e <delay_ms>
 374:	9ac1c583          	lbu	a1,-1620(gp) # 10001ac <p_write>
 378:	9ad1c503          	lbu	a0,-1619(gp) # 10001ad <lcd_addr>
 37c:	0fb5f593          	andi	a1,a1,251
 380:	9ab18623          	sb	a1,-1620(gp) # 10001ac <p_write>
 384:	684000ef          	jal	a08 <i2c_write_byte>
 388:	06400513          	li	a0,100
 38c:	618000ef          	jal	9a4 <delay_us>
 390:	9ac1c583          	lbu	a1,-1620(gp) # 10001ac <p_write>
 394:	9ad1c503          	lbu	a0,-1619(gp) # 10001ad <lcd_addr>
 398:	89ad                	andi	a1,a1,11
 39a:	0c05e593          	ori	a1,a1,192
 39e:	9ab18623          	sb	a1,-1620(gp) # 10001ac <p_write>
 3a2:	666000ef          	jal	a08 <i2c_write_byte>
 3a6:	4505                	li	a0,1
 3a8:	576000ef          	jal	91e <delay_ms>
 3ac:	9ac1c583          	lbu	a1,-1620(gp) # 10001ac <p_write>
 3b0:	9ad1c503          	lbu	a0,-1619(gp) # 10001ad <lcd_addr>
 3b4:	0045e593          	ori	a1,a1,4
 3b8:	9ab18623          	sb	a1,-1620(gp) # 10001ac <p_write>
 3bc:	64c000ef          	jal	a08 <i2c_write_byte>
 3c0:	4505                	li	a0,1
 3c2:	2bb1                	jal	91e <delay_ms>
 3c4:	9ac1c583          	lbu	a1,-1620(gp) # 10001ac <p_write>
 3c8:	9ad1c503          	lbu	a0,-1619(gp) # 10001ad <lcd_addr>
 3cc:	0fb5f593          	andi	a1,a1,251
 3d0:	9ab18623          	sb	a1,-1620(gp) # 10001ac <p_write>
 3d4:	634000ef          	jal	a08 <i2c_write_byte>
 3d8:	06400513          	li	a0,100
 3dc:	5c8000ef          	jal	9a4 <delay_us>
 3e0:	9ac1c583          	lbu	a1,-1620(gp) # 10001ac <p_write>
 3e4:	9ad1c503          	lbu	a0,-1619(gp) # 10001ad <lcd_addr>
 3e8:	89ad                	andi	a1,a1,11
 3ea:	9ab18623          	sb	a1,-1620(gp) # 10001ac <p_write>
 3ee:	61a000ef          	jal	a08 <i2c_write_byte>
 3f2:	4505                	li	a0,1
 3f4:	232d                	jal	91e <delay_ms>
 3f6:	9ac1c583          	lbu	a1,-1620(gp) # 10001ac <p_write>
 3fa:	9ad1c503          	lbu	a0,-1619(gp) # 10001ad <lcd_addr>
 3fe:	0045e593          	ori	a1,a1,4
 402:	9ab18623          	sb	a1,-1620(gp) # 10001ac <p_write>
 406:	602000ef          	jal	a08 <i2c_write_byte>
 40a:	4505                	li	a0,1
 40c:	2b09                	jal	91e <delay_ms>
 40e:	9ac1c583          	lbu	a1,-1620(gp) # 10001ac <p_write>
 412:	9ad1c503          	lbu	a0,-1619(gp) # 10001ad <lcd_addr>
 416:	0fb5f593          	andi	a1,a1,251
 41a:	9ab18623          	sb	a1,-1620(gp) # 10001ac <p_write>
 41e:	5ea000ef          	jal	a08 <i2c_write_byte>
 422:	06400513          	li	a0,100
 426:	2bbd                	jal	9a4 <delay_us>
 428:	9ac1c583          	lbu	a1,-1620(gp) # 10001ac <p_write>
 42c:	9ad1c503          	lbu	a0,-1619(gp) # 10001ad <lcd_addr>
 430:	89ad                	andi	a1,a1,11
 432:	0805e593          	ori	a1,a1,128
 436:	9ab18623          	sb	a1,-1620(gp) # 10001ac <p_write>
 43a:	5ce000ef          	jal	a08 <i2c_write_byte>
 43e:	4505                	li	a0,1
 440:	29f9                	jal	91e <delay_ms>
 442:	9ac1c583          	lbu	a1,-1620(gp) # 10001ac <p_write>
 446:	9ad1c503          	lbu	a0,-1619(gp) # 10001ad <lcd_addr>
 44a:	0045e593          	ori	a1,a1,4
 44e:	9ab18623          	sb	a1,-1620(gp) # 10001ac <p_write>
 452:	5b6000ef          	jal	a08 <i2c_write_byte>
 456:	4505                	li	a0,1
 458:	21d9                	jal	91e <delay_ms>
 45a:	9ac1c583          	lbu	a1,-1620(gp) # 10001ac <p_write>
 45e:	9ad1c503          	lbu	a0,-1619(gp) # 10001ad <lcd_addr>
 462:	0fb5f593          	andi	a1,a1,251
 466:	9ab18623          	sb	a1,-1620(gp) # 10001ac <p_write>
 46a:	2b79                	jal	a08 <i2c_write_byte>
 46c:	06400513          	li	a0,100
 470:	2b15                	jal	9a4 <delay_us>
 472:	9ac1c583          	lbu	a1,-1620(gp) # 10001ac <p_write>
 476:	9ad1c503          	lbu	a0,-1619(gp) # 10001ad <lcd_addr>
 47a:	89ad                	andi	a1,a1,11
 47c:	9ab18623          	sb	a1,-1620(gp) # 10001ac <p_write>
 480:	2361                	jal	a08 <i2c_write_byte>
 482:	4505                	li	a0,1
 484:	2969                	jal	91e <delay_ms>
 486:	9ac1c583          	lbu	a1,-1620(gp) # 10001ac <p_write>
 48a:	9ad1c503          	lbu	a0,-1619(gp) # 10001ad <lcd_addr>
 48e:	0045e593          	ori	a1,a1,4
 492:	9ab18623          	sb	a1,-1620(gp) # 10001ac <p_write>
 496:	2b8d                	jal	a08 <i2c_write_byte>
 498:	4505                	li	a0,1
 49a:	2151                	jal	91e <delay_ms>
 49c:	9ac1c583          	lbu	a1,-1620(gp) # 10001ac <p_write>
 4a0:	9ad1c503          	lbu	a0,-1619(gp) # 10001ad <lcd_addr>
 4a4:	0fb5f593          	andi	a1,a1,251
 4a8:	9ab18623          	sb	a1,-1620(gp) # 10001ac <p_write>
 4ac:	2bb1                	jal	a08 <i2c_write_byte>
 4ae:	06400513          	li	a0,100
 4b2:	29cd                	jal	9a4 <delay_us>
 4b4:	9ac1c583          	lbu	a1,-1620(gp) # 10001ac <p_write>
 4b8:	9ad1c503          	lbu	a0,-1619(gp) # 10001ad <lcd_addr>
 4bc:	89ad                	andi	a1,a1,11
 4be:	0105e593          	ori	a1,a1,16
 4c2:	9ab18623          	sb	a1,-1620(gp) # 10001ac <p_write>
 4c6:	2389                	jal	a08 <i2c_write_byte>
 4c8:	4505                	li	a0,1
 4ca:	2991                	jal	91e <delay_ms>
 4cc:	9ac1c583          	lbu	a1,-1620(gp) # 10001ac <p_write>
 4d0:	9ad1c503          	lbu	a0,-1619(gp) # 10001ad <lcd_addr>
 4d4:	0045e593          	ori	a1,a1,4
 4d8:	9ab18623          	sb	a1,-1620(gp) # 10001ac <p_write>
 4dc:	2335                	jal	a08 <i2c_write_byte>
 4de:	4505                	li	a0,1
 4e0:	293d                	jal	91e <delay_ms>
 4e2:	9ac1c583          	lbu	a1,-1620(gp) # 10001ac <p_write>
 4e6:	9ad1c503          	lbu	a0,-1619(gp) # 10001ad <lcd_addr>
 4ea:	0fb5f593          	andi	a1,a1,251
 4ee:	9ab18623          	sb	a1,-1620(gp) # 10001ac <p_write>
 4f2:	2b19                	jal	a08 <i2c_write_byte>
 4f4:	06400513          	li	a0,100
 4f8:	2175                	jal	9a4 <delay_us>
 4fa:	9ac1c583          	lbu	a1,-1620(gp) # 10001ac <p_write>
 4fe:	9ad1c503          	lbu	a0,-1619(gp) # 10001ad <lcd_addr>
 502:	89ad                	andi	a1,a1,11
 504:	9ab18623          	sb	a1,-1620(gp) # 10001ac <p_write>
 508:	2301                	jal	a08 <i2c_write_byte>
 50a:	4505                	li	a0,1
 50c:	2909                	jal	91e <delay_ms>
 50e:	9ac1c583          	lbu	a1,-1620(gp) # 10001ac <p_write>
 512:	9ad1c503          	lbu	a0,-1619(gp) # 10001ad <lcd_addr>
 516:	0045e593          	ori	a1,a1,4
 51a:	9ab18623          	sb	a1,-1620(gp) # 10001ac <p_write>
 51e:	21ed                	jal	a08 <i2c_write_byte>
 520:	4505                	li	a0,1
 522:	2ef5                	jal	91e <delay_ms>
 524:	9ac1c583          	lbu	a1,-1620(gp) # 10001ac <p_write>
 528:	9ad1c503          	lbu	a0,-1619(gp) # 10001ad <lcd_addr>
 52c:	0fb5f593          	andi	a1,a1,251
 530:	9ab18623          	sb	a1,-1620(gp) # 10001ac <p_write>
 534:	29d1                	jal	a08 <i2c_write_byte>
 536:	06400513          	li	a0,100
 53a:	21ad                	jal	9a4 <delay_us>
 53c:	9ac1c583          	lbu	a1,-1620(gp) # 10001ac <p_write>
 540:	9ad1c503          	lbu	a0,-1619(gp) # 10001ad <lcd_addr>
 544:	89ad                	andi	a1,a1,11
 546:	0605e593          	ori	a1,a1,96
 54a:	9ab18623          	sb	a1,-1620(gp) # 10001ac <p_write>
 54e:	296d                	jal	a08 <i2c_write_byte>
 550:	4505                	li	a0,1
 552:	26f1                	jal	91e <delay_ms>
 554:	9ac1c583          	lbu	a1,-1620(gp) # 10001ac <p_write>
 558:	9ad1c503          	lbu	a0,-1619(gp) # 10001ad <lcd_addr>
 55c:	0045e593          	ori	a1,a1,4
 560:	9ab18623          	sb	a1,-1620(gp) # 10001ac <p_write>
 564:	2155                	jal	a08 <i2c_write_byte>
 566:	4505                	li	a0,1
 568:	2e5d                	jal	91e <delay_ms>
 56a:	9ac1c583          	lbu	a1,-1620(gp) # 10001ac <p_write>
 56e:	9ad1c503          	lbu	a0,-1619(gp) # 10001ad <lcd_addr>
 572:	0fb5f593          	andi	a1,a1,251
 576:	9ab18623          	sb	a1,-1620(gp) # 10001ac <p_write>
 57a:	2179                	jal	a08 <i2c_write_byte>
 57c:	06400513          	li	a0,100
 580:	2115                	jal	9a4 <delay_us>
 582:	9ac1c583          	lbu	a1,-1620(gp) # 10001ac <p_write>
 586:	9ad1c503          	lbu	a0,-1619(gp) # 10001ad <lcd_addr>
 58a:	89ad                	andi	a1,a1,11
 58c:	9ab18623          	sb	a1,-1620(gp) # 10001ac <p_write>
 590:	29a5                	jal	a08 <i2c_write_byte>
 592:	4505                	li	a0,1
 594:	2669                	jal	91e <delay_ms>
 596:	9ac1c583          	lbu	a1,-1620(gp) # 10001ac <p_write>
 59a:	9ad1c503          	lbu	a0,-1619(gp) # 10001ad <lcd_addr>
 59e:	0045e593          	ori	a1,a1,4
 5a2:	9ab18623          	sb	a1,-1620(gp) # 10001ac <p_write>
 5a6:	218d                	jal	a08 <i2c_write_byte>
 5a8:	4505                	li	a0,1
 5aa:	2e95                	jal	91e <delay_ms>
 5ac:	9ac1c583          	lbu	a1,-1620(gp) # 10001ac <p_write>
 5b0:	9ad1c503          	lbu	a0,-1619(gp) # 10001ad <lcd_addr>
 5b4:	0fb5f593          	andi	a1,a1,251
 5b8:	9ab18623          	sb	a1,-1620(gp) # 10001ac <p_write>
 5bc:	21b1                	jal	a08 <i2c_write_byte>
 5be:	06400513          	li	a0,100
 5c2:	26cd                	jal	9a4 <delay_us>
 5c4:	9ac1c583          	lbu	a1,-1620(gp) # 10001ac <p_write>
 5c8:	9ad1c503          	lbu	a0,-1619(gp) # 10001ad <lcd_addr>
 5cc:	99ed                	andi	a1,a1,-5
 5ce:	0f05e593          	ori	a1,a1,240
 5d2:	9ab18623          	sb	a1,-1620(gp) # 10001ac <p_write>
 5d6:	290d                	jal	a08 <i2c_write_byte>
 5d8:	4505                	li	a0,1
 5da:	2691                	jal	91e <delay_ms>
 5dc:	9ac1c583          	lbu	a1,-1620(gp) # 10001ac <p_write>
 5e0:	9ad1c503          	lbu	a0,-1619(gp) # 10001ad <lcd_addr>
 5e4:	0045e593          	ori	a1,a1,4
 5e8:	9ab18623          	sb	a1,-1620(gp) # 10001ac <p_write>
 5ec:	2931                	jal	a08 <i2c_write_byte>
 5ee:	4505                	li	a0,1
 5f0:	263d                	jal	91e <delay_ms>
 5f2:	9ac1c583          	lbu	a1,-1620(gp) # 10001ac <p_write>
 5f6:	9ad1c503          	lbu	a0,-1619(gp) # 10001ad <lcd_addr>
 5fa:	0fb5f593          	andi	a1,a1,251
 5fe:	9ab18623          	sb	a1,-1620(gp) # 10001ac <p_write>
 602:	2119                	jal	a08 <i2c_write_byte>
 604:	06400513          	li	a0,100
 608:	2e71                	jal	9a4 <delay_us>
 60a:	9ad1c503          	lbu	a0,-1619(gp) # 10001ad <lcd_addr>
 60e:	45a1                	li	a1,8
 610:	9ab18623          	sb	a1,-1620(gp) # 10001ac <p_write>
 614:	2ed5                	jal	a08 <i2c_write_byte>
 616:	03200513          	li	a0,50
 61a:	2611                	jal	91e <delay_ms>
 61c:	40a2                	lw	ra,8(sp)
 61e:	4412                	lw	s0,4(sp)
 620:	4482                	lw	s1,0(sp)
 622:	4501                	li	a0,0
 624:	0131                	addi	sp,sp,12
 626:	8082                	ret

00000628 <lcd1602_clear>:
 628:	1151                	addi	sp,sp,-12
 62a:	c222                	sw	s0,4(sp)
 62c:	c026                	sw	s1,0(sp)
 62e:	9ac1c583          	lbu	a1,-1620(gp) # 10001ac <p_write>
 632:	9ad1c503          	lbu	a0,-1619(gp) # 10001ad <lcd_addr>
 636:	0fe5f593          	andi	a1,a1,254
 63a:	c406                	sw	ra,8(sp)
 63c:	9ab18623          	sb	a1,-1620(gp) # 10001ac <p_write>
 640:	26e1                	jal	a08 <i2c_write_byte>
 642:	9ac1c583          	lbu	a1,-1620(gp) # 10001ac <p_write>
 646:	9ad1c503          	lbu	a0,-1619(gp) # 10001ad <lcd_addr>
 64a:	89ad                	andi	a1,a1,11
 64c:	9ab18623          	sb	a1,-1620(gp) # 10001ac <p_write>
 650:	2e65                	jal	a08 <i2c_write_byte>
 652:	4505                	li	a0,1
 654:	24e9                	jal	91e <delay_ms>
 656:	9ac1c583          	lbu	a1,-1620(gp) # 10001ac <p_write>
 65a:	9ad1c503          	lbu	a0,-1619(gp) # 10001ad <lcd_addr>
 65e:	0045e593          	ori	a1,a1,4
 662:	9ab18623          	sb	a1,-1620(gp) # 10001ac <p_write>
 666:	264d                	jal	a08 <i2c_write_byte>
 668:	4505                	li	a0,1
 66a:	2c55                	jal	91e <delay_ms>
 66c:	9ac1c583          	lbu	a1,-1620(gp) # 10001ac <p_write>
 670:	9ad1c503          	lbu	a0,-1619(gp) # 10001ad <lcd_addr>
 674:	0fb5f593          	andi	a1,a1,251
 678:	9ab18623          	sb	a1,-1620(gp) # 10001ac <p_write>
 67c:	2671                	jal	a08 <i2c_write_byte>
 67e:	06400513          	li	a0,100
 682:	260d                	jal	9a4 <delay_us>
 684:	9ac1c583          	lbu	a1,-1620(gp) # 10001ac <p_write>
 688:	9ad1c503          	lbu	a0,-1619(gp) # 10001ad <lcd_addr>
 68c:	89ad                	andi	a1,a1,11
 68e:	0105e593          	ori	a1,a1,16
 692:	9ab18623          	sb	a1,-1620(gp) # 10001ac <p_write>
 696:	2e8d                	jal	a08 <i2c_write_byte>
 698:	4505                	li	a0,1
 69a:	2451                	jal	91e <delay_ms>
 69c:	9ac1c583          	lbu	a1,-1620(gp) # 10001ac <p_write>
 6a0:	9ad1c503          	lbu	a0,-1619(gp) # 10001ad <lcd_addr>
 6a4:	0045e593          	ori	a1,a1,4
 6a8:	9ab18623          	sb	a1,-1620(gp) # 10001ac <p_write>
 6ac:	2eb1                	jal	a08 <i2c_write_byte>
 6ae:	4505                	li	a0,1
 6b0:	24bd                	jal	91e <delay_ms>
 6b2:	9ac1c583          	lbu	a1,-1620(gp) # 10001ac <p_write>
 6b6:	9ad1c503          	lbu	a0,-1619(gp) # 10001ad <lcd_addr>
 6ba:	0fb5f593          	andi	a1,a1,251
 6be:	9ab18623          	sb	a1,-1620(gp) # 10001ac <p_write>
 6c2:	2699                	jal	a08 <i2c_write_byte>
 6c4:	4412                	lw	s0,4(sp)
 6c6:	40a2                	lw	ra,8(sp)
 6c8:	4482                	lw	s1,0(sp)
 6ca:	06400513          	li	a0,100
 6ce:	0131                	addi	sp,sp,12
 6d0:	acd1                	j	9a4 <delay_us>

000006d2 <lcd1602_set_position>:
 6d2:	1141                	addi	sp,sp,-16
 6d4:	c606                	sw	ra,12(sp)
 6d6:	c226                	sw	s1,4(sp)
 6d8:	c02a                	sw	a0,0(sp)
 6da:	c989                	beqz	a1,6ec <lcd1602_set_position+0x1a>
 6dc:	4785                	li	a5,1
 6de:	84ae                	mv	s1,a1
 6e0:	0cf58063          	beq	a1,a5,7a0 <lcd1602_set_position+0xce>
 6e4:	40b2                	lw	ra,12(sp)
 6e6:	4492                	lw	s1,4(sp)
 6e8:	0141                	addi	sp,sp,16
 6ea:	8082                	ret
 6ec:	9ac1c583          	lbu	a1,-1620(gp) # 10001ac <p_write>
 6f0:	c422                	sw	s0,8(sp)
 6f2:	9ad1c503          	lbu	a0,-1619(gp) # 10001ad <lcd_addr>
 6f6:	0fe5f593          	andi	a1,a1,254
 6fa:	9ab18623          	sb	a1,-1620(gp) # 10001ac <p_write>
 6fe:	2629                	jal	a08 <i2c_write_byte>
 700:	9ac1c583          	lbu	a1,-1620(gp) # 10001ac <p_write>
 704:	4782                	lw	a5,0(sp)
 706:	9ad1c503          	lbu	a0,-1619(gp) # 10001ad <lcd_addr>
 70a:	89ad                	andi	a1,a1,11
 70c:	9bc1                	andi	a5,a5,-16
 70e:	8ddd                	or	a1,a1,a5
 710:	0805e593          	ori	a1,a1,128
 714:	9ab18623          	sb	a1,-1620(gp) # 10001ac <p_write>
 718:	2cc5                	jal	a08 <i2c_write_byte>
 71a:	4505                	li	a0,1
 71c:	2409                	jal	91e <delay_ms>
 71e:	9ac1c583          	lbu	a1,-1620(gp) # 10001ac <p_write>
 722:	9ad1c503          	lbu	a0,-1619(gp) # 10001ad <lcd_addr>
 726:	0045e593          	ori	a1,a1,4
 72a:	9ab18623          	sb	a1,-1620(gp) # 10001ac <p_write>
 72e:	2ce9                	jal	a08 <i2c_write_byte>
 730:	4505                	li	a0,1
 732:	22f5                	jal	91e <delay_ms>
 734:	9ac1c583          	lbu	a1,-1620(gp) # 10001ac <p_write>
 738:	9ad1c503          	lbu	a0,-1619(gp) # 10001ad <lcd_addr>
 73c:	0fb5f593          	andi	a1,a1,251
 740:	9ab18623          	sb	a1,-1620(gp) # 10001ac <p_write>
 744:	24d1                	jal	a08 <i2c_write_byte>
 746:	06400513          	li	a0,100
 74a:	2ca9                	jal	9a4 <delay_us>
 74c:	9ac1c583          	lbu	a1,-1620(gp) # 10001ac <p_write>
 750:	4782                	lw	a5,0(sp)
 752:	9ad1c503          	lbu	a0,-1619(gp) # 10001ad <lcd_addr>
 756:	89ad                	andi	a1,a1,11
 758:	0792                	slli	a5,a5,0x4
 75a:	8ddd                	or	a1,a1,a5
 75c:	0ff5f593          	zext.b	a1,a1
 760:	9ab18623          	sb	a1,-1620(gp) # 10001ac <p_write>
 764:	2455                	jal	a08 <i2c_write_byte>
 766:	4505                	li	a0,1
 768:	2a5d                	jal	91e <delay_ms>
 76a:	9ac1c583          	lbu	a1,-1620(gp) # 10001ac <p_write>
 76e:	9ad1c503          	lbu	a0,-1619(gp) # 10001ad <lcd_addr>
 772:	0045e593          	ori	a1,a1,4
 776:	9ab18623          	sb	a1,-1620(gp) # 10001ac <p_write>
 77a:	2479                	jal	a08 <i2c_write_byte>
 77c:	4505                	li	a0,1
 77e:	2245                	jal	91e <delay_ms>
 780:	9ac1c583          	lbu	a1,-1620(gp) # 10001ac <p_write>
 784:	9ad1c503          	lbu	a0,-1619(gp) # 10001ad <lcd_addr>
 788:	0fb5f593          	andi	a1,a1,251
 78c:	9ab18623          	sb	a1,-1620(gp) # 10001ac <p_write>
 790:	2ca5                	jal	a08 <i2c_write_byte>
 792:	4422                	lw	s0,8(sp)
 794:	40b2                	lw	ra,12(sp)
 796:	4492                	lw	s1,4(sp)
 798:	06400513          	li	a0,100
 79c:	0141                	addi	sp,sp,16
 79e:	a419                	j	9a4 <delay_us>
 7a0:	c422                	sw	s0,8(sp)
 7a2:	9ac1c583          	lbu	a1,-1620(gp) # 10001ac <p_write>
 7a6:	9ad1c503          	lbu	a0,-1619(gp) # 10001ad <lcd_addr>
 7aa:	0fe5f593          	andi	a1,a1,254
 7ae:	9ab18623          	sb	a1,-1620(gp) # 10001ac <p_write>
 7b2:	2c99                	jal	a08 <i2c_write_byte>
 7b4:	4682                	lw	a3,0(sp)
 7b6:	9ac1c583          	lbu	a1,-1620(gp) # 10001ac <p_write>
 7ba:	ff06f793          	andi	a5,a3,-16
 7be:	9ad1c503          	lbu	a0,-1619(gp) # 10001ad <lcd_addr>
 7c2:	89ad                	andi	a1,a1,11
 7c4:	8ddd                	or	a1,a1,a5
 7c6:	0c05e593          	ori	a1,a1,192
 7ca:	9ab18623          	sb	a1,-1620(gp) # 10001ac <p_write>
 7ce:	2c2d                	jal	a08 <i2c_write_byte>
 7d0:	8526                	mv	a0,s1
 7d2:	22b1                	jal	91e <delay_ms>
 7d4:	9ac1c583          	lbu	a1,-1620(gp) # 10001ac <p_write>
 7d8:	9ad1c503          	lbu	a0,-1619(gp) # 10001ad <lcd_addr>
 7dc:	0045e593          	ori	a1,a1,4
 7e0:	9ab18623          	sb	a1,-1620(gp) # 10001ac <p_write>
 7e4:	2415                	jal	a08 <i2c_write_byte>
 7e6:	8526                	mv	a0,s1
 7e8:	2a1d                	jal	91e <delay_ms>
 7ea:	9ac1c583          	lbu	a1,-1620(gp) # 10001ac <p_write>
 7ee:	9ad1c503          	lbu	a0,-1619(gp) # 10001ad <lcd_addr>
 7f2:	0fb5f593          	andi	a1,a1,251
 7f6:	9ab18623          	sb	a1,-1620(gp) # 10001ac <p_write>
 7fa:	2439                	jal	a08 <i2c_write_byte>
 7fc:	06400513          	li	a0,100
 800:	2255                	jal	9a4 <delay_us>
 802:	9ac1c583          	lbu	a1,-1620(gp) # 10001ac <p_write>
 806:	4782                	lw	a5,0(sp)
 808:	9ad1c503          	lbu	a0,-1619(gp) # 10001ad <lcd_addr>
 80c:	0792                	slli	a5,a5,0x4
 80e:	89ad                	andi	a1,a1,11
 810:	8ddd                	or	a1,a1,a5
 812:	0ff5f593          	zext.b	a1,a1
 816:	9ab18623          	sb	a1,-1620(gp) # 10001ac <p_write>
 81a:	22fd                	jal	a08 <i2c_write_byte>
 81c:	8526                	mv	a0,s1
 81e:	2201                	jal	91e <delay_ms>
 820:	9ac1c583          	lbu	a1,-1620(gp) # 10001ac <p_write>
 824:	9ad1c503          	lbu	a0,-1619(gp) # 10001ad <lcd_addr>
 828:	0045e593          	ori	a1,a1,4
 82c:	9ab18623          	sb	a1,-1620(gp) # 10001ac <p_write>
 830:	2ae1                	jal	a08 <i2c_write_byte>
 832:	8526                	mv	a0,s1
 834:	20ed                	jal	91e <delay_ms>
 836:	9ac1c583          	lbu	a1,-1620(gp) # 10001ac <p_write>
 83a:	9ad1c503          	lbu	a0,-1619(gp) # 10001ad <lcd_addr>
 83e:	0fb5f593          	andi	a1,a1,251
 842:	9ab18623          	sb	a1,-1620(gp) # 10001ac <p_write>
 846:	b7a9                	j	790 <lcd1602_set_position+0xbe>

00000848 <lcd1602_print>:
 848:	00054703          	lbu	a4,0(a0)
 84c:	0c070863          	beqz	a4,91c <lcd1602_print+0xd4>
 850:	1131                	addi	sp,sp,-20
 852:	c622                	sw	s0,12(sp)
 854:	c426                	sw	s1,8(sp)
 856:	c806                	sw	ra,16(sp)
 858:	87aa                	mv	a5,a0
 85a:	9ac1c583          	lbu	a1,-1620(gp) # 10001ac <p_write>
 85e:	9ad1c503          	lbu	a0,-1619(gp) # 10001ad <lcd_addr>
 862:	c23e                	sw	a5,4(sp)
 864:	0015e593          	ori	a1,a1,1
 868:	c03a                	sw	a4,0(sp)
 86a:	9ab18623          	sb	a1,-1620(gp) # 10001ac <p_write>
 86e:	2a69                	jal	a08 <i2c_write_byte>
 870:	4702                	lw	a4,0(sp)
 872:	9ac1c583          	lbu	a1,-1620(gp) # 10001ac <p_write>
 876:	9ad1c503          	lbu	a0,-1619(gp) # 10001ad <lcd_addr>
 87a:	ff077693          	andi	a3,a4,-16
 87e:	89ad                	andi	a1,a1,11
 880:	8dd5                	or	a1,a1,a3
 882:	9ab18623          	sb	a1,-1620(gp) # 10001ac <p_write>
 886:	2249                	jal	a08 <i2c_write_byte>
 888:	4505                	li	a0,1
 88a:	2851                	jal	91e <delay_ms>
 88c:	9ac1c583          	lbu	a1,-1620(gp) # 10001ac <p_write>
 890:	9ad1c503          	lbu	a0,-1619(gp) # 10001ad <lcd_addr>
 894:	0045e593          	ori	a1,a1,4
 898:	9ab18623          	sb	a1,-1620(gp) # 10001ac <p_write>
 89c:	22b5                	jal	a08 <i2c_write_byte>
 89e:	4505                	li	a0,1
 8a0:	28bd                	jal	91e <delay_ms>
 8a2:	9ac1c583          	lbu	a1,-1620(gp) # 10001ac <p_write>
 8a6:	9ad1c503          	lbu	a0,-1619(gp) # 10001ad <lcd_addr>
 8aa:	0fb5f593          	andi	a1,a1,251
 8ae:	9ab18623          	sb	a1,-1620(gp) # 10001ac <p_write>
 8b2:	2a99                	jal	a08 <i2c_write_byte>
 8b4:	06400513          	li	a0,100
 8b8:	20f5                	jal	9a4 <delay_us>
 8ba:	9ac1c583          	lbu	a1,-1620(gp) # 10001ac <p_write>
 8be:	4702                	lw	a4,0(sp)
 8c0:	9ad1c503          	lbu	a0,-1619(gp) # 10001ad <lcd_addr>
 8c4:	89ad                	andi	a1,a1,11
 8c6:	0712                	slli	a4,a4,0x4
 8c8:	8dd9                	or	a1,a1,a4
 8ca:	0ff5f593          	zext.b	a1,a1
 8ce:	9ab18623          	sb	a1,-1620(gp) # 10001ac <p_write>
 8d2:	2a1d                	jal	a08 <i2c_write_byte>
 8d4:	4505                	li	a0,1
 8d6:	20a1                	jal	91e <delay_ms>
 8d8:	9ac1c583          	lbu	a1,-1620(gp) # 10001ac <p_write>
 8dc:	9ad1c503          	lbu	a0,-1619(gp) # 10001ad <lcd_addr>
 8e0:	0045e593          	ori	a1,a1,4
 8e4:	9ab18623          	sb	a1,-1620(gp) # 10001ac <p_write>
 8e8:	2205                	jal	a08 <i2c_write_byte>
 8ea:	4505                	li	a0,1
 8ec:	280d                	jal	91e <delay_ms>
 8ee:	9ac1c583          	lbu	a1,-1620(gp) # 10001ac <p_write>
 8f2:	9ad1c503          	lbu	a0,-1619(gp) # 10001ad <lcd_addr>
 8f6:	0fb5f593          	andi	a1,a1,251
 8fa:	9ab18623          	sb	a1,-1620(gp) # 10001ac <p_write>
 8fe:	2229                	jal	a08 <i2c_write_byte>
 900:	06400513          	li	a0,100
 904:	2045                	jal	9a4 <delay_us>
 906:	4792                	lw	a5,4(sp)
 908:	0017c703          	lbu	a4,1(a5)
 90c:	0785                	addi	a5,a5,1
 90e:	f40716e3          	bnez	a4,85a <lcd1602_print+0x12>
 912:	40c2                	lw	ra,16(sp)
 914:	4432                	lw	s0,12(sp)
 916:	44a2                	lw	s1,8(sp)
 918:	0151                	addi	sp,sp,20
 91a:	8082                	ret
 91c:	8082                	ret

0000091e <delay_ms>:
 91e:	08a05263          	blez	a0,9a2 <delay_ms+0x84>
 922:	400026b7          	lui	a3,0x40002
 926:	0691                	addi	a3,a3,4 # 40002004 <__stack_top+0x3e002004>
 928:	400025b7          	lui	a1,0x40002
 92c:	4298                	lw	a4,0(a3)
 92e:	419c                	lw	a5,0(a1)
 930:	4290                	lw	a2,0(a3)
 932:	fec71de3          	bne	a4,a2,92c <delay_ms+0xe>
 936:	41f55593          	srai	a1,a0,0x1f
 93a:	01b55693          	srli	a3,a0,0x1b
 93e:	00551313          	slli	t1,a0,0x5
 942:	00559613          	slli	a2,a1,0x5
 946:	9636                	add	a2,a2,a3
 948:	40a306b3          	sub	a3,t1,a0
 94c:	00d33333          	sltu	t1,t1,a3
 950:	8e0d                	sub	a2,a2,a1
 952:	40660633          	sub	a2,a2,t1
 956:	060a                	slli	a2,a2,0x2
 958:	01e6d313          	srli	t1,a3,0x1e
 95c:	068a                	slli	a3,a3,0x2
 95e:	9536                	add	a0,a0,a3
 960:	961a                	add	a2,a2,t1
 962:	962e                	add	a2,a2,a1
 964:	00d536b3          	sltu	a3,a0,a3
 968:	96b2                	add	a3,a3,a2
 96a:	06a6                	slli	a3,a3,0x9
 96c:	01755613          	srli	a2,a0,0x17
 970:	0526                	slli	a0,a0,0x9
 972:	96b2                	add	a3,a3,a2
 974:	00a78333          	add	t1,a5,a0
 978:	9736                	add	a4,a4,a3
 97a:	00f337b3          	sltu	a5,t1,a5
 97e:	00e78533          	add	a0,a5,a4
 982:	40002737          	lui	a4,0x40002
 986:	0711                	addi	a4,a4,4 # 40002004 <__stack_top+0x3e002004>
 988:	40002637          	lui	a2,0x40002
 98c:	431c                	lw	a5,0(a4)
 98e:	420c                	lw	a1,0(a2)
 990:	4314                	lw	a3,0(a4)
 992:	fed79de3          	bne	a5,a3,98c <delay_ms+0x6e>
 996:	fea7ebe3          	bltu	a5,a0,98c <delay_ms+0x6e>
 99a:	00f51463          	bne	a0,a5,9a2 <delay_ms+0x84>
 99e:	fe65e7e3          	bltu	a1,t1,98c <delay_ms+0x6e>
 9a2:	8082                	ret

000009a4 <delay_us>:
 9a4:	04a05a63          	blez	a0,9f8 <delay_us+0x54>
 9a8:	400026b7          	lui	a3,0x40002
 9ac:	0691                	addi	a3,a3,4 # 40002004 <__stack_top+0x3e002004>
 9ae:	400025b7          	lui	a1,0x40002
 9b2:	4298                	lw	a4,0(a3)
 9b4:	419c                	lw	a5,0(a1)
 9b6:	4290                	lw	a2,0(a3)
 9b8:	fec71de3          	bne	a4,a2,9b2 <delay_us+0xe>
 9bc:	41f55693          	srai	a3,a0,0x1f
 9c0:	01a55613          	srli	a2,a0,0x1a
 9c4:	069a                	slli	a3,a3,0x6
 9c6:	051a                	slli	a0,a0,0x6
 9c8:	96b2                	add	a3,a3,a2
 9ca:	00a78333          	add	t1,a5,a0
 9ce:	9736                	add	a4,a4,a3
 9d0:	00f337b3          	sltu	a5,t1,a5
 9d4:	00e78533          	add	a0,a5,a4
 9d8:	40002737          	lui	a4,0x40002
 9dc:	0711                	addi	a4,a4,4 # 40002004 <__stack_top+0x3e002004>
 9de:	40002637          	lui	a2,0x40002
 9e2:	431c                	lw	a5,0(a4)
 9e4:	420c                	lw	a1,0(a2)
 9e6:	4314                	lw	a3,0(a4)
 9e8:	fed79de3          	bne	a5,a3,9e2 <delay_us+0x3e>
 9ec:	fea7ebe3          	bltu	a5,a0,9e2 <delay_us+0x3e>
 9f0:	00f51463          	bne	a0,a5,9f8 <delay_us+0x54>
 9f4:	fe65e7e3          	bltu	a1,t1,9e2 <delay_us+0x3e>
 9f8:	8082                	ret

000009fa <i2c_init>:
 9fa:	400047b7          	lui	a5,0x40004
 9fe:	c7c8                	sw	a0,12(a5)
 a00:	0001                	nop
 a02:	0001                	nop
 a04:	4501                	li	a0,0
 a06:	8082                	ret

00000a08 <i2c_write_byte>:
 a08:	40004737          	lui	a4,0x40004
 a0c:	0711                	addi	a4,a4,4 # 40004004 <__stack_top+0x3e004004>
 a0e:	400046b7          	lui	a3,0x40004
 a12:	431c                	lw	a5,0(a4)
 a14:	8b85                	andi	a5,a5,1
 a16:	fff5                	bnez	a5,a12 <i2c_write_byte+0xa>
 a18:	00151793          	slli	a5,a0,0x1
 a1c:	40004737          	lui	a4,0x40004
 a20:	0ff7f793          	zext.b	a5,a5
 a24:	c71c                	sw	a5,8(a4)
 a26:	4785                	li	a5,1
 a28:	40004737          	lui	a4,0x40004
 a2c:	c29c                	sw	a5,0(a3)
 a2e:	0711                	addi	a4,a4,4 # 40004004 <__stack_top+0x3e004004>
 a30:	400046b7          	lui	a3,0x40004
 a34:	a039                	j	a42 <i2c_write_byte+0x3a>
 a36:	431c                	lw	a5,0(a4)
 a38:	8bc1                	andi	a5,a5,16
 a3a:	eba5                	bnez	a5,aaa <i2c_write_byte+0xa2>
 a3c:	431c                	lw	a5,0(a4)
 a3e:	8b91                	andi	a5,a5,4
 a40:	efc9                	bnez	a5,ada <i2c_write_byte+0xd2>
 a42:	431c                	lw	a5,0(a4)
 a44:	8ba1                	andi	a5,a5,8
 a46:	dbe5                	beqz	a5,a36 <i2c_write_byte+0x2e>
 a48:	431c                	lw	a5,0(a4)
 a4a:	8b89                	andi	a5,a5,2
 a4c:	c3f9                	beqz	a5,b12 <i2c_write_byte+0x10a>
 a4e:	400047b7          	lui	a5,0x40004
 a52:	c78c                	sw	a1,8(a5)
 a54:	40004737          	lui	a4,0x40004
 a58:	4785                	li	a5,1
 a5a:	c29c                	sw	a5,0(a3)
 a5c:	0711                	addi	a4,a4,4 # 40004004 <__stack_top+0x3e004004>
 a5e:	400046b7          	lui	a3,0x40004
 a62:	a039                	j	a70 <i2c_write_byte+0x68>
 a64:	431c                	lw	a5,0(a4)
 a66:	8bc1                	andi	a5,a5,16
 a68:	ebbd                	bnez	a5,ade <i2c_write_byte+0xd6>
 a6a:	431c                	lw	a5,0(a4)
 a6c:	8b91                	andi	a5,a5,4
 a6e:	e3c5                	bnez	a5,b0e <i2c_write_byte+0x106>
 a70:	431c                	lw	a5,0(a4)
 a72:	8ba1                	andi	a5,a5,8
 a74:	dbe5                	beqz	a5,a64 <i2c_write_byte+0x5c>
 a76:	431c                	lw	a5,0(a4)
 a78:	8b89                	andi	a5,a5,2
 a7a:	cfd1                	beqz	a5,b16 <i2c_write_byte+0x10e>
 a7c:	4789                	li	a5,2
 a7e:	40004737          	lui	a4,0x40004
 a82:	c29c                	sw	a5,0(a3)
 a84:	0711                	addi	a4,a4,4 # 40004004 <__stack_top+0x3e004004>
 a86:	a039                	j	a94 <i2c_write_byte+0x8c>
 a88:	431c                	lw	a5,0(a4)
 a8a:	8bc1                	andi	a5,a5,16
 a8c:	e799                	bnez	a5,a9a <i2c_write_byte+0x92>
 a8e:	431c                	lw	a5,0(a4)
 a90:	8b91                	andi	a5,a5,4
 a92:	e781                	bnez	a5,a9a <i2c_write_byte+0x92>
 a94:	431c                	lw	a5,0(a4)
 a96:	8ba1                	andi	a5,a5,8
 a98:	dbe5                	beqz	a5,a88 <i2c_write_byte+0x80>
 a9a:	40004737          	lui	a4,0x40004
 a9e:	0711                	addi	a4,a4,4 # 40004004 <__stack_top+0x3e004004>
 aa0:	431c                	lw	a5,0(a4)
 aa2:	8b85                	andi	a5,a5,1
 aa4:	fff5                	bnez	a5,aa0 <i2c_write_byte+0x98>
 aa6:	4501                	li	a0,0
 aa8:	8082                	ret
 aaa:	557d                	li	a0,-1
 aac:	400047b7          	lui	a5,0x40004
 ab0:	4689                	li	a3,2
 ab2:	c394                	sw	a3,0(a5)
 ab4:	00478713          	addi	a4,a5,4 # 40004004 <__stack_top+0x3e004004>
 ab8:	a039                	j	ac6 <i2c_write_byte+0xbe>
 aba:	431c                	lw	a5,0(a4)
 abc:	8bc1                	andi	a5,a5,16
 abe:	e799                	bnez	a5,acc <i2c_write_byte+0xc4>
 ac0:	431c                	lw	a5,0(a4)
 ac2:	8b91                	andi	a5,a5,4
 ac4:	e781                	bnez	a5,acc <i2c_write_byte+0xc4>
 ac6:	431c                	lw	a5,0(a4)
 ac8:	8ba1                	andi	a5,a5,8
 aca:	dbe5                	beqz	a5,aba <i2c_write_byte+0xb2>
 acc:	40004737          	lui	a4,0x40004
 ad0:	0711                	addi	a4,a4,4 # 40004004 <__stack_top+0x3e004004>
 ad2:	431c                	lw	a5,0(a4)
 ad4:	8b85                	andi	a5,a5,1
 ad6:	fff5                	bnez	a5,ad2 <i2c_write_byte+0xca>
 ad8:	8082                	ret
 ada:	5579                	li	a0,-2
 adc:	bfc1                	j	aac <i2c_write_byte+0xa4>
 ade:	557d                	li	a0,-1
 ae0:	400047b7          	lui	a5,0x40004
 ae4:	4689                	li	a3,2
 ae6:	c394                	sw	a3,0(a5)
 ae8:	00478713          	addi	a4,a5,4 # 40004004 <__stack_top+0x3e004004>
 aec:	a039                	j	afa <i2c_write_byte+0xf2>
 aee:	431c                	lw	a5,0(a4)
 af0:	8bc1                	andi	a5,a5,16
 af2:	e799                	bnez	a5,b00 <i2c_write_byte+0xf8>
 af4:	431c                	lw	a5,0(a4)
 af6:	8b91                	andi	a5,a5,4
 af8:	e781                	bnez	a5,b00 <i2c_write_byte+0xf8>
 afa:	431c                	lw	a5,0(a4)
 afc:	8ba1                	andi	a5,a5,8
 afe:	dbe5                	beqz	a5,aee <i2c_write_byte+0xe6>
 b00:	40004737          	lui	a4,0x40004
 b04:	0711                	addi	a4,a4,4 # 40004004 <__stack_top+0x3e004004>
 b06:	431c                	lw	a5,0(a4)
 b08:	8b85                	andi	a5,a5,1
 b0a:	fff5                	bnez	a5,b06 <i2c_write_byte+0xfe>
 b0c:	8082                	ret
 b0e:	5579                	li	a0,-2
 b10:	bfc1                	j	ae0 <i2c_write_byte+0xd8>
 b12:	5575                	li	a0,-3
 b14:	bf61                	j	aac <i2c_write_byte+0xa4>
 b16:	5575                	li	a0,-3
 b18:	b7e1                	j	ae0 <i2c_write_byte+0xd8>

00000b1a <_exit>:
 b1a:	a001                	j	b1a <_exit>

00000b1c <exit>:
 b1c:	1161                	addi	sp,sp,-8
 b1e:	4581                	li	a1,0
 b20:	c022                	sw	s0,0(sp)
 b22:	c206                	sw	ra,4(sp)
 b24:	842a                	mv	s0,a0
 b26:	2041                	jal	ba6 <__call_exitprocs>
 b28:	9b01a783          	lw	a5,-1616(gp) # 10001b0 <__stdio_exit_handler>
 b2c:	c391                	beqz	a5,b30 <exit+0x14>
 b2e:	9782                	jalr	a5
 b30:	8522                	mv	a0,s0
 b32:	37e5                	jal	b1a <_exit>

00000b34 <__libc_init_array>:
 b34:	1141                	addi	sp,sp,-16
 b36:	c422                	sw	s0,8(sp)
 b38:	c226                	sw	s1,4(sp)
 b3a:	c606                	sw	ra,12(sp)
 b3c:	00000413          	li	s0,0
 b40:	00000493          	li	s1,0
 b44:	02940063          	beq	s0,s1,b64 <__libc_init_array+0x30>
 b48:	8c05                	sub	s0,s0,s1
 b4a:	40245793          	srai	a5,s0,0x2
 b4e:	c03e                	sw	a5,0(sp)
 b50:	4401                	li	s0,0
 b52:	00241713          	slli	a4,s0,0x2
 b56:	9726                	add	a4,a4,s1
 b58:	4318                	lw	a4,0(a4)
 b5a:	0405                	addi	s0,s0,1
 b5c:	9702                	jalr	a4
 b5e:	4782                	lw	a5,0(sp)
 b60:	fef469e3          	bltu	s0,a5,b52 <__libc_init_array+0x1e>
 b64:	00000413          	li	s0,0
 b68:	00000493          	li	s1,0
 b6c:	02940063          	beq	s0,s1,b8c <__libc_init_array+0x58>
 b70:	8c05                	sub	s0,s0,s1
 b72:	40245793          	srai	a5,s0,0x2
 b76:	c03e                	sw	a5,0(sp)
 b78:	4401                	li	s0,0
 b7a:	00241713          	slli	a4,s0,0x2
 b7e:	9726                	add	a4,a4,s1
 b80:	4318                	lw	a4,0(a4)
 b82:	0405                	addi	s0,s0,1
 b84:	9702                	jalr	a4
 b86:	4782                	lw	a5,0(sp)
 b88:	fef469e3          	bltu	s0,a5,b7a <__libc_init_array+0x46>
 b8c:	40b2                	lw	ra,12(sp)
 b8e:	4422                	lw	s0,8(sp)
 b90:	4492                	lw	s1,4(sp)
 b92:	0141                	addi	sp,sp,16
 b94:	8082                	ret

00000b96 <register_fini>:
 b96:	00000793          	li	a5,0
 b9a:	c789                	beqz	a5,ba4 <register_fini+0xe>
 b9c:	6505                	lui	a0,0x1
 b9e:	c8e50513          	addi	a0,a0,-882 # c8e <__libc_fini_array>
 ba2:	a0cd                	j	c84 <atexit>
 ba4:	8082                	ret

00000ba6 <__call_exitprocs>:
 ba6:	1111                	addi	sp,sp,-28
 ba8:	c826                	sw	s1,16(sp)
 baa:	9b41a483          	lw	s1,-1612(gp) # 10001b4 <__atexit>
 bae:	cc06                	sw	ra,24(sp)
 bb0:	c62a                	sw	a0,12(sp)
 bb2:	c0b5                	beqz	s1,c16 <__call_exitprocs+0x70>
 bb4:	ca22                	sw	s0,20(sp)
 bb6:	842e                	mv	s0,a1
 bb8:	40d8                	lw	a4,4(s1)
 bba:	fff70793          	addi	a5,a4,-1
 bbe:	0407cb63          	bltz	a5,c14 <__call_exitprocs+0x6e>
 bc2:	070a                	slli	a4,a4,0x2
 bc4:	9726                	add	a4,a4,s1
 bc6:	e441                	bnez	s0,c4e <__call_exitprocs+0xa8>
 bc8:	40d0                	lw	a2,4(s1)
 bca:	00472303          	lw	t1,4(a4)
 bce:	167d                	addi	a2,a2,-1 # 40001fff <__stack_top+0x3e001fff>
 bd0:	06f60d63          	beq	a2,a5,c4a <__call_exitprocs+0xa4>
 bd4:	00072223          	sw	zero,4(a4)
 bd8:	02030963          	beqz	t1,c0a <__call_exitprocs+0x64>
 bdc:	1884a583          	lw	a1,392(s1)
 be0:	4605                	li	a2,1
 be2:	00f61633          	sll	a2,a2,a5
 be6:	8df1                	and	a1,a1,a2
 be8:	0044a383          	lw	t2,4(s1)
 bec:	e98d                	bnez	a1,c1e <__call_exitprocs+0x78>
 bee:	c43e                	sw	a5,8(sp)
 bf0:	c21e                	sw	t2,4(sp)
 bf2:	c03a                	sw	a4,0(sp)
 bf4:	9302                	jalr	t1
 bf6:	4702                	lw	a4,0(sp)
 bf8:	4392                	lw	t2,4(sp)
 bfa:	47a2                	lw	a5,8(sp)
 bfc:	40cc                	lw	a1,4(s1)
 bfe:	9b41a603          	lw	a2,-1612(gp) # 10001b4 <__atexit>
 c02:	04759163          	bne	a1,t2,c44 <__call_exitprocs+0x9e>
 c06:	02961f63          	bne	a2,s1,c44 <__call_exitprocs+0x9e>
 c0a:	17fd                	addi	a5,a5,-1
 c0c:	567d                	li	a2,-1
 c0e:	1771                	addi	a4,a4,-4
 c10:	fac79be3          	bne	a5,a2,bc6 <__call_exitprocs+0x20>
 c14:	4452                	lw	s0,20(sp)
 c16:	40e2                	lw	ra,24(sp)
 c18:	44c2                	lw	s1,16(sp)
 c1a:	0171                	addi	sp,sp,28
 c1c:	8082                	ret
 c1e:	18c4a503          	lw	a0,396(s1)
 c22:	c43e                	sw	a5,8(sp)
 c24:	c21e                	sw	t2,4(sp)
 c26:	8e69                	and	a2,a2,a0
 c28:	c03a                	sw	a4,0(sp)
 c2a:	08472583          	lw	a1,132(a4)
 c2e:	e629                	bnez	a2,c78 <__call_exitprocs+0xd2>
 c30:	4532                	lw	a0,12(sp)
 c32:	9302                	jalr	t1
 c34:	4392                	lw	t2,4(sp)
 c36:	40cc                	lw	a1,4(s1)
 c38:	4702                	lw	a4,0(sp)
 c3a:	47a2                	lw	a5,8(sp)
 c3c:	9b41a603          	lw	a2,-1612(gp) # 10001b4 <__atexit>
 c40:	fc7583e3          	beq	a1,t2,c06 <__call_exitprocs+0x60>
 c44:	da61                	beqz	a2,c14 <__call_exitprocs+0x6e>
 c46:	84b2                	mv	s1,a2
 c48:	bf85                	j	bb8 <__call_exitprocs+0x12>
 c4a:	c0dc                	sw	a5,4(s1)
 c4c:	b771                	j	bd8 <__call_exitprocs+0x32>
 c4e:	557d                	li	a0,-1
 c50:	10472603          	lw	a2,260(a4)
 c54:	fff78593          	addi	a1,a5,-1
 c58:	f6c408e3          	beq	s0,a2,bc8 <__call_exitprocs+0x22>
 c5c:	17f9                	addi	a5,a5,-2
 c5e:	faa58be3          	beq	a1,a0,c14 <__call_exitprocs+0x6e>
 c62:	10072603          	lw	a2,256(a4)
 c66:	00860663          	beq	a2,s0,c72 <__call_exitprocs+0xcc>
 c6a:	1761                	addi	a4,a4,-8
 c6c:	fea792e3          	bne	a5,a0,c50 <__call_exitprocs+0xaa>
 c70:	b755                	j	c14 <__call_exitprocs+0x6e>
 c72:	87ae                	mv	a5,a1
 c74:	1771                	addi	a4,a4,-4
 c76:	bf89                	j	bc8 <__call_exitprocs+0x22>
 c78:	852e                	mv	a0,a1
 c7a:	9302                	jalr	t1
 c7c:	47a2                	lw	a5,8(sp)
 c7e:	4392                	lw	t2,4(sp)
 c80:	4702                	lw	a4,0(sp)
 c82:	bfad                	j	bfc <__call_exitprocs+0x56>

00000c84 <atexit>:
 c84:	85aa                	mv	a1,a0
 c86:	4681                	li	a3,0
 c88:	4601                	li	a2,0
 c8a:	4501                	li	a0,0
 c8c:	a80d                	j	cbe <__register_exitproc>

00000c8e <__libc_fini_array>:
 c8e:	1151                	addi	sp,sp,-12
 c90:	c222                	sw	s0,4(sp)
 c92:	00000793          	li	a5,0
 c96:	00000413          	li	s0,0
 c9a:	8f81                	sub	a5,a5,s0
 c9c:	c026                	sw	s1,0(sp)
 c9e:	c406                	sw	ra,8(sp)
 ca0:	4027d493          	srai	s1,a5,0x2
 ca4:	c881                	beqz	s1,cb4 <__libc_fini_array+0x26>
 ca6:	1471                	addi	s0,s0,-4
 ca8:	943e                	add	s0,s0,a5
 caa:	401c                	lw	a5,0(s0)
 cac:	14fd                	addi	s1,s1,-1
 cae:	1471                	addi	s0,s0,-4
 cb0:	9782                	jalr	a5
 cb2:	fce5                	bnez	s1,caa <__libc_fini_array+0x1c>
 cb4:	40a2                	lw	ra,8(sp)
 cb6:	4412                	lw	s0,4(sp)
 cb8:	4482                	lw	s1,0(sp)
 cba:	0131                	addi	sp,sp,12
 cbc:	8082                	ret

00000cbe <__register_exitproc>:
 cbe:	9b41a783          	lw	a5,-1612(gp) # 10001b4 <__atexit>
 cc2:	c3a1                	beqz	a5,d02 <__register_exitproc+0x44>
 cc4:	43d8                	lw	a4,4(a5)
 cc6:	437d                	li	t1,31
 cc8:	04e34f63          	blt	t1,a4,d26 <__register_exitproc+0x68>
 ccc:	00271313          	slli	t1,a4,0x2
 cd0:	c11d                	beqz	a0,cf6 <__register_exitproc+0x38>
 cd2:	006783b3          	add	t2,a5,t1
 cd6:	08c3a423          	sw	a2,136(t2)
 cda:	1887a283          	lw	t0,392(a5)
 cde:	4605                	li	a2,1
 ce0:	00e61633          	sll	a2,a2,a4
 ce4:	00c2e2b3          	or	t0,t0,a2
 ce8:	1857a423          	sw	t0,392(a5)
 cec:	10d3a423          	sw	a3,264(t2)
 cf0:	4689                	li	a3,2
 cf2:	00d50f63          	beq	a0,a3,d10 <__register_exitproc+0x52>
 cf6:	0705                	addi	a4,a4,1
 cf8:	c3d8                	sw	a4,4(a5)
 cfa:	979a                	add	a5,a5,t1
 cfc:	c78c                	sw	a1,8(a5)
 cfe:	4501                	li	a0,0
 d00:	8082                	ret
 d02:	010007b7          	lui	a5,0x1000
 d06:	01c78793          	addi	a5,a5,28 # 100001c <__atexit0>
 d0a:	9af1aa23          	sw	a5,-1612(gp) # 10001b4 <__atexit>
 d0e:	bf5d                	j	cc4 <__register_exitproc+0x6>
 d10:	18c7a683          	lw	a3,396(a5)
 d14:	0705                	addi	a4,a4,1
 d16:	c3d8                	sw	a4,4(a5)
 d18:	8ed1                	or	a3,a3,a2
 d1a:	18d7a623          	sw	a3,396(a5)
 d1e:	979a                	add	a5,a5,t1
 d20:	c78c                	sw	a1,8(a5)
 d22:	4501                	li	a0,0
 d24:	8082                	ret
 d26:	557d                	li	a0,-1
 d28:	8082                	ret

Disassembly of section .rodata:

00000d2c <.rodata>:
 d2c:	6548                	.insn	2, 0x6548
 d2e:	6c6c                	.insn	2, 0x6c6c
 d30:	53202c6f          	jal	s8,3262 <__data_load_start+0x250e>
 d34:	2d61746f          	jal	s0,1800a <__data_load_start+0x172b6>
 d38:	21436f53          	.insn	4, 0x21436f53
 d3c:	0000                	unimp
 d3e:	0000                	unimp
 d40:	61746f53          	.insn	4, 0x61746f53
 d44:	6554                	.insn	2, 0x6554
 d46:	006b                	.short	0x006b

Disassembly of section .init_array:

00000d48 <__frame_dummy_init_array_entry>:
 d48:	00ba                	slli	ra,ra,0xe
 d4a:	0000                	unimp
 d4c:	0b96                	slli	s7,s7,0x5
	...

Disassembly of section .fini_array:

00000d50 <__do_global_dtors_aux_fini_array_entry>:
 d50:	0088                	addi	a0,sp,64
	...

Disassembly of section .riscv.attributes:

00000000 <.riscv.attributes>:
   0:	2b41                	jal	590 <lcd1602_init+0x3cc>
   2:	0000                	unimp
   4:	7200                	.insn	2, 0x7200
   6:	7369                	lui	t1,0xffffa
   8:	01007663          	bgeu	zero,a6,14 <_start_boot+0x14>
   c:	0021                	c.nop	8
   e:	0000                	unimp
  10:	0404                	addi	s1,sp,512
  12:	7205                	lui	tp,0xfffe1
  14:	3376                	.insn	2, 0x3376
  16:	6532                	.insn	2, 0x6532
  18:	7032                	.insn	2, 0x7032
  1a:	5f30                	lw	a2,120(a4)
  1c:	30703263          	.insn	4, 0x30703263
  20:	7a5f 6163 7031      	.insn	6, 0x703161637a5f
  26:	0030                	addi	a2,sp,8
  28:	0108                	addi	a0,sp,128
  2a:	0b0a                	slli	s6,s6,0x2

Disassembly of section .comment:

00000000 <.comment>:
   0:	3a434347          	.insn	4, 0x3a434347
   4:	2820                	.insn	2, 0x2820
   6:	31313567          	.insn	4, 0x31313567
   a:	6335                	lui	t1,0xd
   c:	34346537          	lui	a0,0x34346
  10:	20296637          	lui	a2,0x20296
  14:	3531                	jal	fffffe20 <__stack_top+0xfdfffe20>
  16:	322e                	.insn	2, 0x322e
  18:	302e                	.insn	2, 0x302e
  1a:	4700                	lw	s0,8(a4)
  1c:	203a4343          	.insn	4, 0x203a4343
  20:	4728                	lw	a0,72(a4)
  22:	554e                	lw	a0,240(sp)
  24:	2029                	jal	2e <_start_boot+0x2e>
  26:	3531                	jal	fffffe32 <__stack_top+0xfdfffe32>
  28:	322e                	.insn	2, 0x322e
  2a:	302e                	.insn	2, 0x302e
	...
