
build/spi-transfer.elf:     file format elf32-littleriscv


Disassembly of section .text:

00000000 <_start>:
   0:	01800117          	auipc	sp,0x1800
   4:	00010113          	mv	sp,sp
   8:	01000197          	auipc	gp,0x1000
   c:	7f818193          	addi	gp,gp,2040 # 1000800 <__global_pointer$>
  10:	01000737          	lui	a4,0x1000
  14:	010006b7          	lui	a3,0x1000
  18:	00070713          	mv	a4,a4
  1c:	00068693          	mv	a3,a3
  20:	00d77e63          	bgeu	a4,a3,3c <_start+0x3c>
  24:	8e99                	sub	a3,a3,a4
  26:	5ac00793          	li	a5,1452
  2a:	00f68633          	add	a2,a3,a5
  2e:	4394                	lw	a3,0(a5)
  30:	0791                	addi	a5,a5,4
  32:	0711                	addi	a4,a4,4 # 1000004 <__bss_end+0x4>
  34:	fed72e23          	sw	a3,-4(a4)
  38:	fec79be3          	bne	a5,a2,2e <_start+0x2e>
  3c:	010007b7          	lui	a5,0x1000
  40:	01000737          	lui	a4,0x1000
  44:	00078793          	mv	a5,a5
  48:	00070713          	mv	a4,a4
  4c:	00e7f763          	bgeu	a5,a4,5a <_start+0x5a>
  50:	0007a023          	sw	zero,0(a5) # 1000000 <__bss_end>
  54:	0791                	addi	a5,a5,4
  56:	fef71de3          	bne	a4,a5,50 <_start+0x50>
  5a:	22e5                	jal	242 <main>
  5c:	a001                	j	5c <_start+0x5c>

0000005e <spi_transfer_single_byte>:
  5e:	7139                	addi	sp,sp,-64
  60:	dc22                	sw	s0,56(sp)
  62:	842a                	mv	s0,a0
  64:	450d                	li	a0,3
  66:	de06                	sw	ra,60(sp)
  68:	da26                	sw	s1,52(sp)
  6a:	d84a                	sw	s2,48(sp)
  6c:	d64e                	sw	s3,44(sp)
  6e:	2651                	jal	3f2 <spi_init>
  70:	8522                	mv	a0,s0
  72:	2e49                	jal	404 <spi_set_mode>
  74:	4585                	li	a1,1
  76:	4509                	li	a0,2
  78:	299d                	jal	4ee <gpio_set_direction>
  7a:	4509                	li	a0,2
  7c:	215d                	jal	522 <gpio_set_pin>
  7e:	840a                	mv	s0,sp
  80:	890a                	mv	s2,sp
  82:	4481                	li	s1,0
  84:	02000993          	li	s3,32
  88:	4509                	li	a0,2
  8a:	295d                	jal	540 <gpio_clear_pin>
  8c:	0ff4f513          	zext.b	a0,s1
  90:	2669                	jal	41a <spi_transfer_byte>
  92:	87aa                	mv	a5,a0
  94:	00f90023          	sb	a5,0(s2)
  98:	4509                	li	a0,2
  9a:	0485                	addi	s1,s1,1
  9c:	2159                	jal	522 <gpio_set_pin>
  9e:	0905                	addi	s2,s2,1
  a0:	ff3494e3          	bne	s1,s3,88 <spi_transfer_single_byte+0x2a>
  a4:	02040493          	addi	s1,s0,32
  a8:	4509                	li	a0,2
  aa:	2959                	jal	540 <gpio_clear_pin>
  ac:	00044503          	lbu	a0,0(s0)
  b0:	0405                	addi	s0,s0,1
  b2:	26a5                	jal	41a <spi_transfer_byte>
  b4:	4509                	li	a0,2
  b6:	21b5                	jal	522 <gpio_set_pin>
  b8:	fe9418e3          	bne	s0,s1,a8 <spi_transfer_single_byte+0x4a>
  bc:	50f2                	lw	ra,60(sp)
  be:	5462                	lw	s0,56(sp)
  c0:	54d2                	lw	s1,52(sp)
  c2:	5942                	lw	s2,48(sp)
  c4:	59b2                	lw	s3,44(sp)
  c6:	6121                	addi	sp,sp,64
  c8:	8082                	ret

000000ca <spi_transfer_multiple_bytes>:
  ca:	712d                	addi	sp,sp,-288
  cc:	10812c23          	sw	s0,280(sp) # 1800118 <__stack_top+0x118>
  d0:	842a                	mv	s0,a0
  d2:	450d                	li	a0,3
  d4:	10112e23          	sw	ra,284(sp)
  d8:	10912a23          	sw	s1,276(sp)
  dc:	11212823          	sw	s2,272(sp)
  e0:	11312623          	sw	s3,268(sp)
  e4:	2639                	jal	3f2 <spi_init>
  e6:	8522                	mv	a0,s0
  e8:	2e31                	jal	404 <spi_set_mode>
  ea:	4585                	li	a1,1
  ec:	4509                	li	a0,2
  ee:	2101                	jal	4ee <gpio_set_direction>
  f0:	4509                	li	a0,2
  f2:	2905                	jal	522 <gpio_set_pin>
  f4:	4509                	li	a0,2
  f6:	21a9                	jal	540 <gpio_clear_pin>
  f8:	840a                	mv	s0,sp
  fa:	890a                	mv	s2,sp
  fc:	4481                	li	s1,0
  fe:	10000993          	li	s3,256
 102:	0ff4f513          	zext.b	a0,s1
 106:	2e11                	jal	41a <spi_transfer_byte>
 108:	00a90023          	sb	a0,0(s2)
 10c:	0485                	addi	s1,s1,1
 10e:	0905                	addi	s2,s2,1
 110:	ff3499e3          	bne	s1,s3,102 <spi_transfer_multiple_bytes+0x38>
 114:	4509                	li	a0,2
 116:	2131                	jal	522 <gpio_set_pin>
 118:	4509                	li	a0,2
 11a:	211d                	jal	540 <gpio_clear_pin>
 11c:	10040493          	addi	s1,s0,256
 120:	00044503          	lbu	a0,0(s0)
 124:	0405                	addi	s0,s0,1
 126:	2cd5                	jal	41a <spi_transfer_byte>
 128:	fe941ce3          	bne	s0,s1,120 <spi_transfer_multiple_bytes+0x56>
 12c:	11812403          	lw	s0,280(sp)
 130:	11c12083          	lw	ra,284(sp)
 134:	11412483          	lw	s1,276(sp)
 138:	11012903          	lw	s2,272(sp)
 13c:	10c12983          	lw	s3,268(sp)
 140:	4509                	li	a0,2
 142:	6115                	addi	sp,sp,288
 144:	aef9                	j	522 <gpio_set_pin>

00000146 <spi_transfer_single_hword>:
 146:	711d                	addi	sp,sp,-96
 148:	cca2                	sw	s0,88(sp)
 14a:	842a                	mv	s0,a0
 14c:	450d                	li	a0,3
 14e:	ce86                	sw	ra,92(sp)
 150:	caa6                	sw	s1,84(sp)
 152:	c8ca                	sw	s2,80(sp)
 154:	c6ce                	sw	s3,76(sp)
 156:	2c71                	jal	3f2 <spi_init>
 158:	8522                	mv	a0,s0
 15a:	246d                	jal	404 <spi_set_mode>
 15c:	4585                	li	a1,1
 15e:	4509                	li	a0,2
 160:	2679                	jal	4ee <gpio_set_direction>
 162:	4509                	li	a0,2
 164:	2e7d                	jal	522 <gpio_set_pin>
 166:	848a                	mv	s1,sp
 168:	870a                	mv	a4,sp
 16a:	4781                	li	a5,0
 16c:	02000693          	li	a3,32
 170:	00f70023          	sb	a5,0(a4) # 1000000 <__bss_end>
 174:	0785                	addi	a5,a5,1
 176:	0705                	addi	a4,a4,1
 178:	fed79ce3          	bne	a5,a3,170 <spi_transfer_single_hword+0x2a>
 17c:	1000                	addi	s0,sp,32
 17e:	8922                	mv	s2,s0
 180:	02048993          	addi	s3,s1,32
 184:	4509                	li	a0,2
 186:	2e6d                	jal	540 <gpio_clear_pin>
 188:	0004d503          	lhu	a0,0(s1)
 18c:	0489                	addi	s1,s1,2
 18e:	0909                	addi	s2,s2,2
 190:	2475                	jal	43c <spi_transfer_hword>
 192:	87aa                	mv	a5,a0
 194:	fef91f23          	sh	a5,-2(s2)
 198:	4509                	li	a0,2
 19a:	2661                	jal	522 <gpio_set_pin>
 19c:	ff3494e3          	bne	s1,s3,184 <spi_transfer_single_hword+0x3e>
 1a0:	02040493          	addi	s1,s0,32
 1a4:	4509                	li	a0,2
 1a6:	2e69                	jal	540 <gpio_clear_pin>
 1a8:	00045503          	lhu	a0,0(s0)
 1ac:	0409                	addi	s0,s0,2
 1ae:	2479                	jal	43c <spi_transfer_hword>
 1b0:	4509                	li	a0,2
 1b2:	2e85                	jal	522 <gpio_set_pin>
 1b4:	fe9418e3          	bne	s0,s1,1a4 <spi_transfer_single_hword+0x5e>
 1b8:	40f6                	lw	ra,92(sp)
 1ba:	4466                	lw	s0,88(sp)
 1bc:	44d6                	lw	s1,84(sp)
 1be:	4946                	lw	s2,80(sp)
 1c0:	49b6                	lw	s3,76(sp)
 1c2:	6125                	addi	sp,sp,96
 1c4:	8082                	ret

000001c6 <spi_transfer_single_word>:
 1c6:	711d                	addi	sp,sp,-96
 1c8:	cca2                	sw	s0,88(sp)
 1ca:	842a                	mv	s0,a0
 1cc:	450d                	li	a0,3
 1ce:	ce86                	sw	ra,92(sp)
 1d0:	caa6                	sw	s1,84(sp)
 1d2:	c8ca                	sw	s2,80(sp)
 1d4:	c6ce                	sw	s3,76(sp)
 1d6:	2c31                	jal	3f2 <spi_init>
 1d8:	8522                	mv	a0,s0
 1da:	242d                	jal	404 <spi_set_mode>
 1dc:	4585                	li	a1,1
 1de:	4509                	li	a0,2
 1e0:	2639                	jal	4ee <gpio_set_direction>
 1e2:	4509                	li	a0,2
 1e4:	2e3d                	jal	522 <gpio_set_pin>
 1e6:	848a                	mv	s1,sp
 1e8:	870a                	mv	a4,sp
 1ea:	4781                	li	a5,0
 1ec:	02000693          	li	a3,32
 1f0:	00f70023          	sb	a5,0(a4)
 1f4:	0785                	addi	a5,a5,1
 1f6:	0705                	addi	a4,a4,1
 1f8:	fed79ce3          	bne	a5,a3,1f0 <spi_transfer_single_word+0x2a>
 1fc:	1000                	addi	s0,sp,32
 1fe:	8922                	mv	s2,s0
 200:	02048993          	addi	s3,s1,32
 204:	4509                	li	a0,2
 206:	2e2d                	jal	540 <gpio_clear_pin>
 208:	4088                	lw	a0,0(s1)
 20a:	0491                	addi	s1,s1,4
 20c:	0911                	addi	s2,s2,4
 20e:	2c81                	jal	45e <spi_transfer_word>
 210:	87aa                	mv	a5,a0
 212:	fef92e23          	sw	a5,-4(s2)
 216:	4509                	li	a0,2
 218:	2629                	jal	522 <gpio_set_pin>
 21a:	ff3495e3          	bne	s1,s3,204 <spi_transfer_single_word+0x3e>
 21e:	02040493          	addi	s1,s0,32
 222:	4509                	li	a0,2
 224:	2e31                	jal	540 <gpio_clear_pin>
 226:	4008                	lw	a0,0(s0)
 228:	0411                	addi	s0,s0,4
 22a:	2c15                	jal	45e <spi_transfer_word>
 22c:	4509                	li	a0,2
 22e:	2cd5                	jal	522 <gpio_set_pin>
 230:	fe9419e3          	bne	s0,s1,222 <spi_transfer_single_word+0x5c>
 234:	40f6                	lw	ra,92(sp)
 236:	4466                	lw	s0,88(sp)
 238:	44d6                	lw	s1,84(sp)
 23a:	4946                	lw	s2,80(sp)
 23c:	49b6                	lw	s3,76(sp)
 23e:	6125                	addi	sp,sp,96
 240:	8082                	ret

00000242 <main>:
 242:	1101                	addi	sp,sp,-32
 244:	cc22                	sw	s0,24(sp)
 246:	ce06                	sw	ra,28(sp)
 248:	ca26                	sw	s1,20(sp)
 24a:	c84a                	sw	s2,16(sp)
 24c:	1000                	addi	s0,sp,32
 24e:	014007b7          	lui	a5,0x1400
 252:	439c                	lw	a5,0(a5)
 254:	4745                	li	a4,17
 256:	18f76463          	bltu	a4,a5,3de <main+0x19c>
 25a:	078a                	slli	a5,a5,0x2
 25c:	56400713          	li	a4,1380
 260:	97ba                	add	a5,a5,a4
 262:	439c                	lw	a5,0(a5)
 264:	8782                	jr	a5
 266:	450d                	li	a0,3
 268:	2269                	jal	3f2 <spi_init>
 26a:	4501                	li	a0,0
 26c:	2a61                	jal	404 <spi_set_mode>
 26e:	4585                	li	a1,1
 270:	4509                	li	a0,2
 272:	2cb5                	jal	4ee <gpio_set_direction>
 274:	4509                	li	a0,2
 276:	2475                	jal	522 <gpio_set_pin>
 278:	848a                	mv	s1,sp
 27a:	7111                	addi	sp,sp,-256
 27c:	870a                	mv	a4,sp
 27e:	7111                	addi	sp,sp,-256
 280:	890a                	mv	s2,sp
 282:	4581                	li	a1,0
 284:	10000693          	li	a3,256
 288:	00b707b3          	add	a5,a4,a1
 28c:	00b78023          	sb	a1,0(a5) # 1400000 <__global_pointer$+0x3ff800>
 290:	0585                	addi	a1,a1,1
 292:	fed59be3          	bne	a1,a3,288 <main+0x46>
 296:	4509                	li	a0,2
 298:	fee42423          	sw	a4,-24(s0)
 29c:	feb42623          	sw	a1,-20(s0)
 2a0:	2445                	jal	540 <gpio_clear_pin>
 2a2:	fec42583          	lw	a1,-20(s0)
 2a6:	fe842503          	lw	a0,-24(s0)
 2aa:	2ac9                	jal	47c <spi_transmit_fast>
 2ac:	4509                	li	a0,2
 2ae:	2c95                	jal	522 <gpio_set_pin>
 2b0:	4509                	li	a0,2
 2b2:	2479                	jal	540 <gpio_clear_pin>
 2b4:	fec42583          	lw	a1,-20(s0)
 2b8:	854a                	mv	a0,s2
 2ba:	22c9                	jal	47c <spi_transmit_fast>
 2bc:	4509                	li	a0,2
 2be:	2495                	jal	522 <gpio_set_pin>
 2c0:	8126                	mv	sp,s1
 2c2:	00000073          	ecall
 2c6:	a001                	j	2c6 <main+0x84>
 2c8:	4505                	li	a0,1
 2ca:	2225                	jal	3f2 <spi_init>
 2cc:	4501                	li	a0,0
 2ce:	2a1d                	jal	404 <spi_set_mode>
 2d0:	4585                	li	a1,1
 2d2:	4509                	li	a0,2
 2d4:	2c29                	jal	4ee <gpio_set_direction>
 2d6:	4509                	li	a0,2
 2d8:	24a9                	jal	522 <gpio_set_pin>
 2da:	848a                	mv	s1,sp
 2dc:	7111                	addi	sp,sp,-256
 2de:	868a                	mv	a3,sp
 2e0:	7111                	addi	sp,sp,-256
 2e2:	890a                	mv	s2,sp
 2e4:	4781                	li	a5,0
 2e6:	40000613          	li	a2,1024
 2ea:	00f68733          	add	a4,a3,a5
 2ee:	00f70023          	sb	a5,0(a4)
 2f2:	0785                	addi	a5,a5,1
 2f4:	fec79be3          	bne	a5,a2,2ea <main+0xa8>
 2f8:	4509                	li	a0,2
 2fa:	fed42623          	sw	a3,-20(s0)
 2fe:	2489                	jal	540 <gpio_clear_pin>
 300:	fec42503          	lw	a0,-20(s0)
 304:	10000593          	li	a1,256
 308:	2a95                	jal	47c <spi_transmit_fast>
 30a:	4509                	li	a0,2
 30c:	2c19                	jal	522 <gpio_set_pin>
 30e:	4509                	li	a0,2
 310:	2c05                	jal	540 <gpio_clear_pin>
 312:	10000593          	li	a1,256
 316:	854a                	mv	a0,s2
 318:	2295                	jal	47c <spi_transmit_fast>
 31a:	4509                	li	a0,2
 31c:	2419                	jal	522 <gpio_set_pin>
 31e:	8126                	mv	sp,s1
 320:	00000073          	ecall
 324:	b74d                	j	2c6 <main+0x84>
 326:	4501                	li	a0,0
 328:	334d                	jal	ca <spi_transfer_multiple_bytes>
 32a:	00000073          	ecall
 32e:	bf61                	j	2c6 <main+0x84>
 330:	4501                	li	a0,0
 332:	3d11                	jal	146 <spi_transfer_single_hword>
 334:	00000073          	ecall
 338:	b779                	j	2c6 <main+0x84>
 33a:	4501                	li	a0,0
 33c:	330d                	jal	5e <spi_transfer_single_byte>
 33e:	00000073          	ecall
 342:	b751                	j	2c6 <main+0x84>
 344:	10000513          	li	a0,256
 348:	3b19                	jal	5e <spi_transfer_single_byte>
 34a:	00000073          	ecall
 34e:	bfa5                	j	2c6 <main+0x84>
 350:	20000513          	li	a0,512
 354:	3329                	jal	5e <spi_transfer_single_byte>
 356:	00000073          	ecall
 35a:	b7b5                	j	2c6 <main+0x84>
 35c:	30000513          	li	a0,768
 360:	39fd                	jal	5e <spi_transfer_single_byte>
 362:	00000073          	ecall
 366:	b785                	j	2c6 <main+0x84>
 368:	20000513          	li	a0,512
 36c:	3bb9                	jal	ca <spi_transfer_multiple_bytes>
 36e:	00000073          	ecall
 372:	bf91                	j	2c6 <main+0x84>
 374:	30000513          	li	a0,768
 378:	3b89                	jal	ca <spi_transfer_multiple_bytes>
 37a:	00000073          	ecall
 37e:	b7a1                	j	2c6 <main+0x84>
 380:	10000513          	li	a0,256
 384:	3399                	jal	ca <spi_transfer_multiple_bytes>
 386:	00000073          	ecall
 38a:	bf35                	j	2c6 <main+0x84>
 38c:	4501                	li	a0,0
 38e:	3d25                	jal	1c6 <spi_transfer_single_word>
 390:	00000073          	ecall
 394:	bf0d                	j	2c6 <main+0x84>
 396:	10000513          	li	a0,256
 39a:	3535                	jal	1c6 <spi_transfer_single_word>
 39c:	00000073          	ecall
 3a0:	b71d                	j	2c6 <main+0x84>
 3a2:	20000513          	li	a0,512
 3a6:	3505                	jal	1c6 <spi_transfer_single_word>
 3a8:	00000073          	ecall
 3ac:	bf29                	j	2c6 <main+0x84>
 3ae:	30000513          	li	a0,768
 3b2:	3d11                	jal	1c6 <spi_transfer_single_word>
 3b4:	00000073          	ecall
 3b8:	b739                	j	2c6 <main+0x84>
 3ba:	20000513          	li	a0,512
 3be:	3361                	jal	146 <spi_transfer_single_hword>
 3c0:	00000073          	ecall
 3c4:	b709                	j	2c6 <main+0x84>
 3c6:	30000513          	li	a0,768
 3ca:	3bb5                	jal	146 <spi_transfer_single_hword>
 3cc:	00000073          	ecall
 3d0:	bddd                	j	2c6 <main+0x84>
 3d2:	10000513          	li	a0,256
 3d6:	3b85                	jal	146 <spi_transfer_single_hword>
 3d8:	00000073          	ecall
 3dc:	b5ed                	j	2c6 <main+0x84>
 3de:	4501                	li	a0,0
 3e0:	fef42623          	sw	a5,-20(s0)
 3e4:	31dd                	jal	ca <spi_transfer_multiple_bytes>
 3e6:	fec42783          	lw	a5,-20(s0)
 3ea:	4745                	li	a4,17
 3ec:	ecf75be3          	bge	a4,a5,2c2 <main+0x80>
 3f0:	bdd9                	j	2c6 <main+0x84>

000003f2 <spi_init>:
 3f2:	40005737          	lui	a4,0x40005
 3f6:	4685                	li	a3,1
 3f8:	0ff57513          	zext.b	a0,a0
 3fc:	c314                	sw	a3,0(a4)
 3fe:	cb48                	sw	a0,20(a4)
 400:	4501                	li	a0,0
 402:	8082                	ret

00000404 <spi_set_mode>:
 404:	400057b7          	lui	a5,0x40005
 408:	4bd8                	lw	a4,20(a5)
 40a:	30057513          	andi	a0,a0,768
 40e:	0ff77713          	zext.b	a4,a4
 412:	8d59                	or	a0,a0,a4
 414:	cbc8                	sw	a0,20(a5)
 416:	4501                	li	a0,0
 418:	8082                	ret

0000041a <spi_transfer_byte>:
 41a:	400057b7          	lui	a5,0x40005
 41e:	c7c8                	sw	a0,12(a5)
 420:	4685                	li	a3,1
 422:	c3d4                	sw	a3,4(a5)
 424:	00878713          	addi	a4,a5,8 # 40005008 <__stack_top+0x3e805008>
 428:	431c                	lw	a5,0(a4)
 42a:	8b89                	andi	a5,a5,2
 42c:	dff5                	beqz	a5,428 <spi_transfer_byte+0xe>
 42e:	400057b7          	lui	a5,0x40005
 432:	4318                	lw	a4,0(a4)
 434:	4b88                	lw	a0,16(a5)
 436:	0ff57513          	zext.b	a0,a0
 43a:	8082                	ret

0000043c <spi_transfer_hword>:
 43c:	400057b7          	lui	a5,0x40005
 440:	c7c8                	sw	a0,12(a5)
 442:	468d                	li	a3,3
 444:	c3d4                	sw	a3,4(a5)
 446:	00878713          	addi	a4,a5,8 # 40005008 <__stack_top+0x3e805008>
 44a:	431c                	lw	a5,0(a4)
 44c:	8b89                	andi	a5,a5,2
 44e:	dff5                	beqz	a5,44a <spi_transfer_hword+0xe>
 450:	400057b7          	lui	a5,0x40005
 454:	4318                	lw	a4,0(a4)
 456:	4b88                	lw	a0,16(a5)
 458:	0542                	slli	a0,a0,0x10
 45a:	8141                	srli	a0,a0,0x10
 45c:	8082                	ret

0000045e <spi_transfer_word>:
 45e:	400057b7          	lui	a5,0x40005
 462:	c7c8                	sw	a0,12(a5)
 464:	4695                	li	a3,5
 466:	c3d4                	sw	a3,4(a5)
 468:	00878713          	addi	a4,a5,8 # 40005008 <__stack_top+0x3e805008>
 46c:	431c                	lw	a5,0(a4)
 46e:	8b89                	andi	a5,a5,2
 470:	dff5                	beqz	a5,46c <spi_transfer_word+0xe>
 472:	400057b7          	lui	a5,0x40005
 476:	4318                	lw	a4,0(a4)
 478:	4b88                	lw	a0,16(a5)
 47a:	8082                	ret

0000047c <spi_transmit_fast>:
 47c:	06b05763          	blez	a1,4ea <spi_transmit_fast+0x6e>
 480:	c52d                	beqz	a0,4ea <spi_transmit_fast+0x6e>
 482:	400057b7          	lui	a5,0x40005
 486:	07d1                	addi	a5,a5,20 # 40005014 <__stack_top+0x3e805014>
 488:	439c                	lw	a5,0(a5)
 48a:	470d                	li	a4,3
 48c:	0ff7f793          	zext.b	a5,a5
 490:	02e78963          	beq	a5,a4,4c2 <spi_transmit_fast+0x46>
 494:	4705                	li	a4,1
 496:	04e79a63          	bne	a5,a4,4ea <spi_transmit_fast+0x6e>
 49a:	0035f793          	andi	a5,a1,3
 49e:	e7b1                	bnez	a5,4ea <spi_transmit_fast+0x6e>
 4a0:	99f1                	andi	a1,a1,-4
 4a2:	400056b7          	lui	a3,0x40005
 4a6:	40005737          	lui	a4,0x40005
 4aa:	95aa                	add	a1,a1,a0
 4ac:	06b1                	addi	a3,a3,12 # 4000500c <__stack_top+0x3e80500c>
 4ae:	0711                	addi	a4,a4,4 # 40005004 <__stack_top+0x3e805004>
 4b0:	4615                	li	a2,5
 4b2:	411c                	lw	a5,0(a0)
 4b4:	0511                	addi	a0,a0,4
 4b6:	c29c                	sw	a5,0(a3)
 4b8:	c310                	sw	a2,0(a4)
 4ba:	feb51ce3          	bne	a0,a1,4b2 <spi_transmit_fast+0x36>
 4be:	4501                	li	a0,0
 4c0:	8082                	ret
 4c2:	0015f713          	andi	a4,a1,1
 4c6:	e315                	bnez	a4,4ea <spi_transmit_fast+0x6e>
 4c8:	99f9                	andi	a1,a1,-2
 4ca:	40005637          	lui	a2,0x40005
 4ce:	400056b7          	lui	a3,0x40005
 4d2:	95aa                	add	a1,a1,a0
 4d4:	0631                	addi	a2,a2,12 # 4000500c <__stack_top+0x3e80500c>
 4d6:	0691                	addi	a3,a3,4 # 40005004 <__stack_top+0x3e805004>
 4d8:	00055703          	lhu	a4,0(a0)
 4dc:	0509                	addi	a0,a0,2
 4de:	c218                	sw	a4,0(a2)
 4e0:	c29c                	sw	a5,0(a3)
 4e2:	fea59be3          	bne	a1,a0,4d8 <spi_transmit_fast+0x5c>
 4e6:	4501                	li	a0,0
 4e8:	8082                	ret
 4ea:	557d                	li	a0,-1
 4ec:	8082                	ret

000004ee <gpio_set_direction>:
 4ee:	4799                	li	a5,6
 4f0:	02a7e763          	bltu	a5,a0,51e <gpio_set_direction+0x30>
 4f4:	4785                	li	a5,1
 4f6:	00a79533          	sll	a0,a5,a0
 4fa:	00f58b63          	beq	a1,a5,510 <gpio_set_direction+0x22>
 4fe:	400017b7          	lui	a5,0x40001
 502:	4398                	lw	a4,0(a5)
 504:	fff54513          	not	a0,a0
 508:	8d79                	and	a0,a0,a4
 50a:	c388                	sw	a0,0(a5)
 50c:	4501                	li	a0,0
 50e:	8082                	ret
 510:	40001737          	lui	a4,0x40001
 514:	431c                	lw	a5,0(a4)
 516:	8fc9                	or	a5,a5,a0
 518:	c31c                	sw	a5,0(a4)
 51a:	4501                	li	a0,0
 51c:	8082                	ret
 51e:	557d                	li	a0,-1
 520:	8082                	ret

00000522 <gpio_set_pin>:
 522:	4799                	li	a5,6
 524:	00a7ec63          	bltu	a5,a0,53c <gpio_set_pin+0x1a>
 528:	40001737          	lui	a4,0x40001
 52c:	4354                	lw	a3,4(a4)
 52e:	4785                	li	a5,1
 530:	00a797b3          	sll	a5,a5,a0
 534:	8fd5                	or	a5,a5,a3
 536:	c35c                	sw	a5,4(a4)
 538:	4501                	li	a0,0
 53a:	8082                	ret
 53c:	557d                	li	a0,-1
 53e:	8082                	ret

00000540 <gpio_clear_pin>:
 540:	4799                	li	a5,6
 542:	00a7ee63          	bltu	a5,a0,55e <gpio_clear_pin+0x1e>
 546:	40001737          	lui	a4,0x40001
 54a:	4354                	lw	a3,4(a4)
 54c:	4785                	li	a5,1
 54e:	00a797b3          	sll	a5,a5,a0
 552:	fff7c793          	not	a5,a5
 556:	8ff5                	and	a5,a5,a3
 558:	c35c                	sw	a5,4(a4)
 55a:	4501                	li	a0,0
 55c:	8082                	ret
 55e:	557d                	li	a0,-1
 560:	8082                	ret

Disassembly of section .rodata:

00000564 <__bss_end-0xfffa9c>:
 564:	0326                	slli	t1,t1,0x9
 566:	0000                	unimp
 568:	0380                	addi	s0,sp,448
 56a:	0000                	unimp
 56c:	0368                	addi	a0,sp,396
 56e:	0000                	unimp
 570:	0374                	addi	a3,sp,396
 572:	0000                	unimp
 574:	033a                	slli	t1,t1,0xe
 576:	0000                	unimp
 578:	0344                	addi	s1,sp,388
 57a:	0000                	unimp
 57c:	0350                	addi	a2,sp,388
 57e:	0000                	unimp
 580:	035c                	addi	a5,sp,388
 582:	0000                	unimp
 584:	0330                	addi	a2,sp,392
 586:	0000                	unimp
 588:	03d2                	slli	t2,t2,0x14
 58a:	0000                	unimp
 58c:	03ba                	slli	t2,t2,0xe
 58e:	0000                	unimp
 590:	03c6                	slli	t2,t2,0x11
 592:	0000                	unimp
 594:	038c                	addi	a1,sp,448
 596:	0000                	unimp
 598:	0396                	slli	t2,t2,0x5
 59a:	0000                	unimp
 59c:	03a2                	slli	t2,t2,0x8
 59e:	0000                	unimp
 5a0:	03ae                	slli	t2,t2,0xb
 5a2:	0000                	unimp
 5a4:	0266                	slli	tp,tp,0x19
 5a6:	0000                	unimp
 5a8:	02c8                	addi	a0,sp,324
	...

Disassembly of section .comment:

00000000 <.comment>:
   0:	3a434347          	.insn	4, 0x3a434347
   4:	2820                	.insn	2, 0x2820
   6:	31313567          	.insn	4, 0x31313567
   a:	6335                	lui	t1,0xd
   c:	34346537          	lui	a0,0x34346
  10:	20296637          	lui	a2,0x20296
  14:	3531                	jal	fffffe20 <__stack_top+0xfe7ffe20>
  16:	322e                	.insn	2, 0x322e
  18:	302e                	.insn	2, 0x302e
	...

Disassembly of section .riscv.attributes:

00000000 <.riscv.attributes>:
   0:	3441                	jal	fffffa80 <__stack_top+0xfe7ffa80>
   2:	0000                	unimp
   4:	7200                	.insn	2, 0x7200
   6:	7369                	lui	t1,0xffffa
   8:	01007663          	bgeu	zero,a6,14 <_start+0x14>
   c:	002a                	c.slli	zero,0xa
   e:	0000                	unimp
  10:	1004                	addi	s1,sp,32
  12:	7205                	lui	tp,0xfffe1
  14:	3376                	.insn	2, 0x3376
  16:	6932                	.insn	2, 0x6932
  18:	7032                	.insn	2, 0x7032
  1a:	5f31                	li	t5,-20
  1c:	30703263          	.insn	4, 0x30703263
  20:	7a5f 6369 7273      	.insn	6, 0x727363697a5f
  26:	7032                	.insn	2, 0x7032
  28:	5f30                	lw	a2,120(a4)
  2a:	637a                	.insn	2, 0x637a
  2c:	3161                	jal	fffffcb4 <__stack_top+0xfe7ffcb4>
  2e:	3070                	.insn	2, 0x3070
  30:	0800                	addi	s0,sp,16
  32:	0a01                	addi	s4,s4,0
  34:	0b                	.byte	0x0b
